

Microchip MPLAB XC8 Assembler V2.20 build 20200408173844 
                                                                                               Sat Jul 11 00:08:26 2020

Microchip MPLAB XC8 C Compiler v2.20 (Free license) build 20200408173844 Og1 
     1                           	processor	16F877A
     2                           	pagewidth 120
     3                           	opt	flic
     4                           	psect	idataBANK0,global,class=CODE,delta=2,noexec
     5                           	psect	cinit,global,class=CODE,merge=1,delta=2
     6                           	psect	bssBANK0,global,class=BANK0,space=1,delta=1,noexec
     7                           	psect	dataBANK0,global,class=BANK0,space=1,delta=1,noexec
     8                           	psect	clrtext,global,class=CODE,delta=2
     9                           	psect	cstackBANK1,global,class=BANK1,space=1,delta=1,noexec
    10                           	psect	cstackCOMMON,global,class=COMMON,space=1,delta=1,noexec
    11                           	psect	cstackBANK0,global,class=BANK0,space=1,delta=1,noexec
    12                           	psect	maintext,global,class=CODE,split=1,delta=2
    13                           	psect	text1,local,class=CODE,merge=1,delta=2
    14                           	psect	text2,local,class=CODE,merge=1,delta=2
    15                           	psect	text3,local,class=CODE,merge=1,delta=2
    16                           	psect	text4,local,class=CODE,merge=1,delta=2
    17                           	psect	text5,local,class=CODE,merge=1,delta=2,group=1
    18                           	psect	text6,local,class=CODE,merge=1,delta=2,group=1
    19                           	psect	text7,local,class=CODE,merge=1,delta=2
    20                           	psect	text8,local,class=CODE,merge=1,delta=2
    21                           	psect	text9,local,class=CODE,merge=1,delta=2,group=1
    22                           	psect	text10,local,class=CODE,merge=1,delta=2
    23                           	psect	text11,local,class=CODE,merge=1,delta=2
    24                           	psect	text12,local,class=CODE,merge=1,delta=2
    25                           	psect	text13,local,class=CODE,merge=1,delta=2
    26                           	psect	intentry,global,class=CODE,delta=2
    27                           	psect	text14,local,class=CODE,merge=1,delta=2
    28                           	psect	text15,local,class=CODE,merge=1,delta=2
    29                           	psect	text16,local,class=CODE,merge=1,delta=2
    30                           	psect	text17,local,class=CODE,merge=1,delta=2
    31                           	psect	text18,local,class=CODE,merge=1,delta=2
    32                           	psect	config,global,abs,ovrld,class=CONFIG,space=4,delta=2,noexec
    33                           	dabs	1,0x7E,2
    34  0000                     
    35                           ; Version 2.20
    36                           ; Generated 12/02/2020 GMT
    37                           ; 
    38                           ; Copyright © 2020, Microchip Technology Inc. and its subsidiaries ("Microchip")
    39                           ; All rights reserved.
    40                           ; 
    41                           ; This software is developed by Microchip Technology Inc. and its subsidiaries ("Microch
      +                          ip").
    42                           ; 
    43                           ; Redistribution and use in source and binary forms, with or without modification, are
    44                           ; permitted provided that the following conditions are met:
    45                           ; 
    46                           ;     1. Redistributions of source code must retain the above copyright notice, this lis
      +                          t of
    47                           ;        conditions and the following disclaimer.
    48                           ; 
    49                           ;     2. Redistributions in binary form must reproduce the above copyright notice, this 
      +                          list
    50                           ;        of conditions and the following disclaimer in the documentation and/or other
    51                           ;        materials provided with the distribution.
    52                           ; 
    53                           ;     3. Microchip's name may not be used to endorse or promote products derived from th
      +                          is
    54                           ;        software without specific prior written permission.
    55                           ; 
    56                           ; THIS SOFTWARE IS PROVIDED BY MICROCHIP "AS IS" AND ANY EXPRESS OR IMPLIED WARRANTIES,
    57                           ; INCLUDING, BUT NOT LIMITED TO, THE IMPLIED WARRANTIES OF MERCHANTABILITY AND FITNESS F
      +                          OR
    58                           ; PURPOSE ARE DISCLAIMED.  IN NO EVENT SHALL MICROCHIP BE LIABLE FOR ANY DIRECT, INDIREC
      +                          T,
    59                           ; INCIDENTAL, SPECIAL, EXEMPLARY, OR CONSEQUENTIAL DAMAGES (INCLUDING BUT NOT LIMITED TO
    60                           ; PROCUREMENT OF SUBSTITUTE GOODS OR SERVICES; LOSS OF USE, DATA OR PROFITS; OR BUSINESS
    61                           ; INTERRUPTION) HOWSOEVER CAUSED AND ON ANY THEORY OF LIABILITY, WHETHER IN CONTRACT, ST
      +                          RICT
    62                           ; LIABILITY, OR TORT (INCLUDING NEGLIGENCE OR OTHERWISE) ARISING IN ANY WAY OUT OF THE U
      +                          SE OF
    63                           ; THIS SOFTWARE, EVEN IF ADVISED OF THE POSSIBILITY OF SUCH DAMAGE.
    64                           ; 
    65                           ; 
    66                           ; Code-generator required, PIC16F877A Definitions
    67                           ; 
    68                           ; SFR Addresses
    69  0000                     	;# 
    70  0001                     	;# 
    71  0002                     	;# 
    72  0003                     	;# 
    73  0004                     	;# 
    74  0005                     	;# 
    75  0006                     	;# 
    76  0007                     	;# 
    77  0008                     	;# 
    78  0009                     	;# 
    79  000A                     	;# 
    80  000B                     	;# 
    81  000C                     	;# 
    82  000D                     	;# 
    83  000E                     	;# 
    84  000E                     	;# 
    85  000F                     	;# 
    86  0010                     	;# 
    87  0011                     	;# 
    88  0012                     	;# 
    89  0013                     	;# 
    90  0014                     	;# 
    91  0015                     	;# 
    92  0015                     	;# 
    93  0016                     	;# 
    94  0017                     	;# 
    95  0018                     	;# 
    96  0019                     	;# 
    97  001A                     	;# 
    98  001B                     	;# 
    99  001B                     	;# 
   100  001C                     	;# 
   101  001D                     	;# 
   102  001E                     	;# 
   103  001F                     	;# 
   104  0081                     	;# 
   105  0085                     	;# 
   106  0086                     	;# 
   107  0087                     	;# 
   108  0088                     	;# 
   109  0089                     	;# 
   110  008C                     	;# 
   111  008D                     	;# 
   112  008E                     	;# 
   113  0091                     	;# 
   114  0092                     	;# 
   115  0093                     	;# 
   116  0094                     	;# 
   117  0098                     	;# 
   118  0099                     	;# 
   119  009C                     	;# 
   120  009D                     	;# 
   121  009E                     	;# 
   122  009F                     	;# 
   123  010C                     	;# 
   124  010D                     	;# 
   125  010E                     	;# 
   126  010F                     	;# 
   127  018C                     	;# 
   128  018D                     	;# 
   129  0000                     	;# 
   130  0001                     	;# 
   131  0002                     	;# 
   132  0003                     	;# 
   133  0004                     	;# 
   134  0005                     	;# 
   135  0006                     	;# 
   136  0007                     	;# 
   137  0008                     	;# 
   138  0009                     	;# 
   139  000A                     	;# 
   140  000B                     	;# 
   141  000C                     	;# 
   142  000D                     	;# 
   143  000E                     	;# 
   144  000E                     	;# 
   145  000F                     	;# 
   146  0010                     	;# 
   147  0011                     	;# 
   148  0012                     	;# 
   149  0013                     	;# 
   150  0014                     	;# 
   151  0015                     	;# 
   152  0015                     	;# 
   153  0016                     	;# 
   154  0017                     	;# 
   155  0018                     	;# 
   156  0019                     	;# 
   157  001A                     	;# 
   158  001B                     	;# 
   159  001B                     	;# 
   160  001C                     	;# 
   161  001D                     	;# 
   162  001E                     	;# 
   163  001F                     	;# 
   164  0081                     	;# 
   165  0085                     	;# 
   166  0086                     	;# 
   167  0087                     	;# 
   168  0088                     	;# 
   169  0089                     	;# 
   170  008C                     	;# 
   171  008D                     	;# 
   172  008E                     	;# 
   173  0091                     	;# 
   174  0092                     	;# 
   175  0093                     	;# 
   176  0094                     	;# 
   177  0098                     	;# 
   178  0099                     	;# 
   179  009C                     	;# 
   180  009D                     	;# 
   181  009E                     	;# 
   182  009F                     	;# 
   183  010C                     	;# 
   184  010D                     	;# 
   185  010E                     	;# 
   186  010F                     	;# 
   187  018C                     	;# 
   188  018D                     	;# 
   189  0000                     	;# 
   190  0001                     	;# 
   191  0002                     	;# 
   192  0003                     	;# 
   193  0004                     	;# 
   194  0005                     	;# 
   195  0006                     	;# 
   196  0007                     	;# 
   197  0008                     	;# 
   198  0009                     	;# 
   199  000A                     	;# 
   200  000B                     	;# 
   201  000C                     	;# 
   202  000D                     	;# 
   203  000E                     	;# 
   204  000E                     	;# 
   205  000F                     	;# 
   206  0010                     	;# 
   207  0011                     	;# 
   208  0012                     	;# 
   209  0013                     	;# 
   210  0014                     	;# 
   211  0015                     	;# 
   212  0015                     	;# 
   213  0016                     	;# 
   214  0017                     	;# 
   215  0018                     	;# 
   216  0019                     	;# 
   217  001A                     	;# 
   218  001B                     	;# 
   219  001B                     	;# 
   220  001C                     	;# 
   221  001D                     	;# 
   222  001E                     	;# 
   223  001F                     	;# 
   224  0081                     	;# 
   225  0085                     	;# 
   226  0086                     	;# 
   227  0087                     	;# 
   228  0088                     	;# 
   229  0089                     	;# 
   230  008C                     	;# 
   231  008D                     	;# 
   232  008E                     	;# 
   233  0091                     	;# 
   234  0092                     	;# 
   235  0093                     	;# 
   236  0094                     	;# 
   237  0098                     	;# 
   238  0099                     	;# 
   239  009C                     	;# 
   240  009D                     	;# 
   241  009E                     	;# 
   242  009F                     	;# 
   243  010C                     	;# 
   244  010D                     	;# 
   245  010E                     	;# 
   246  010F                     	;# 
   247  018C                     	;# 
   248  018D                     	;# 
   249  0000                     	;# 
   250  0001                     	;# 
   251  0002                     	;# 
   252  0003                     	;# 
   253  0004                     	;# 
   254  0005                     	;# 
   255  0006                     	;# 
   256  0007                     	;# 
   257  0008                     	;# 
   258  0009                     	;# 
   259  000A                     	;# 
   260  000B                     	;# 
   261  000C                     	;# 
   262  000D                     	;# 
   263  000E                     	;# 
   264  000E                     	;# 
   265  000F                     	;# 
   266  0010                     	;# 
   267  0011                     	;# 
   268  0012                     	;# 
   269  0013                     	;# 
   270  0014                     	;# 
   271  0015                     	;# 
   272  0015                     	;# 
   273  0016                     	;# 
   274  0017                     	;# 
   275  0018                     	;# 
   276  0019                     	;# 
   277  001A                     	;# 
   278  001B                     	;# 
   279  001B                     	;# 
   280  001C                     	;# 
   281  001D                     	;# 
   282  001E                     	;# 
   283  001F                     	;# 
   284  0081                     	;# 
   285  0085                     	;# 
   286  0086                     	;# 
   287  0087                     	;# 
   288  0088                     	;# 
   289  0089                     	;# 
   290  008C                     	;# 
   291  008D                     	;# 
   292  008E                     	;# 
   293  0091                     	;# 
   294  0092                     	;# 
   295  0093                     	;# 
   296  0094                     	;# 
   297  0098                     	;# 
   298  0099                     	;# 
   299  009C                     	;# 
   300  009D                     	;# 
   301  009E                     	;# 
   302  009F                     	;# 
   303  010C                     	;# 
   304  010D                     	;# 
   305  010E                     	;# 
   306  010F                     	;# 
   307  018C                     	;# 
   308  018D                     	;# 
   309  0000                     	;# 
   310  0001                     	;# 
   311  0002                     	;# 
   312  0003                     	;# 
   313  0004                     	;# 
   314  0005                     	;# 
   315  0006                     	;# 
   316  0007                     	;# 
   317  0008                     	;# 
   318  0009                     	;# 
   319  000A                     	;# 
   320  000B                     	;# 
   321  000C                     	;# 
   322  000D                     	;# 
   323  000E                     	;# 
   324  000E                     	;# 
   325  000F                     	;# 
   326  0010                     	;# 
   327  0011                     	;# 
   328  0012                     	;# 
   329  0013                     	;# 
   330  0014                     	;# 
   331  0015                     	;# 
   332  0015                     	;# 
   333  0016                     	;# 
   334  0017                     	;# 
   335  0018                     	;# 
   336  0019                     	;# 
   337  001A                     	;# 
   338  001B                     	;# 
   339  001B                     	;# 
   340  001C                     	;# 
   341  001D                     	;# 
   342  001E                     	;# 
   343  001F                     	;# 
   344  0081                     	;# 
   345  0085                     	;# 
   346  0086                     	;# 
   347  0087                     	;# 
   348  0088                     	;# 
   349  0089                     	;# 
   350  008C                     	;# 
   351  008D                     	;# 
   352  008E                     	;# 
   353  0091                     	;# 
   354  0092                     	;# 
   355  0093                     	;# 
   356  0094                     	;# 
   357  0098                     	;# 
   358  0099                     	;# 
   359  009C                     	;# 
   360  009D                     	;# 
   361  009E                     	;# 
   362  009F                     	;# 
   363  010C                     	;# 
   364  010D                     	;# 
   365  010E                     	;# 
   366  010F                     	;# 
   367  018C                     	;# 
   368  018D                     	;# 
   369                           
   370                           	psect	idataBANK0
   371  0737                     __pidataBANK0:
   372                           
   373                           ;initializer for _wantedTemp
   374  0737  3432               	retlw	50
   375  0738  3400               	retlw	0
   376                           
   377                           ;initializer for _stayIn
   378  0739  3401               	retlw	1
   379  073A  3400               	retlw	0
   380  000E                     _TMR1	set	14
   381  0009                     _PORTEbits	set	9
   382  001E                     _ADRESH	set	30
   383  001F                     _ADCON0bits	set	31
   384  001F                     _ADCON0	set	31
   385  0008                     _PORTD	set	8
   386  005E                     _PEIE	set	94
   387  0085                     _T1CKPS1	set	133
   388  0084                     _T1CKPS0	set	132
   389  0081                     _TMR1CS	set	129
   390  005F                     _GIE	set	95
   391  005C                     _INTE	set	92
   392  0060                     _TMR1IF	set	96
   393  0080                     _TMR1ON	set	128
   394  0059                     _INTF	set	89
   395  003D                     _RC5	set	61
   396  002C                     _RA4	set	44
   397  002D                     _RA5	set	45
   398  0035                     _RB5	set	53
   399  0037                     _RB7	set	55
   400  003A                     _RC2	set	58
   401  009E                     _ADRESL	set	158
   402  009F                     _ADCON1	set	159
   403  0088                     _TRISD	set	136
   404  0085                     _TRISA	set	133
   405  0460                     _TMR1IE	set	1120
   406  040E                     _INTEDG	set	1038
   407  0435                     _TRISB5	set	1077
   408  0437                     _TRISB7	set	1079
   409  043A                     _TRISC2	set	1082
   410  043D                     _TRISC5	set	1085
   411                           
   412                           	psect	cinit
   413  0015                     start_initialization:	
   414                           ; #config settings
   415                           
   416  0015                     __initialization:
   417                           
   418                           ; Initialize objects allocated to BANK0
   419  0015  120A  118A  2737  120A  118A  	fcall	__pidataBANK0	;fetch initializer
   420  001A  00DF               	movwf	__pdataBANK0& (0+127)
   421  001B  120A  118A  2738  120A  118A  	fcall	__pidataBANK0+1	;fetch initializer
   422  0020  00E0               	movwf	(__pdataBANK0+1)& (0+127)
   423  0021  120A  118A  2739  120A  118A  	fcall	__pidataBANK0+2	;fetch initializer
   424  0026  00E1               	movwf	(__pdataBANK0+2)& (0+127)
   425  0027  120A  118A  273A  120A  118A  	fcall	__pidataBANK0+3	;fetch initializer
   426  002C  00E2               	movwf	(__pdataBANK0+3)& (0+127)
   427                           
   428                           ; Clear objects allocated to BANK0
   429  002D  1383               	bcf	3,7	;select IRP bank0
   430  002E  3049               	movlw	low __pbssBANK0
   431  002F  0084               	movwf	4
   432  0030  305F               	movlw	low (__pbssBANK0+22)
   433  0031  120A  118A  2729  120A  118A  	fcall	clear_ram0
   434  0036                     end_of_initialization:	
   435                           ;End of C runtime variable initialization code
   436                           
   437  0036                     __end_of__initialization:
   438  0036  0183               	clrf	3
   439  0037  120A  118A  291F   	ljmp	_main	;jump to C main() function
   440                           
   441                           	psect	bssBANK0
   442  0049                     __pbssBANK0:
   443  0049                     _timer1counter:
   444  0049                     	ds	2
   445  004B                     _C:
   446  004B                     	ds	2
   447  004D                     _accumilated_tmeperature:
   448  004D                     	ds	2
   449  004F                     _tmp:
   450  004F                     	ds	2
   451  0051                     _cooler_flag:
   452  0051                     	ds	2
   453  0053                     _heater_flag:
   454  0053                     	ds	2
   455  0055                     _flag:
   456  0055                     	ds	2
   457  0057                     _tempinit:
   458  0057                     	ds	2
   459  0059                     _str:
   460  0059                     	ds	6
   461                           
   462                           	psect	dataBANK0
   463  005F                     __pdataBANK0:
   464  005F                     _wantedTemp:
   465  005F                     	ds	2
   466  0061                     _stayIn:
   467  0061                     	ds	2
   468                           
   469                           	psect	clrtext
   470  0729                     clear_ram0:	
   471                           ;	Called with FSR containing the base address, and
   472                           ;	W with the last address+1
   473                           
   474  0729  0064               	clrwdt	;clear the watchdog before getting into this loop
   475  072A                     clrloop0:
   476  072A  0180               	clrf	0	;clear RAM location pointed to by FSR
   477  072B  0A84               	incf	4,f	;increment pointer
   478  072C  0604               	xorwf	4,w	;XOR with final address
   479  072D  1903               	btfsc	3,2	;have we reached the end yet?
   480  072E  3400               	retlw	0	;all done for this memory range, return
   481  072F  0604               	xorwf	4,w	;XOR again to restore value
   482  0730  2F2A               	goto	clrloop0	;do the next byte
   483                           
   484                           	psect	cstackBANK1
   485  00A0                     __pcstackBANK1:
   486  00A0                     main@y:
   487                           
   488                           ; 1 bytes @ 0x0
   489  00A0                     	ds	1
   490  00A1                     main@x:
   491                           
   492                           ; 1 bytes @ 0x1
   493  00A1                     	ds	1
   494                           
   495                           	psect	cstackCOMMON
   496  0070                     __pcstackCOMMON:
   497  0070                     ?_TIMER1_init:
   498  0070                     ?_IRQ_RB0_init:	
   499                           ; 1 bytes @ 0x0
   500                           
   501  0070                     ?_adc_init:	
   502                           ; 1 bytes @ 0x0
   503                           
   504  0070                     ?_display7s:	
   505                           ; 1 bytes @ 0x0
   506                           
   507  0070                     ?_main:	
   508                           ; 1 bytes @ 0x0
   509                           
   510  0070                     ?_ISR:	
   511                           ; 1 bytes @ 0x0
   512                           
   513  0070                     ?i1_adc_amostra:	
   514                           ; 1 bytes @ 0x0
   515                           
   516  0070                     ?i1___lwmod:	
   517                           ; 2 bytes @ 0x0
   518                           
   519  0070                     i1___lwmod@divisor:	
   520                           ; 2 bytes @ 0x0
   521                           
   522                           
   523                           ; 2 bytes @ 0x0
   524  0070                     	ds	2
   525  0072                     ??i1_adc_amostra:
   526  0072                     i1___lwmod@dividend:	
   527                           ; 1 bytes @ 0x2
   528                           
   529                           
   530                           ; 2 bytes @ 0x2
   531  0072                     	ds	2
   532  0074                     ??i1___lwmod:
   533  0074                     i1___lwmod@counter:	
   534                           ; 1 bytes @ 0x4
   535                           
   536                           
   537                           ; 1 bytes @ 0x4
   538  0074                     	ds	1
   539  0075                     ?i1___lwdiv:
   540  0075                     i1___lwdiv@divisor:	
   541                           ; 2 bytes @ 0x5
   542                           
   543                           
   544                           ; 2 bytes @ 0x5
   545  0075                     	ds	2
   546  0077                     i1___lwdiv@dividend:
   547                           
   548                           ; 2 bytes @ 0x7
   549  0077                     	ds	2
   550  0079                     ??i1___lwdiv:
   551  0079                     i1adc_amostra@canal:	
   552                           ; 1 bytes @ 0x9
   553                           
   554  0079                     i1___lwdiv@quotient:	
   555                           ; 1 bytes @ 0x9
   556                           
   557                           
   558                           ; 2 bytes @ 0x9
   559  0079                     	ds	1
   560  007A                     ?i1___wmul:
   561  007A                     i1___wmul@multiplier:	
   562                           ; 2 bytes @ 0xA
   563                           
   564                           
   565                           ; 2 bytes @ 0xA
   566  007A                     	ds	1
   567  007B                     i1___lwdiv@counter:
   568                           
   569                           ; 1 bytes @ 0xB
   570  007B                     	ds	1
   571  007C                     ??i1_itoa:
   572  007C                     i1___wmul@multiplicand:	
   573                           ; 1 bytes @ 0xC
   574                           
   575                           
   576                           ; 2 bytes @ 0xC
   577  007C                     	ds	2
   578  007E                     ??i1___wmul:
   579                           
   580                           	psect	cstackBANK0
   581  0020                     __pcstackBANK0:	
   582                           ; 1 bytes @ 0xE
   583                           
   584  0020                     ?i1_itoa:
   585  0020                     i1itoa@val:	
   586                           ; 1 bytes @ 0x0
   587                           
   588  0020                     i1___wmul@product:	
   589                           ; 2 bytes @ 0x0
   590                           
   591                           
   592                           ; 2 bytes @ 0x0
   593  0020                     	ds	2
   594  0022                     i1itoa@str:
   595                           
   596                           ; 1 bytes @ 0x2
   597  0022                     	ds	1
   598  0023                     ??_ISR:
   599                           
   600                           ; 1 bytes @ 0x3
   601  0023                     	ds	8
   602  002B                     ISR@y:
   603                           
   604                           ; 1 bytes @ 0xB
   605  002B                     	ds	1
   606  002C                     ISR@x:
   607                           
   608                           ; 1 bytes @ 0xC
   609  002C                     	ds	1
   610  002D                     ??_TIMER1_init:
   611  002D                     ??_IRQ_RB0_init:	
   612                           ; 1 bytes @ 0xD
   613                           
   614  002D                     ??_adc_init:	
   615                           ; 1 bytes @ 0xD
   616                           
   617  002D                     ??_display7s:	
   618                           ; 1 bytes @ 0xD
   619                           
   620  002D                     ?_adc_amostra:	
   621                           ; 1 bytes @ 0xD
   622                           
   623  002D                     ?___lwmod:	
   624                           ; 2 bytes @ 0xD
   625                           
   626  002D                     ___lwmod@divisor:	
   627                           ; 2 bytes @ 0xD
   628                           
   629                           
   630                           ; 2 bytes @ 0xD
   631  002D                     	ds	2
   632  002F                     ??_adc_amostra:
   633  002F                     display7s@v:	
   634                           ; 1 bytes @ 0xF
   635                           
   636  002F                     ___lwmod@dividend:	
   637                           ; 1 bytes @ 0xF
   638                           
   639                           
   640                           ; 2 bytes @ 0xF
   641  002F                     	ds	2
   642  0031                     ??___lwmod:
   643  0031                     ___lwmod@counter:	
   644                           ; 1 bytes @ 0x11
   645                           
   646                           
   647                           ; 1 bytes @ 0x11
   648  0031                     	ds	1
   649  0032                     ?___lwdiv:
   650  0032                     ___lwdiv@divisor:	
   651                           ; 2 bytes @ 0x12
   652                           
   653                           
   654                           ; 2 bytes @ 0x12
   655  0032                     	ds	2
   656  0034                     ___lwdiv@dividend:
   657                           
   658                           ; 2 bytes @ 0x14
   659  0034                     	ds	2
   660  0036                     ??___lwdiv:
   661  0036                     adc_amostra@canal:	
   662                           ; 1 bytes @ 0x16
   663                           
   664  0036                     ___lwdiv@counter:	
   665                           ; 1 bytes @ 0x16
   666                           
   667                           
   668                           ; 1 bytes @ 0x16
   669  0036                     	ds	1
   670  0037                     ?___wmul:
   671  0037                     ___wmul@multiplier:	
   672                           ; 2 bytes @ 0x17
   673                           
   674  0037                     ___lwdiv@quotient:	
   675                           ; 2 bytes @ 0x17
   676                           
   677                           
   678                           ; 2 bytes @ 0x17
   679  0037                     	ds	2
   680  0039                     ?_itoa:
   681  0039                     itoa@val:	
   682                           ; 1 bytes @ 0x19
   683                           
   684  0039                     ___wmul@multiplicand:	
   685                           ; 2 bytes @ 0x19
   686                           
   687                           
   688                           ; 2 bytes @ 0x19
   689  0039                     	ds	2
   690  003B                     ??___wmul:
   691  003B                     itoa@str:	
   692                           ; 1 bytes @ 0x1B
   693                           
   694  003B                     ___wmul@product:	
   695                           ; 1 bytes @ 0x1B
   696                           
   697                           
   698                           ; 2 bytes @ 0x1B
   699  003B                     	ds	1
   700  003C                     ??_itoa:
   701                           
   702                           ; 1 bytes @ 0x1C
   703  003C                     	ds	1
   704  003D                     ?_init_temperature:
   705  003D                     ?_temperature_increase:	
   706                           ; 1 bytes @ 0x1D
   707                           
   708  003D                     ?_temperature_decrease:	
   709                           ; 1 bytes @ 0x1D
   710                           
   711  003D                     init_temperature@x:	
   712                           ; 1 bytes @ 0x1D
   713                           
   714  003D                     temperature_increase@x:	
   715                           ; 2 bytes @ 0x1D
   716                           
   717  003D                     temperature_decrease@x:	
   718                           ; 2 bytes @ 0x1D
   719                           
   720                           
   721                           ; 2 bytes @ 0x1D
   722  003D                     	ds	2
   723  003F                     init_temperature@y:
   724  003F                     temperature_increase@y:	
   725                           ; 1 bytes @ 0x1F
   726                           
   727  003F                     temperature_decrease@y:	
   728                           ; 1 bytes @ 0x1F
   729                           
   730                           
   731                           ; 1 bytes @ 0x1F
   732  003F                     	ds	1
   733  0040                     ??_init_temperature:
   734  0040                     ??_temperature_increase:	
   735                           ; 1 bytes @ 0x20
   736                           
   737  0040                     ??_temperature_decrease:	
   738                           ; 1 bytes @ 0x20
   739                           
   740                           
   741                           ; 1 bytes @ 0x20
   742  0040                     	ds	2
   743  0042                     init_temperature@y_121:
   744  0042                     temperature_decrease@res:	
   745                           ; 1 bytes @ 0x22
   746                           
   747                           
   748                           ; 2 bytes @ 0x22
   749  0042                     	ds	1
   750  0043                     init_temperature@x_122:
   751  0043                     temperature_increase@res:	
   752                           ; 1 bytes @ 0x23
   753                           
   754                           
   755                           ; 2 bytes @ 0x23
   756  0043                     	ds	1
   757  0044                     temperature_decrease@y_133:
   758  0044                     init_temperature@res:	
   759                           ; 1 bytes @ 0x24
   760                           
   761                           
   762                           ; 2 bytes @ 0x24
   763  0044                     	ds	1
   764  0045                     temperature_increase@y_127:
   765  0045                     temperature_decrease@x_134:	
   766                           ; 1 bytes @ 0x25
   767                           
   768                           
   769                           ; 1 bytes @ 0x25
   770  0045                     	ds	1
   771  0046                     temperature_increase@x_128:
   772                           
   773                           ; 1 bytes @ 0x26
   774  0046                     	ds	1
   775  0047                     ??_main:
   776                           
   777                           ; 1 bytes @ 0x27
   778  0047                     	ds	2
   779                           
   780                           	psect	maintext
   781  011F                     __pmaintext:	
   782 ;;
   783 ;;Main: autosize = 0, tempsize = 2, incstack = 0, save=0
   784 ;;
   785 ;; *************** function _main *****************
   786 ;; Defined at:
   787 ;;		line 32 in file "main.c"
   788 ;; Parameters:    Size  Location     Type
   789 ;;		None
   790 ;; Auto vars:     Size  Location     Type
   791 ;;  x               1    1[BANK1 ] unsigned char 
   792 ;;  y               1    0[BANK1 ] unsigned char 
   793 ;; Return value:  Size  Location     Type
   794 ;;                  1    wreg      void 
   795 ;; Registers used:
   796 ;;		wreg, fsr0l, fsr0h, status,2, status,0, btemp+1, pclath, cstack
   797 ;; Tracked objects:
   798 ;;		On entry : B00/0
   799 ;;		On exit  : 0/0
   800 ;;		Unchanged: 0/0
   801 ;; Data sizes:     COMMON   BANK0   BANK1   BANK3   BANK2
   802 ;;      Params:         0       0       0       0       0
   803 ;;      Locals:         0       0       2       0       0
   804 ;;      Temps:          0       2       0       0       0
   805 ;;      Totals:         0       2       2       0       0
   806 ;;Total ram usage:        4 bytes
   807 ;; Hardware stack levels required when called:    6
   808 ;; This function calls:
   809 ;;		_IRQ_RB0_init
   810 ;;		_TIMER1_init
   811 ;;		___wmul
   812 ;;		_adc_amostra
   813 ;;		_adc_init
   814 ;;		_display7s
   815 ;;		_init_temperature
   816 ;;		_itoa
   817 ;;		_temperature_decrease
   818 ;;		_temperature_increase
   819 ;; This function is called by:
   820 ;;		Startup code after reset
   821 ;; This function uses a non-reentrant model
   822 ;;
   823                           
   824                           
   825                           ;psect for function _main
   826  011F                     _main:
   827  011F                     l2365:	
   828                           ;incstack = 0
   829                           ; Regs used in _main: [wreg-fsr0h+status,2+status,0+btemp+1+pclath+cstack]
   830                           
   831                           
   832                           ;main.c: 34:     TIMER1_init ();
   833  011F  120A  118A  270F  120A  118A  	fcall	_TIMER1_init
   834                           
   835                           ;main.c: 35:     IRQ_RB0_init ();
   836  0124  120A  118A  2731  120A  118A  	fcall	_IRQ_RB0_init
   837  0129                     l2367:
   838                           
   839                           ;main.c: 39:     TRISA = 0x07;
   840  0129  3007               	movlw	7
   841  012A  1683               	bsf	3,5	;RP0=1, select bank1
   842  012B  1303               	bcf	3,6	;RP1=0, select bank1
   843  012C  0085               	movwf	5	;volatile
   844  012D                     l2369:
   845                           
   846                           ;main.c: 41:     TRISD = 0x00;
   847  012D  0188               	clrf	8	;volatile
   848  012E                     l2371:
   849                           
   850                           ;main.c: 43:     PORTD = 0x00;
   851  012E  1283               	bcf	3,5	;RP0=0, select bank0
   852  012F  1303               	bcf	3,6	;RP1=0, select bank0
   853  0130  0188               	clrf	8	;volatile
   854  0131                     l2373:
   855                           
   856                           ;main.c: 45:     TRISC5 = 0;
   857  0131  1683               	bsf	3,5	;RP0=1, select bank1
   858  0132  1303               	bcf	3,6	;RP1=0, select bank1
   859  0133  1287               	bcf	7,5	;volatile
   860  0134                     l2375:
   861                           
   862                           ;main.c: 46:     TRISC2 = 0;
   863  0134  1107               	bcf	7,2	;volatile
   864  0135                     l2377:
   865                           
   866                           ;main.c: 47:     RC2 = 0;
   867  0135  1283               	bcf	3,5	;RP0=0, select bank0
   868  0136  1303               	bcf	3,6	;RP1=0, select bank0
   869  0137  1107               	bcf	7,2	;volatile
   870  0138                     l2379:
   871                           
   872                           ;main.c: 48:     TRISB7 = 0;
   873  0138  1683               	bsf	3,5	;RP0=1, select bank1
   874  0139  1303               	bcf	3,6	;RP1=0, select bank1
   875  013A  1386               	bcf	6,7	;volatile
   876  013B                     l2381:
   877                           
   878                           ;main.c: 49:     RB7 =0;
   879  013B  1283               	bcf	3,5	;RP0=0, select bank0
   880  013C  1303               	bcf	3,6	;RP1=0, select bank0
   881  013D  1386               	bcf	6,7	;volatile
   882  013E                     l2383:
   883                           
   884                           ;main.c: 50:     TRISB5 = 0;
   885  013E  1683               	bsf	3,5	;RP0=1, select bank1
   886  013F  1303               	bcf	3,6	;RP1=0, select bank1
   887  0140  1286               	bcf	6,5	;volatile
   888  0141                     l2385:
   889                           
   890                           ;main.c: 51:     RB5 =0;
   891  0141  1283               	bcf	3,5	;RP0=0, select bank0
   892  0142  1303               	bcf	3,6	;RP1=0, select bank0
   893  0143  1286               	bcf	6,5	;volatile
   894                           
   895                           ;main.c: 52:     adc_init();
   896  0144  120A  118A  2720  120A  118A  	fcall	_adc_init
   897  0149                     l2387:
   898                           
   899                           ;main.c: 54:         if(flag)
   900  0149  1283               	bcf	3,5	;RP0=0, select bank0
   901  014A  1303               	bcf	3,6	;RP1=0, select bank0
   902  014B  0855               	movf	_flag,w
   903  014C  0456               	iorwf	_flag+1,w
   904  014D  1903               	btfsc	3,2
   905  014E  2950               	goto	u1491
   906  014F  2951               	goto	u1490
   907  0150                     u1491:
   908  0150  29F9               	goto	l98
   909  0151                     u1490:
   910  0151                     l2389:
   911                           
   912                           ;main.c: 55:         {;main.c: 56:             if (tempinit == 0)
   913  0151  0857               	movf	_tempinit,w
   914  0152  0458               	iorwf	_tempinit+1,w
   915  0153  1D03               	btfss	3,2
   916  0154  2956               	goto	u1501
   917  0155  2957               	goto	u1500
   918  0156                     u1501:
   919  0156  2965               	goto	l2393
   920  0157                     u1500:
   921  0157                     l2391:
   922                           
   923                           ;main.c: 57:             {;main.c: 58:                 init_temperature (tmp, str);
   924  0157  0850               	movf	_tmp+1,w
   925  0158  00BE               	movwf	init_temperature@x+1
   926  0159  084F               	movf	_tmp,w
   927  015A  00BD               	movwf	init_temperature@x
   928  015B  3059               	movlw	(low (_str| 0))& (0+255)
   929  015C  00FF               	movwf	btemp+1
   930  015D  087F               	movf	btemp+1,w
   931  015E  00BF               	movwf	init_temperature@y
   932  015F  120A  118A  21FF  120A  118A  	fcall	_init_temperature
   933                           
   934                           ;main.c: 59:             }else{
   935  0164  2949               	goto	l2387
   936  0165                     l2393:
   937                           
   938                           ;main.c: 60:                 if (heater_flag == 1)
   939  0165  0353               	decf	_heater_flag,w
   940  0166  0454               	iorwf	_heater_flag+1,w
   941  0167  1D03               	btfss	3,2
   942  0168  296A               	goto	u1511
   943  0169  296B               	goto	u1510
   944  016A                     u1511:
   945  016A  2978               	goto	l2397
   946  016B                     u1510:
   947  016B                     l2395:
   948                           
   949                           ;main.c: 61:                 {;main.c: 62:                     temperature_increase (tmp
      +                          , str);
   950  016B  0850               	movf	_tmp+1,w
   951  016C  00BE               	movwf	temperature_increase@x+1
   952  016D  084F               	movf	_tmp,w
   953  016E  00BD               	movwf	temperature_increase@x
   954  016F  3059               	movlw	(low (_str| 0))& (0+255)
   955  0170  00FF               	movwf	btemp+1
   956  0171  087F               	movf	btemp+1,w
   957  0172  00BF               	movwf	temperature_increase@y
   958  0173  120A  118A  22BA  120A  118A  	fcall	_temperature_increase
   959  0178                     l2397:
   960                           
   961                           ;main.c: 64:                 if (cooler_flag == 1)
   962  0178  1283               	bcf	3,5	;RP0=0, select bank0
   963  0179  1303               	bcf	3,6	;RP1=0, select bank0
   964  017A  0351               	decf	_cooler_flag,w
   965  017B  0452               	iorwf	_cooler_flag+1,w
   966  017C  1D03               	btfss	3,2
   967  017D  297F               	goto	u1521
   968  017E  2980               	goto	u1520
   969  017F                     u1521:
   970  017F  298D               	goto	l2401
   971  0180                     u1520:
   972  0180                     l2399:
   973                           
   974                           ;main.c: 65:                 {;main.c: 66:                     temperature_decrease (tmp
      +                          , str);
   975  0180  0850               	movf	_tmp+1,w
   976  0181  00BE               	movwf	temperature_decrease@x+1
   977  0182  084F               	movf	_tmp,w
   978  0183  00BD               	movwf	temperature_decrease@x
   979  0184  3059               	movlw	(low (_str| 0))& (0+255)
   980  0185  00FF               	movwf	btemp+1
   981  0186  087F               	movf	btemp+1,w
   982  0187  00BF               	movwf	temperature_decrease@y
   983  0188  120A  118A  236D  120A  118A  	fcall	_temperature_decrease
   984  018D                     l2401:
   985                           
   986                           ;main.c: 68:                 tmp=(adc_amostra(2)*10)/2;
   987  018D  3002               	movlw	2
   988  018E  120A  118A  2575  120A  118A  	fcall	_adc_amostra
   989  0193  1283               	bcf	3,5	;RP0=0, select bank0
   990  0194  1303               	bcf	3,6	;RP1=0, select bank0
   991  0195  082E               	movf	?_adc_amostra+1,w
   992  0196  00B8               	movwf	___wmul@multiplier+1
   993  0197  082D               	movf	?_adc_amostra,w
   994  0198  00B7               	movwf	___wmul@multiplier
   995  0199  300A               	movlw	10
   996  019A  00B9               	movwf	___wmul@multiplicand
   997  019B  3000               	movlw	0
   998  019C  00BA               	movwf	___wmul@multiplicand+1
   999  019D  120A  118A  26E8  120A  118A  	fcall	___wmul
  1000  01A2  1283               	bcf	3,5	;RP0=0, select bank0
  1001  01A3  1303               	bcf	3,6	;RP1=0, select bank0
  1002  01A4  0837               	movf	?___wmul,w
  1003  01A5  00C7               	movwf	??_main
  1004  01A6  0838               	movf	?___wmul+1,w
  1005  01A7  00C8               	movwf	??_main+1
  1006  01A8  1003               	clrc
  1007  01A9  0CC8               	rrf	??_main+1,f
  1008  01AA  0CC7               	rrf	??_main,f
  1009  01AB  0847               	movf	??_main,w
  1010  01AC  00CF               	movwf	_tmp
  1011  01AD  0848               	movf	??_main+1,w
  1012  01AE  00D0               	movwf	_tmp+1
  1013  01AF                     l2403:
  1014                           
  1015                           ;main.c: 69:                 itoa(tmp,str);
  1016  01AF  0850               	movf	_tmp+1,w
  1017  01B0  00BA               	movwf	itoa@val+1
  1018  01B1  084F               	movf	_tmp,w
  1019  01B2  00B9               	movwf	itoa@val
  1020  01B3  3059               	movlw	(low (_str| 0))& (0+255)
  1021  01B4  00FF               	movwf	btemp+1
  1022  01B5  087F               	movf	btemp+1,w
  1023  01B6  00BB               	movwf	itoa@str
  1024  01B7  120A  118A  2473  120A  118A  	fcall	_itoa
  1025  01BC                     l2405:
  1026                           
  1027                           ;main.c: 70:                 RA5 = 0;
  1028  01BC  1283               	bcf	3,5	;RP0=0, select bank0
  1029  01BD  1303               	bcf	3,6	;RP1=0, select bank0
  1030  01BE  1285               	bcf	5,5	;volatile
  1031  01BF                     l2407:
  1032                           
  1033                           ;main.c: 71:                 RA4 = 1;
  1034  01BF  1605               	bsf	5,4	;volatile
  1035  01C0                     l2409:
  1036                           
  1037                           ;main.c: 72:                 unsigned char y= str[2];
  1038  01C0  085B               	movf	_str+2,w
  1039  01C1  00FF               	movwf	btemp+1
  1040  01C2  087F               	movf	btemp+1,w
  1041  01C3  1683               	bsf	3,5	;RP0=1, select bank1
  1042  01C4  1303               	bcf	3,6	;RP1=0, select bank1
  1043  01C5  00A0               	movwf	main@y^(0+128)
  1044  01C6                     l2411:
  1045                           
  1046                           ;main.c: 73:                 PORTD=display7s(y);
  1047  01C6  0820               	movf	main@y^(0+128),w
  1048  01C7  120A  118A  2412  120A  118A  	fcall	_display7s
  1049  01CC  1283               	bcf	3,5	;RP0=0, select bank0
  1050  01CD  1303               	bcf	3,6	;RP1=0, select bank0
  1051  01CE  0088               	movwf	8	;volatile
  1052  01CF                     l2413:
  1053                           
  1054                           ;main.c: 74:                 _delay((unsigned long)((30)*(8000000/4000.0)));
  1055  01CF  304E               	movlw	78
  1056  01D0  1283               	bcf	3,5	;RP0=0, select bank0
  1057  01D1  1303               	bcf	3,6	;RP1=0, select bank0
  1058  01D2  00C8               	movwf	??_main+1
  1059  01D3  30EA               	movlw	234
  1060  01D4  00C7               	movwf	??_main
  1061  01D5                     u1537:
  1062  01D5  0BC7               	decfsz	??_main,f
  1063  01D6  29D5               	goto	u1537
  1064  01D7  0BC8               	decfsz	??_main+1,f
  1065  01D8  29D5               	goto	u1537
  1066  01D9  0000               	nop
  1067  01DA                     l2415:
  1068                           
  1069                           ;main.c: 75:                 RA4 = 0;
  1070  01DA  1283               	bcf	3,5	;RP0=0, select bank0
  1071  01DB  1303               	bcf	3,6	;RP1=0, select bank0
  1072  01DC  1205               	bcf	5,4	;volatile
  1073  01DD                     l2417:
  1074                           
  1075                           ;main.c: 76:                 RA5 = 1;
  1076  01DD  1685               	bsf	5,5	;volatile
  1077  01DE                     l2419:
  1078                           
  1079                           ;main.c: 77:                 unsigned char x= str[3];
  1080  01DE  085C               	movf	_str+3,w
  1081  01DF  00FF               	movwf	btemp+1
  1082  01E0  087F               	movf	btemp+1,w
  1083  01E1  1683               	bsf	3,5	;RP0=1, select bank1
  1084  01E2  1303               	bcf	3,6	;RP1=0, select bank1
  1085  01E3  00A1               	movwf	main@x^(0+128)
  1086  01E4                     l2421:
  1087                           
  1088                           ;main.c: 78:                 PORTD=display7s(x);
  1089  01E4  0821               	movf	main@x^(0+128),w
  1090  01E5  120A  118A  2412  120A  118A  	fcall	_display7s
  1091  01EA  1283               	bcf	3,5	;RP0=0, select bank0
  1092  01EB  1303               	bcf	3,6	;RP1=0, select bank0
  1093  01EC  0088               	movwf	8	;volatile
  1094  01ED                     l2423:
  1095                           
  1096                           ;main.c: 79:                 _delay((unsigned long)((30)*(8000000/4000.0)));
  1097  01ED  304E               	movlw	78
  1098  01EE  1283               	bcf	3,5	;RP0=0, select bank0
  1099  01EF  1303               	bcf	3,6	;RP1=0, select bank0
  1100  01F0  00C8               	movwf	??_main+1
  1101  01F1  30EA               	movlw	234
  1102  01F2  00C7               	movwf	??_main
  1103  01F3                     u1547:
  1104  01F3  0BC7               	decfsz	??_main,f
  1105  01F4  29F3               	goto	u1547
  1106  01F5  0BC8               	decfsz	??_main+1,f
  1107  01F6  29F3               	goto	u1547
  1108  01F7  0000               	nop
  1109  01F8  2949               	goto	l2387
  1110  01F9                     l98:
  1111                           
  1112                           ;main.c: 82:         {;main.c: 83:             RA5 = 0;
  1113  01F9  1285               	bcf	5,5	;volatile
  1114                           
  1115                           ;main.c: 84:             RA4 = 0;
  1116  01FA  1205               	bcf	5,4	;volatile
  1117  01FB  2949               	goto	l2387
  1118  01FC  120A  118A  2812   	ljmp	start
  1119  01FF                     __end_of_main:
  1120                           
  1121                           	psect	text1
  1122  02BA                     __ptext1:	
  1123 ;; *************** function _temperature_increase *****************
  1124 ;; Defined at:
  1125 ;;		line 120 in file "main.c"
  1126 ;; Parameters:    Size  Location     Type
  1127 ;;  x               2   29[BANK0 ] unsigned int 
  1128 ;;  y               1   31[BANK0 ] PTR unsigned char 
  1129 ;;		 -> str(6), 
  1130 ;; Auto vars:     Size  Location     Type
  1131 ;;  x               1   38[BANK0 ] unsigned char 
  1132 ;;  y               1   37[BANK0 ] unsigned char 
  1133 ;;  res             2   35[BANK0 ] int 
  1134 ;; Return value:  Size  Location     Type
  1135 ;;                  1    wreg      void 
  1136 ;; Registers used:
  1137 ;;		wreg, fsr0l, fsr0h, status,2, status,0, btemp+1, pclath, cstack
  1138 ;; Tracked objects:
  1139 ;;		On entry : 0/0
  1140 ;;		On exit  : 0/0
  1141 ;;		Unchanged: 0/0
  1142 ;; Data sizes:     COMMON   BANK0   BANK1   BANK3   BANK2
  1143 ;;      Params:         0       3       0       0       0
  1144 ;;      Locals:         0       4       0       0       0
  1145 ;;      Temps:          0       3       0       0       0
  1146 ;;      Totals:         0      10       0       0       0
  1147 ;;Total ram usage:       10 bytes
  1148 ;; Hardware stack levels used:    1
  1149 ;; Hardware stack levels required when called:    5
  1150 ;; This function calls:
  1151 ;;		___wmul
  1152 ;;		_adc_amostra
  1153 ;;		_display7s
  1154 ;;		_itoa
  1155 ;; This function is called by:
  1156 ;;		_main
  1157 ;; This function uses a non-reentrant model
  1158 ;;
  1159                           
  1160                           
  1161                           ;psect for function _temperature_increase
  1162  02BA                     _temperature_increase:
  1163  02BA                     l2277:	
  1164                           ;incstack = 0
  1165                           ; Regs used in _temperature_increase: [wreg-fsr0h+status,2+status,0+btemp+1+pclath+cstac
      +                          k]
  1166                           
  1167                           
  1168                           ;main.c: 120: void temperature_increase (unsigned int x, unsigned char y[6]);main.c: 121
      +                          : {;main.c: 122:     int res = 0;
  1169  02BA  1283               	bcf	3,5	;RP0=0, select bank0
  1170  02BB  1303               	bcf	3,6	;RP1=0, select bank0
  1171  02BC  01C3               	clrf	temperature_increase@res
  1172  02BD  01C4               	clrf	temperature_increase@res+1
  1173                           
  1174                           ;main.c: 123:     while (res <= wantedTemp+10){
  1175  02BE  2B4F               	goto	l2309
  1176  02BF                     l2279:
  1177                           
  1178                           ;main.c: 124:         if (flag == 1){
  1179  02BF  1283               	bcf	3,5	;RP0=0, select bank0
  1180  02C0  1303               	bcf	3,6	;RP1=0, select bank0
  1181  02C1  0355               	decf	_flag,w
  1182  02C2  0456               	iorwf	_flag+1,w
  1183  02C3  1D03               	btfss	3,2
  1184  02C4  2AC6               	goto	u1451
  1185  02C5  2AC7               	goto	u1450
  1186  02C6                     u1451:
  1187  02C6  2B4C               	goto	l120
  1188  02C7                     u1450:
  1189  02C7                     l2281:
  1190                           
  1191                           ;main.c: 125:             RC5 = 1;
  1192  02C7  1687               	bsf	7,5	;volatile
  1193  02C8                     l2283:
  1194                           
  1195                           ;main.c: 126:             tmp=(adc_amostra(2)*10)/2;
  1196  02C8  3002               	movlw	2
  1197  02C9  120A  118A  2575  120A  118A  	fcall	_adc_amostra
  1198  02CE  1283               	bcf	3,5	;RP0=0, select bank0
  1199  02CF  1303               	bcf	3,6	;RP1=0, select bank0
  1200  02D0  082E               	movf	?_adc_amostra+1,w
  1201  02D1  00B8               	movwf	___wmul@multiplier+1
  1202  02D2  082D               	movf	?_adc_amostra,w
  1203  02D3  00B7               	movwf	___wmul@multiplier
  1204  02D4  300A               	movlw	10
  1205  02D5  00B9               	movwf	___wmul@multiplicand
  1206  02D6  3000               	movlw	0
  1207  02D7  00BA               	movwf	___wmul@multiplicand+1
  1208  02D8  120A  118A  26E8  120A  118A  	fcall	___wmul
  1209  02DD  1283               	bcf	3,5	;RP0=0, select bank0
  1210  02DE  1303               	bcf	3,6	;RP1=0, select bank0
  1211  02DF  0837               	movf	?___wmul,w
  1212  02E0  00C0               	movwf	??_temperature_increase
  1213  02E1  0838               	movf	?___wmul+1,w
  1214  02E2  00C1               	movwf	??_temperature_increase+1
  1215  02E3  1003               	clrc
  1216  02E4  0CC1               	rrf	??_temperature_increase+1,f
  1217  02E5  0CC0               	rrf	??_temperature_increase,f
  1218  02E6  0840               	movf	??_temperature_increase,w
  1219  02E7  00CF               	movwf	_tmp
  1220  02E8  0841               	movf	??_temperature_increase+1,w
  1221  02E9  00D0               	movwf	_tmp+1
  1222  02EA                     l2285:
  1223                           
  1224                           ;main.c: 127:             itoa(tmp,str);
  1225  02EA  0850               	movf	_tmp+1,w
  1226  02EB  00BA               	movwf	itoa@val+1
  1227  02EC  084F               	movf	_tmp,w
  1228  02ED  00B9               	movwf	itoa@val
  1229  02EE  3059               	movlw	(low (_str| 0))& (0+255)
  1230  02EF  00FF               	movwf	btemp+1
  1231  02F0  087F               	movf	btemp+1,w
  1232  02F1  00BB               	movwf	itoa@str
  1233  02F2  120A  118A  2473  120A  118A  	fcall	_itoa
  1234  02F7                     l2287:
  1235                           
  1236                           ;main.c: 128:             RA5 = 0;
  1237  02F7  1283               	bcf	3,5	;RP0=0, select bank0
  1238  02F8  1303               	bcf	3,6	;RP1=0, select bank0
  1239  02F9  1285               	bcf	5,5	;volatile
  1240  02FA                     l2289:
  1241                           
  1242                           ;main.c: 129:             RA4 = 1;
  1243  02FA  1605               	bsf	5,4	;volatile
  1244  02FB                     l2291:
  1245                           
  1246                           ;main.c: 130:             unsigned char y= str[2];
  1247  02FB  085B               	movf	_str+2,w
  1248  02FC  00FF               	movwf	btemp+1
  1249  02FD  087F               	movf	btemp+1,w
  1250  02FE  00C5               	movwf	temperature_increase@y_127
  1251  02FF                     l2293:
  1252                           
  1253                           ;main.c: 131:             PORTD=display7s(y);
  1254  02FF  0845               	movf	temperature_increase@y_127,w
  1255  0300  120A  118A  2412  120A  118A  	fcall	_display7s
  1256  0305  1283               	bcf	3,5	;RP0=0, select bank0
  1257  0306  1303               	bcf	3,6	;RP1=0, select bank0
  1258  0307  0088               	movwf	8	;volatile
  1259  0308                     l2295:
  1260                           
  1261                           ;main.c: 132:             _delay((unsigned long)((30)*(8000000/4000.0)));
  1262  0308  304E               	movlw	78
  1263  0309  1283               	bcf	3,5	;RP0=0, select bank0
  1264  030A  1303               	bcf	3,6	;RP1=0, select bank0
  1265  030B  00C1               	movwf	??_temperature_increase+1
  1266  030C  30EA               	movlw	234
  1267  030D  00C0               	movwf	??_temperature_increase
  1268  030E                     u1557:
  1269  030E  0BC0               	decfsz	??_temperature_increase,f
  1270  030F  2B0E               	goto	u1557
  1271  0310  0BC1               	decfsz	??_temperature_increase+1,f
  1272  0311  2B0E               	goto	u1557
  1273  0312  0000               	nop
  1274  0313                     l2297:
  1275                           
  1276                           ;main.c: 133:             RA4 = 0;
  1277  0313  1283               	bcf	3,5	;RP0=0, select bank0
  1278  0314  1303               	bcf	3,6	;RP1=0, select bank0
  1279  0315  1205               	bcf	5,4	;volatile
  1280  0316                     l2299:
  1281                           
  1282                           ;main.c: 134:             RA5 = 1;
  1283  0316  1685               	bsf	5,5	;volatile
  1284  0317                     l2301:
  1285                           
  1286                           ;main.c: 135:             unsigned char x= str[3];
  1287  0317  085C               	movf	_str+3,w
  1288  0318  00FF               	movwf	btemp+1
  1289  0319  087F               	movf	btemp+1,w
  1290  031A  00C6               	movwf	temperature_increase@x_128
  1291  031B                     l2303:
  1292                           
  1293                           ;main.c: 136:             PORTD=display7s(x);
  1294  031B  0846               	movf	temperature_increase@x_128,w
  1295  031C  120A  118A  2412  120A  118A  	fcall	_display7s
  1296  0321  1283               	bcf	3,5	;RP0=0, select bank0
  1297  0322  1303               	bcf	3,6	;RP1=0, select bank0
  1298  0323  0088               	movwf	8	;volatile
  1299  0324                     l2305:
  1300                           
  1301                           ;main.c: 137:             _delay((unsigned long)((30)*(8000000/4000.0)));
  1302  0324  304E               	movlw	78
  1303  0325  1283               	bcf	3,5	;RP0=0, select bank0
  1304  0326  1303               	bcf	3,6	;RP1=0, select bank0
  1305  0327  00C1               	movwf	??_temperature_increase+1
  1306  0328  30EA               	movlw	234
  1307  0329  00C0               	movwf	??_temperature_increase
  1308  032A                     u1567:
  1309  032A  0BC0               	decfsz	??_temperature_increase,f
  1310  032B  2B2A               	goto	u1567
  1311  032C  0BC1               	decfsz	??_temperature_increase+1,f
  1312  032D  2B2A               	goto	u1567
  1313  032E  0000               	nop
  1314  032F                     l2307:
  1315                           
  1316                           ;main.c: 138:             res = (y*10)+x;
  1317  032F  1283               	bcf	3,5	;RP0=0, select bank0
  1318  0330  1303               	bcf	3,6	;RP1=0, select bank0
  1319  0331  0845               	movf	temperature_increase@y_127,w
  1320  0332  00C0               	movwf	??_temperature_increase
  1321  0333  01C1               	clrf	??_temperature_increase+1
  1322  0334  0840               	movf	??_temperature_increase,w
  1323  0335  00B7               	movwf	___wmul@multiplier
  1324  0336  0841               	movf	??_temperature_increase+1,w
  1325  0337  00B8               	movwf	___wmul@multiplier+1
  1326  0338  300A               	movlw	10
  1327  0339  00B9               	movwf	___wmul@multiplicand
  1328  033A  3000               	movlw	0
  1329  033B  00BA               	movwf	___wmul@multiplicand+1
  1330  033C  120A  118A  26E8  120A  118A  	fcall	___wmul
  1331  0341  1283               	bcf	3,5	;RP0=0, select bank0
  1332  0342  1303               	bcf	3,6	;RP1=0, select bank0
  1333  0343  0846               	movf	temperature_increase@x_128,w
  1334  0344  0737               	addwf	?___wmul,w
  1335  0345  00C3               	movwf	temperature_increase@res
  1336  0346  3000               	movlw	0
  1337  0347  1803               	skipnc
  1338  0348  3001               	movlw	1
  1339  0349  0738               	addwf	?___wmul+1,w
  1340  034A  00C4               	movwf	temperature_increase@res+1
  1341                           
  1342                           ;main.c: 139:         }else
  1343  034B  2B4F               	goto	l2309
  1344  034C                     l120:
  1345                           
  1346                           ;main.c: 140:         {;main.c: 141:             RA5 = 0;
  1347  034C  1285               	bcf	5,5	;volatile
  1348                           
  1349                           ;main.c: 142:             RA4 = 0;
  1350  034D  1205               	bcf	5,4	;volatile
  1351                           
  1352                           ;main.c: 143:             RC5 = 0;
  1353  034E  1287               	bcf	7,5	;volatile
  1354  034F                     l2309:
  1355                           
  1356                           ;main.c: 123:     while (res <= wantedTemp+10){
  1357  034F  085F               	movf	_wantedTemp,w
  1358  0350  3E0A               	addlw	10
  1359  0351  00C0               	movwf	??_temperature_increase
  1360  0352  0860               	movf	_wantedTemp+1,w
  1361  0353  1803               	skipnc
  1362  0354  3E01               	addlw	1
  1363  0355  3E00               	addlw	0
  1364  0356  00C1               	movwf	??_temperature_increase+1
  1365  0357  0841               	movf	??_temperature_increase+1,w
  1366  0358  3A80               	xorlw	128
  1367  0359  00C2               	movwf	??_temperature_increase+2
  1368  035A  0844               	movf	temperature_increase@res+1,w
  1369  035B  3A80               	xorlw	128
  1370  035C  0242               	subwf	??_temperature_increase+2,w
  1371  035D  1D03               	skipz
  1372  035E  2B61               	goto	u1465
  1373  035F  0843               	movf	temperature_increase@res,w
  1374  0360  0240               	subwf	??_temperature_increase,w
  1375  0361                     u1465:
  1376  0361  1803               	skipnc
  1377  0362  2B64               	goto	u1461
  1378  0363  2B65               	goto	u1460
  1379  0364                     u1461:
  1380  0364  2ABF               	goto	l2279
  1381  0365                     u1460:
  1382  0365                     l2311:
  1383                           
  1384                           ;main.c: 146:     heater_flag = 0;
  1385  0365  1283               	bcf	3,5	;RP0=0, select bank0
  1386  0366  1303               	bcf	3,6	;RP1=0, select bank0
  1387  0367  01D3               	clrf	_heater_flag
  1388  0368  01D4               	clrf	_heater_flag+1
  1389  0369                     l2313:
  1390                           
  1391                           ;main.c: 147:     RA5 = 0;
  1392  0369  1285               	bcf	5,5	;volatile
  1393  036A                     l2315:
  1394                           
  1395                           ;main.c: 148:     RA4 = 0;
  1396  036A  1205               	bcf	5,4	;volatile
  1397  036B                     l2317:
  1398                           
  1399                           ;main.c: 149:     RC5 = 0;
  1400  036B  1287               	bcf	7,5	;volatile
  1401  036C                     l123:
  1402  036C  0008               	return
  1403  036D                     __end_of_temperature_increase:
  1404                           
  1405                           	psect	text2
  1406  036D                     __ptext2:	
  1407 ;; *************** function _temperature_decrease *****************
  1408 ;; Defined at:
  1409 ;;		line 153 in file "main.c"
  1410 ;; Parameters:    Size  Location     Type
  1411 ;;  x               2   29[BANK0 ] unsigned int 
  1412 ;;  y               1   31[BANK0 ] PTR unsigned char 
  1413 ;;		 -> str(6), 
  1414 ;; Auto vars:     Size  Location     Type
  1415 ;;  x               1   37[BANK0 ] unsigned char 
  1416 ;;  y               1   36[BANK0 ] unsigned char 
  1417 ;;  res             2   34[BANK0 ] int 
  1418 ;; Return value:  Size  Location     Type
  1419 ;;                  1    wreg      void 
  1420 ;; Registers used:
  1421 ;;		wreg, fsr0l, fsr0h, status,2, status,0, btemp+1, pclath, cstack
  1422 ;; Tracked objects:
  1423 ;;		On entry : 0/0
  1424 ;;		On exit  : 0/0
  1425 ;;		Unchanged: 0/0
  1426 ;; Data sizes:     COMMON   BANK0   BANK1   BANK3   BANK2
  1427 ;;      Params:         0       3       0       0       0
  1428 ;;      Locals:         0       4       0       0       0
  1429 ;;      Temps:          0       2       0       0       0
  1430 ;;      Totals:         0       9       0       0       0
  1431 ;;Total ram usage:        9 bytes
  1432 ;; Hardware stack levels used:    1
  1433 ;; Hardware stack levels required when called:    5
  1434 ;; This function calls:
  1435 ;;		___wmul
  1436 ;;		_adc_amostra
  1437 ;;		_display7s
  1438 ;;		_itoa
  1439 ;; This function is called by:
  1440 ;;		_main
  1441 ;; This function uses a non-reentrant model
  1442 ;;
  1443                           
  1444                           
  1445                           ;psect for function _temperature_decrease
  1446  036D                     _temperature_decrease:
  1447  036D                     l2321:	
  1448                           ;incstack = 0
  1449                           ; Regs used in _temperature_decrease: [wreg-fsr0h+status,2+status,0+btemp+1+pclath+cstac
      +                          k]
  1450                           
  1451                           
  1452                           ;main.c: 153: void temperature_decrease (unsigned int x, unsigned char y[6]);main.c: 154
      +                          : {;main.c: 155:     int res = 80;
  1453  036D  3050               	movlw	80
  1454  036E  1283               	bcf	3,5	;RP0=0, select bank0
  1455  036F  1303               	bcf	3,6	;RP1=0, select bank0
  1456  0370  00C2               	movwf	temperature_decrease@res
  1457  0371  3000               	movlw	0
  1458  0372  00C3               	movwf	temperature_decrease@res+1
  1459                           
  1460                           ;main.c: 156:     while (res != wantedTemp){
  1461  0373  2C02               	goto	l2353
  1462  0374                     l2323:
  1463                           
  1464                           ;main.c: 157:         if (flag == 1){
  1465  0374  0355               	decf	_flag,w
  1466  0375  0456               	iorwf	_flag+1,w
  1467  0376  1D03               	btfss	3,2
  1468  0377  2B79               	goto	u1471
  1469  0378  2B7A               	goto	u1470
  1470  0379                     u1471:
  1471  0379  2BFF               	goto	l128
  1472  037A                     u1470:
  1473  037A                     l2325:
  1474                           
  1475                           ;main.c: 158:             RC2 = 1;
  1476  037A  1507               	bsf	7,2	;volatile
  1477  037B                     l2327:
  1478                           
  1479                           ;main.c: 159:             tmp=(adc_amostra(2)*10)/2;
  1480  037B  3002               	movlw	2
  1481  037C  120A  118A  2575  120A  118A  	fcall	_adc_amostra
  1482  0381  1283               	bcf	3,5	;RP0=0, select bank0
  1483  0382  1303               	bcf	3,6	;RP1=0, select bank0
  1484  0383  082E               	movf	?_adc_amostra+1,w
  1485  0384  00B8               	movwf	___wmul@multiplier+1
  1486  0385  082D               	movf	?_adc_amostra,w
  1487  0386  00B7               	movwf	___wmul@multiplier
  1488  0387  300A               	movlw	10
  1489  0388  00B9               	movwf	___wmul@multiplicand
  1490  0389  3000               	movlw	0
  1491  038A  00BA               	movwf	___wmul@multiplicand+1
  1492  038B  120A  118A  26E8  120A  118A  	fcall	___wmul
  1493  0390  1283               	bcf	3,5	;RP0=0, select bank0
  1494  0391  1303               	bcf	3,6	;RP1=0, select bank0
  1495  0392  0837               	movf	?___wmul,w
  1496  0393  00C0               	movwf	??_temperature_decrease
  1497  0394  0838               	movf	?___wmul+1,w
  1498  0395  00C1               	movwf	??_temperature_decrease+1
  1499  0396  1003               	clrc
  1500  0397  0CC1               	rrf	??_temperature_decrease+1,f
  1501  0398  0CC0               	rrf	??_temperature_decrease,f
  1502  0399  0840               	movf	??_temperature_decrease,w
  1503  039A  00CF               	movwf	_tmp
  1504  039B  0841               	movf	??_temperature_decrease+1,w
  1505  039C  00D0               	movwf	_tmp+1
  1506  039D                     l2329:
  1507                           
  1508                           ;main.c: 160:             itoa(tmp,str);
  1509  039D  0850               	movf	_tmp+1,w
  1510  039E  00BA               	movwf	itoa@val+1
  1511  039F  084F               	movf	_tmp,w
  1512  03A0  00B9               	movwf	itoa@val
  1513  03A1  3059               	movlw	(low (_str| 0))& (0+255)
  1514  03A2  00FF               	movwf	btemp+1
  1515  03A3  087F               	movf	btemp+1,w
  1516  03A4  00BB               	movwf	itoa@str
  1517  03A5  120A  118A  2473  120A  118A  	fcall	_itoa
  1518  03AA                     l2331:
  1519                           
  1520                           ;main.c: 161:             RA5 = 0;
  1521  03AA  1283               	bcf	3,5	;RP0=0, select bank0
  1522  03AB  1303               	bcf	3,6	;RP1=0, select bank0
  1523  03AC  1285               	bcf	5,5	;volatile
  1524  03AD                     l2333:
  1525                           
  1526                           ;main.c: 162:             RA4 = 1;
  1527  03AD  1605               	bsf	5,4	;volatile
  1528  03AE                     l2335:
  1529                           
  1530                           ;main.c: 163:             unsigned char y= str[2];
  1531  03AE  085B               	movf	_str+2,w
  1532  03AF  00FF               	movwf	btemp+1
  1533  03B0  087F               	movf	btemp+1,w
  1534  03B1  00C4               	movwf	temperature_decrease@y_133
  1535  03B2                     l2337:
  1536                           
  1537                           ;main.c: 164:             PORTD=display7s(y);
  1538  03B2  0844               	movf	temperature_decrease@y_133,w
  1539  03B3  120A  118A  2412  120A  118A  	fcall	_display7s
  1540  03B8  1283               	bcf	3,5	;RP0=0, select bank0
  1541  03B9  1303               	bcf	3,6	;RP1=0, select bank0
  1542  03BA  0088               	movwf	8	;volatile
  1543  03BB                     l2339:
  1544                           
  1545                           ;main.c: 165:             _delay((unsigned long)((30)*(8000000/4000.0)));
  1546  03BB  304E               	movlw	78
  1547  03BC  1283               	bcf	3,5	;RP0=0, select bank0
  1548  03BD  1303               	bcf	3,6	;RP1=0, select bank0
  1549  03BE  00C1               	movwf	??_temperature_decrease+1
  1550  03BF  30EA               	movlw	234
  1551  03C0  00C0               	movwf	??_temperature_decrease
  1552  03C1                     u1577:
  1553  03C1  0BC0               	decfsz	??_temperature_decrease,f
  1554  03C2  2BC1               	goto	u1577
  1555  03C3  0BC1               	decfsz	??_temperature_decrease+1,f
  1556  03C4  2BC1               	goto	u1577
  1557  03C5  0000               	nop
  1558  03C6                     l2341:
  1559                           
  1560                           ;main.c: 166:             RA4 = 0;
  1561  03C6  1283               	bcf	3,5	;RP0=0, select bank0
  1562  03C7  1303               	bcf	3,6	;RP1=0, select bank0
  1563  03C8  1205               	bcf	5,4	;volatile
  1564  03C9                     l2343:
  1565                           
  1566                           ;main.c: 167:             RA5 = 1;
  1567  03C9  1685               	bsf	5,5	;volatile
  1568  03CA                     l2345:
  1569                           
  1570                           ;main.c: 168:             unsigned char x= str[3];
  1571  03CA  085C               	movf	_str+3,w
  1572  03CB  00FF               	movwf	btemp+1
  1573  03CC  087F               	movf	btemp+1,w
  1574  03CD  00C5               	movwf	temperature_decrease@x_134
  1575  03CE                     l2347:
  1576                           
  1577                           ;main.c: 169:             PORTD=display7s(x);
  1578  03CE  0845               	movf	temperature_decrease@x_134,w
  1579  03CF  120A  118A  2412  120A  118A  	fcall	_display7s
  1580  03D4  1283               	bcf	3,5	;RP0=0, select bank0
  1581  03D5  1303               	bcf	3,6	;RP1=0, select bank0
  1582  03D6  0088               	movwf	8	;volatile
  1583  03D7                     l2349:
  1584                           
  1585                           ;main.c: 170:             _delay((unsigned long)((30)*(8000000/4000.0)));
  1586  03D7  304E               	movlw	78
  1587  03D8  1283               	bcf	3,5	;RP0=0, select bank0
  1588  03D9  1303               	bcf	3,6	;RP1=0, select bank0
  1589  03DA  00C1               	movwf	??_temperature_decrease+1
  1590  03DB  30EA               	movlw	234
  1591  03DC  00C0               	movwf	??_temperature_decrease
  1592  03DD                     u1587:
  1593  03DD  0BC0               	decfsz	??_temperature_decrease,f
  1594  03DE  2BDD               	goto	u1587
  1595  03DF  0BC1               	decfsz	??_temperature_decrease+1,f
  1596  03E0  2BDD               	goto	u1587
  1597  03E1  0000               	nop
  1598  03E2                     l2351:
  1599                           
  1600                           ;main.c: 171:             res = (y*10)+x;
  1601  03E2  1283               	bcf	3,5	;RP0=0, select bank0
  1602  03E3  1303               	bcf	3,6	;RP1=0, select bank0
  1603  03E4  0844               	movf	temperature_decrease@y_133,w
  1604  03E5  00C0               	movwf	??_temperature_decrease
  1605  03E6  01C1               	clrf	??_temperature_decrease+1
  1606  03E7  0840               	movf	??_temperature_decrease,w
  1607  03E8  00B7               	movwf	___wmul@multiplier
  1608  03E9  0841               	movf	??_temperature_decrease+1,w
  1609  03EA  00B8               	movwf	___wmul@multiplier+1
  1610  03EB  300A               	movlw	10
  1611  03EC  00B9               	movwf	___wmul@multiplicand
  1612  03ED  3000               	movlw	0
  1613  03EE  00BA               	movwf	___wmul@multiplicand+1
  1614  03EF  120A  118A  26E8  120A  118A  	fcall	___wmul
  1615  03F4  1283               	bcf	3,5	;RP0=0, select bank0
  1616  03F5  1303               	bcf	3,6	;RP1=0, select bank0
  1617  03F6  0845               	movf	temperature_decrease@x_134,w
  1618  03F7  0737               	addwf	?___wmul,w
  1619  03F8  00C2               	movwf	temperature_decrease@res
  1620  03F9  3000               	movlw	0
  1621  03FA  1803               	skipnc
  1622  03FB  3001               	movlw	1
  1623  03FC  0738               	addwf	?___wmul+1,w
  1624  03FD  00C3               	movwf	temperature_decrease@res+1
  1625                           
  1626                           ;main.c: 172:         }else
  1627  03FE  2C02               	goto	l2353
  1628  03FF                     l128:
  1629                           
  1630                           ;main.c: 173:         {;main.c: 174:             RA5 = 0;
  1631  03FF  1285               	bcf	5,5	;volatile
  1632                           
  1633                           ;main.c: 175:             RA4 = 0;
  1634  0400  1205               	bcf	5,4	;volatile
  1635                           
  1636                           ;main.c: 176:             RC2 = 0;
  1637  0401  1107               	bcf	7,2	;volatile
  1638  0402                     l2353:
  1639                           
  1640                           ;main.c: 156:     while (res != wantedTemp){
  1641  0402  0860               	movf	_wantedTemp+1,w
  1642  0403  0643               	xorwf	temperature_decrease@res+1,w
  1643  0404  1D03               	skipz
  1644  0405  2C08               	goto	u1485
  1645  0406  085F               	movf	_wantedTemp,w
  1646  0407  0642               	xorwf	temperature_decrease@res,w
  1647  0408                     u1485:
  1648  0408  1D03               	skipz
  1649  0409  2C0B               	goto	u1481
  1650  040A  2C0C               	goto	u1480
  1651  040B                     u1481:
  1652  040B  2B74               	goto	l2323
  1653  040C                     u1480:
  1654  040C                     l2355:
  1655                           
  1656                           ;main.c: 179:     cooler_flag = 0;
  1657  040C  01D1               	clrf	_cooler_flag
  1658  040D  01D2               	clrf	_cooler_flag+1
  1659  040E                     l2357:
  1660                           
  1661                           ;main.c: 180:     RA5 = 0;
  1662  040E  1285               	bcf	5,5	;volatile
  1663  040F                     l2359:
  1664                           
  1665                           ;main.c: 181:     RA4 = 0;
  1666  040F  1205               	bcf	5,4	;volatile
  1667  0410                     l2361:
  1668                           
  1669                           ;main.c: 182:     RC2 = 0;
  1670  0410  1107               	bcf	7,2	;volatile
  1671  0411                     l131:
  1672  0411  0008               	return
  1673  0412                     __end_of_temperature_decrease:
  1674                           
  1675                           	psect	text3
  1676  01FF                     __ptext3:	
  1677 ;; *************** function _init_temperature *****************
  1678 ;; Defined at:
  1679 ;;		line 90 in file "main.c"
  1680 ;; Parameters:    Size  Location     Type
  1681 ;;  x               2   29[BANK0 ] unsigned int 
  1682 ;;  y               1   31[BANK0 ] PTR unsigned char 
  1683 ;;		 -> str(6), 
  1684 ;; Auto vars:     Size  Location     Type
  1685 ;;  x               1   35[BANK0 ] unsigned char 
  1686 ;;  y               1   34[BANK0 ] unsigned char 
  1687 ;;  res             2   36[BANK0 ] int 
  1688 ;; Return value:  Size  Location     Type
  1689 ;;                  1    wreg      void 
  1690 ;; Registers used:
  1691 ;;		wreg, fsr0l, fsr0h, status,2, status,0, btemp+1, pclath, cstack
  1692 ;; Tracked objects:
  1693 ;;		On entry : 0/0
  1694 ;;		On exit  : 0/0
  1695 ;;		Unchanged: 0/0
  1696 ;; Data sizes:     COMMON   BANK0   BANK1   BANK3   BANK2
  1697 ;;      Params:         0       3       0       0       0
  1698 ;;      Locals:         0       4       0       0       0
  1699 ;;      Temps:          0       2       0       0       0
  1700 ;;      Totals:         0       9       0       0       0
  1701 ;;Total ram usage:        9 bytes
  1702 ;; Hardware stack levels used:    1
  1703 ;; Hardware stack levels required when called:    5
  1704 ;; This function calls:
  1705 ;;		___wmul
  1706 ;;		_adc_amostra
  1707 ;;		_display7s
  1708 ;;		_itoa
  1709 ;; This function is called by:
  1710 ;;		_main
  1711 ;; This function uses a non-reentrant model
  1712 ;;
  1713                           
  1714                           
  1715                           ;psect for function _init_temperature
  1716  01FF                     _init_temperature:
  1717  01FF                     l2233:	
  1718                           ;incstack = 0
  1719                           ; Regs used in _init_temperature: [wreg-fsr0h+status,2+status,0+btemp+1+pclath+cstack]
  1720                           
  1721                           
  1722                           ;main.c: 90: void init_temperature (unsigned int x, unsigned char y[6]);main.c: 91: {;ma
      +                          in.c: 92:     int res = 0;
  1723  01FF  1283               	bcf	3,5	;RP0=0, select bank0
  1724  0200  1303               	bcf	3,6	;RP1=0, select bank0
  1725  0201  01C4               	clrf	init_temperature@res
  1726  0202  01C5               	clrf	init_temperature@res+1
  1727                           
  1728                           ;main.c: 93:     while (flag && res <= wantedTemp){
  1729  0203  2A8A               	goto	l2261
  1730  0204                     l110:
  1731                           
  1732                           ;main.c: 94:         RC5 = 1;
  1733  0204  1283               	bcf	3,5	;RP0=0, select bank0
  1734  0205  1303               	bcf	3,6	;RP1=0, select bank0
  1735  0206  1687               	bsf	7,5	;volatile
  1736  0207                     l2235:
  1737                           
  1738                           ;main.c: 95:         tmp=(adc_amostra(2)*10)/2;
  1739  0207  3002               	movlw	2
  1740  0208  120A  118A  2575  120A  118A  	fcall	_adc_amostra
  1741  020D  1283               	bcf	3,5	;RP0=0, select bank0
  1742  020E  1303               	bcf	3,6	;RP1=0, select bank0
  1743  020F  082E               	movf	?_adc_amostra+1,w
  1744  0210  00B8               	movwf	___wmul@multiplier+1
  1745  0211  082D               	movf	?_adc_amostra,w
  1746  0212  00B7               	movwf	___wmul@multiplier
  1747  0213  300A               	movlw	10
  1748  0214  00B9               	movwf	___wmul@multiplicand
  1749  0215  3000               	movlw	0
  1750  0216  00BA               	movwf	___wmul@multiplicand+1
  1751  0217  120A  118A  26E8  120A  118A  	fcall	___wmul
  1752  021C  1283               	bcf	3,5	;RP0=0, select bank0
  1753  021D  1303               	bcf	3,6	;RP1=0, select bank0
  1754  021E  0837               	movf	?___wmul,w
  1755  021F  00C0               	movwf	??_init_temperature
  1756  0220  0838               	movf	?___wmul+1,w
  1757  0221  00C1               	movwf	??_init_temperature+1
  1758  0222  1003               	clrc
  1759  0223  0CC1               	rrf	??_init_temperature+1,f
  1760  0224  0CC0               	rrf	??_init_temperature,f
  1761  0225  0840               	movf	??_init_temperature,w
  1762  0226  00CF               	movwf	_tmp
  1763  0227  0841               	movf	??_init_temperature+1,w
  1764  0228  00D0               	movwf	_tmp+1
  1765  0229                     l2237:
  1766                           
  1767                           ;main.c: 96:         itoa(tmp,str);
  1768  0229  0850               	movf	_tmp+1,w
  1769  022A  00BA               	movwf	itoa@val+1
  1770  022B  084F               	movf	_tmp,w
  1771  022C  00B9               	movwf	itoa@val
  1772  022D  3059               	movlw	(low (_str| 0))& (0+255)
  1773  022E  00FF               	movwf	btemp+1
  1774  022F  087F               	movf	btemp+1,w
  1775  0230  00BB               	movwf	itoa@str
  1776  0231  120A  118A  2473  120A  118A  	fcall	_itoa
  1777  0236                     l2239:
  1778                           
  1779                           ;main.c: 97:         RA5 = 0;
  1780  0236  1283               	bcf	3,5	;RP0=0, select bank0
  1781  0237  1303               	bcf	3,6	;RP1=0, select bank0
  1782  0238  1285               	bcf	5,5	;volatile
  1783  0239                     l2241:
  1784                           
  1785                           ;main.c: 98:         RA4 = 1;
  1786  0239  1605               	bsf	5,4	;volatile
  1787  023A                     l2243:
  1788                           
  1789                           ;main.c: 99:         unsigned char y= str[2];
  1790  023A  085B               	movf	_str+2,w
  1791  023B  00FF               	movwf	btemp+1
  1792  023C  087F               	movf	btemp+1,w
  1793  023D  00C2               	movwf	init_temperature@y_121
  1794  023E                     l2245:
  1795                           
  1796                           ;main.c: 100:         PORTD=display7s(y);
  1797  023E  0842               	movf	init_temperature@y_121,w
  1798  023F  120A  118A  2412  120A  118A  	fcall	_display7s
  1799  0244  1283               	bcf	3,5	;RP0=0, select bank0
  1800  0245  1303               	bcf	3,6	;RP1=0, select bank0
  1801  0246  0088               	movwf	8	;volatile
  1802  0247                     l2247:
  1803                           
  1804                           ;main.c: 101:         _delay((unsigned long)((30)*(8000000/4000.0)));
  1805  0247  304E               	movlw	78
  1806  0248  1283               	bcf	3,5	;RP0=0, select bank0
  1807  0249  1303               	bcf	3,6	;RP1=0, select bank0
  1808  024A  00C1               	movwf	??_init_temperature+1
  1809  024B  30EA               	movlw	234
  1810  024C  00C0               	movwf	??_init_temperature
  1811  024D                     u1597:
  1812  024D  0BC0               	decfsz	??_init_temperature,f
  1813  024E  2A4D               	goto	u1597
  1814  024F  0BC1               	decfsz	??_init_temperature+1,f
  1815  0250  2A4D               	goto	u1597
  1816  0251  0000               	nop
  1817  0252                     l2249:
  1818                           
  1819                           ;main.c: 102:         RA4 = 0;
  1820  0252  1283               	bcf	3,5	;RP0=0, select bank0
  1821  0253  1303               	bcf	3,6	;RP1=0, select bank0
  1822  0254  1205               	bcf	5,4	;volatile
  1823  0255                     l2251:
  1824                           
  1825                           ;main.c: 103:         RA5 = 1;
  1826  0255  1685               	bsf	5,5	;volatile
  1827  0256                     l2253:
  1828                           
  1829                           ;main.c: 104:         unsigned char x= str[3];
  1830  0256  085C               	movf	_str+3,w
  1831  0257  00FF               	movwf	btemp+1
  1832  0258  087F               	movf	btemp+1,w
  1833  0259  00C3               	movwf	init_temperature@x_122
  1834  025A                     l2255:
  1835                           
  1836                           ;main.c: 105:         PORTD=display7s(x);
  1837  025A  0843               	movf	init_temperature@x_122,w
  1838  025B  120A  118A  2412  120A  118A  	fcall	_display7s
  1839  0260  1283               	bcf	3,5	;RP0=0, select bank0
  1840  0261  1303               	bcf	3,6	;RP1=0, select bank0
  1841  0262  0088               	movwf	8	;volatile
  1842  0263                     l2257:
  1843                           
  1844                           ;main.c: 106:         _delay((unsigned long)((30)*(8000000/4000.0)));
  1845  0263  304E               	movlw	78
  1846  0264  1283               	bcf	3,5	;RP0=0, select bank0
  1847  0265  1303               	bcf	3,6	;RP1=0, select bank0
  1848  0266  00C1               	movwf	??_init_temperature+1
  1849  0267  30EA               	movlw	234
  1850  0268  00C0               	movwf	??_init_temperature
  1851  0269                     u1607:
  1852  0269  0BC0               	decfsz	??_init_temperature,f
  1853  026A  2A69               	goto	u1607
  1854  026B  0BC1               	decfsz	??_init_temperature+1,f
  1855  026C  2A69               	goto	u1607
  1856  026D  0000               	nop
  1857  026E                     l2259:
  1858                           
  1859                           ;main.c: 107:         res = (y*10)+x;
  1860  026E  1283               	bcf	3,5	;RP0=0, select bank0
  1861  026F  1303               	bcf	3,6	;RP1=0, select bank0
  1862  0270  0842               	movf	init_temperature@y_121,w
  1863  0271  00C0               	movwf	??_init_temperature
  1864  0272  01C1               	clrf	??_init_temperature+1
  1865  0273  0840               	movf	??_init_temperature,w
  1866  0274  00B7               	movwf	___wmul@multiplier
  1867  0275  0841               	movf	??_init_temperature+1,w
  1868  0276  00B8               	movwf	___wmul@multiplier+1
  1869  0277  300A               	movlw	10
  1870  0278  00B9               	movwf	___wmul@multiplicand
  1871  0279  3000               	movlw	0
  1872  027A  00BA               	movwf	___wmul@multiplicand+1
  1873  027B  120A  118A  26E8  120A  118A  	fcall	___wmul
  1874  0280  1283               	bcf	3,5	;RP0=0, select bank0
  1875  0281  1303               	bcf	3,6	;RP1=0, select bank0
  1876  0282  0843               	movf	init_temperature@x_122,w
  1877  0283  0737               	addwf	?___wmul,w
  1878  0284  00C4               	movwf	init_temperature@res
  1879  0285  3000               	movlw	0
  1880  0286  1803               	skipnc
  1881  0287  3001               	movlw	1
  1882  0288  0738               	addwf	?___wmul+1,w
  1883  0289  00C5               	movwf	init_temperature@res+1
  1884  028A                     l2261:
  1885                           
  1886                           ;main.c: 93:     while (flag && res <= wantedTemp){
  1887  028A  0855               	movf	_flag,w
  1888  028B  0456               	iorwf	_flag+1,w
  1889  028C  1903               	btfsc	3,2
  1890  028D  2A8F               	goto	u1421
  1891  028E  2A90               	goto	u1420
  1892  028F                     u1421:
  1893  028F  2A9E               	goto	l2265
  1894  0290                     u1420:
  1895  0290                     l2263:
  1896  0290  0860               	movf	_wantedTemp+1,w
  1897  0291  3A80               	xorlw	128
  1898  0292  00C0               	movwf	??_init_temperature
  1899  0293  0845               	movf	init_temperature@res+1,w
  1900  0294  3A80               	xorlw	128
  1901  0295  0240               	subwf	??_init_temperature,w
  1902  0296  1D03               	skipz
  1903  0297  2A9A               	goto	u1435
  1904  0298  0844               	movf	init_temperature@res,w
  1905  0299  025F               	subwf	_wantedTemp,w
  1906  029A                     u1435:
  1907  029A  1803               	skipnc
  1908  029B  2A9D               	goto	u1431
  1909  029C  2A9E               	goto	u1430
  1910  029D                     u1431:
  1911  029D  2A04               	goto	l110
  1912  029E                     u1430:
  1913  029E                     l2265:
  1914                           
  1915                           ;main.c: 109:     if (res >= wantedTemp)
  1916  029E  1283               	bcf	3,5	;RP0=0, select bank0
  1917  029F  1303               	bcf	3,6	;RP1=0, select bank0
  1918  02A0  0845               	movf	init_temperature@res+1,w
  1919  02A1  3A80               	xorlw	128
  1920  02A2  00C0               	movwf	??_init_temperature
  1921  02A3  0860               	movf	_wantedTemp+1,w
  1922  02A4  3A80               	xorlw	128
  1923  02A5  0240               	subwf	??_init_temperature,w
  1924  02A6  1D03               	skipz
  1925  02A7  2AAA               	goto	u1445
  1926  02A8  085F               	movf	_wantedTemp,w
  1927  02A9  0244               	subwf	init_temperature@res,w
  1928  02AA                     u1445:
  1929  02AA  1C03               	skipc
  1930  02AB  2AAD               	goto	u1441
  1931  02AC  2AAE               	goto	u1440
  1932  02AD                     u1441:
  1933  02AD  2AB4               	goto	l2269
  1934  02AE                     u1440:
  1935  02AE                     l2267:
  1936                           
  1937                           ;main.c: 110:     {;main.c: 111:         tempinit = 1;
  1938  02AE  3001               	movlw	1
  1939  02AF  1283               	bcf	3,5	;RP0=0, select bank0
  1940  02B0  1303               	bcf	3,6	;RP1=0, select bank0
  1941  02B1  00D7               	movwf	_tempinit
  1942  02B2  3000               	movlw	0
  1943  02B3  00D8               	movwf	_tempinit+1
  1944  02B4                     l2269:
  1945                           
  1946                           ;main.c: 113:     RA5 = 0;
  1947  02B4  1283               	bcf	3,5	;RP0=0, select bank0
  1948  02B5  1303               	bcf	3,6	;RP1=0, select bank0
  1949  02B6  1285               	bcf	5,5	;volatile
  1950  02B7                     l2271:
  1951                           
  1952                           ;main.c: 114:     RA4 = 0;
  1953  02B7  1205               	bcf	5,4	;volatile
  1954  02B8                     l2273:
  1955                           
  1956                           ;main.c: 115:     RC5 = 0;
  1957  02B8  1287               	bcf	7,5	;volatile
  1958  02B9                     l115:
  1959  02B9  0008               	return
  1960  02BA                     __end_of_init_temperature:
  1961                           
  1962                           	psect	text4
  1963  0473                     __ptext4:	
  1964 ;; *************** function _itoa *****************
  1965 ;; Defined at:
  1966 ;;		line 27 in file "itoa.c"
  1967 ;; Parameters:    Size  Location     Type
  1968 ;;  val             2   25[BANK0 ] unsigned int 
  1969 ;;  str             1   27[BANK0 ] PTR unsigned char 
  1970 ;;		 -> str(6), 
  1971 ;; Auto vars:     Size  Location     Type
  1972 ;;		None
  1973 ;; Return value:  Size  Location     Type
  1974 ;;                  1    wreg      void 
  1975 ;; Registers used:
  1976 ;;		wreg, fsr0l, fsr0h, status,2, status,0, btemp+1, pclath, cstack
  1977 ;; Tracked objects:
  1978 ;;		On entry : 0/0
  1979 ;;		On exit  : 0/0
  1980 ;;		Unchanged: 0/0
  1981 ;; Data sizes:     COMMON   BANK0   BANK1   BANK3   BANK2
  1982 ;;      Params:         0       3       0       0       0
  1983 ;;      Locals:         0       0       0       0       0
  1984 ;;      Temps:          0       0       0       0       0
  1985 ;;      Totals:         0       3       0       0       0
  1986 ;;Total ram usage:        3 bytes
  1987 ;; Hardware stack levels used:    1
  1988 ;; Hardware stack levels required when called:    4
  1989 ;; This function calls:
  1990 ;;		___lwdiv
  1991 ;;		___lwmod
  1992 ;; This function is called by:
  1993 ;;		_main
  1994 ;;		_init_temperature
  1995 ;;		_temperature_increase
  1996 ;;		_temperature_decrease
  1997 ;; This function uses a non-reentrant model
  1998 ;;
  1999                           
  2000                           
  2001                           ;psect for function _itoa
  2002  0473                     _itoa:
  2003  0473                     l2127:	
  2004                           ;incstack = 0
  2005                           ; Regs used in _itoa: [wreg-fsr0h+status,2+status,0+btemp+1+pclath+cstack]
  2006                           
  2007                           
  2008                           ;itoa.c: 27: void itoa(unsigned int val, unsigned char* str );itoa.c: 28: {;itoa.c: 32: 
      +                            str[2]=((val%1000)/100);
  2009  0473  3064               	movlw	100
  2010  0474  1283               	bcf	3,5	;RP0=0, select bank0
  2011  0475  1303               	bcf	3,6	;RP1=0, select bank0
  2012  0476  00B2               	movwf	___lwdiv@divisor
  2013  0477  3000               	movlw	0
  2014  0478  00B3               	movwf	___lwdiv@divisor+1
  2015  0479  083A               	movf	itoa@val+1,w
  2016  047A  00B0               	movwf	___lwmod@dividend+1
  2017  047B  0839               	movf	itoa@val,w
  2018  047C  00AF               	movwf	___lwmod@dividend
  2019  047D  30E8               	movlw	232
  2020  047E  00AD               	movwf	___lwmod@divisor
  2021  047F  3003               	movlw	3
  2022  0480  00AE               	movwf	___lwmod@divisor+1
  2023  0481  120A  118A  2647  120A  118A  	fcall	___lwmod
  2024  0486  1283               	bcf	3,5	;RP0=0, select bank0
  2025  0487  1303               	bcf	3,6	;RP1=0, select bank0
  2026  0488  082E               	movf	?___lwmod+1,w
  2027  0489  00B5               	movwf	___lwdiv@dividend+1
  2028  048A  082D               	movf	?___lwmod,w
  2029  048B  00B4               	movwf	___lwdiv@dividend
  2030  048C  120A  118A  25BD  120A  118A  	fcall	___lwdiv
  2031  0491  1283               	bcf	3,5	;RP0=0, select bank0
  2032  0492  1303               	bcf	3,6	;RP1=0, select bank0
  2033  0493  0832               	movf	?___lwdiv,w
  2034  0494  00FF               	movwf	btemp+1
  2035  0495  083B               	movf	itoa@str,w
  2036  0496  3E02               	addlw	2
  2037  0497  0084               	movwf	4
  2038  0498  087F               	movf	btemp+1,w
  2039  0499  1383               	bcf	3,7	;select IRP bank0
  2040  049A  0080               	movwf	0
  2041                           
  2042                           ;itoa.c: 33:   str[3]=((val%100)/10);
  2043  049B  300A               	movlw	10
  2044  049C  00B2               	movwf	___lwdiv@divisor
  2045  049D  3000               	movlw	0
  2046  049E  00B3               	movwf	___lwdiv@divisor+1
  2047  049F  083A               	movf	itoa@val+1,w
  2048  04A0  00B0               	movwf	___lwmod@dividend+1
  2049  04A1  0839               	movf	itoa@val,w
  2050  04A2  00AF               	movwf	___lwmod@dividend
  2051  04A3  3064               	movlw	100
  2052  04A4  00AD               	movwf	___lwmod@divisor
  2053  04A5  3000               	movlw	0
  2054  04A6  00AE               	movwf	___lwmod@divisor+1
  2055  04A7  120A  118A  2647  120A  118A  	fcall	___lwmod
  2056  04AC  1283               	bcf	3,5	;RP0=0, select bank0
  2057  04AD  1303               	bcf	3,6	;RP1=0, select bank0
  2058  04AE  082E               	movf	?___lwmod+1,w
  2059  04AF  00B5               	movwf	___lwdiv@dividend+1
  2060  04B0  082D               	movf	?___lwmod,w
  2061  04B1  00B4               	movwf	___lwdiv@dividend
  2062  04B2  120A  118A  25BD  120A  118A  	fcall	___lwdiv
  2063  04B7  1283               	bcf	3,5	;RP0=0, select bank0
  2064  04B8  1303               	bcf	3,6	;RP1=0, select bank0
  2065  04B9  0832               	movf	?___lwdiv,w
  2066  04BA  00FF               	movwf	btemp+1
  2067  04BB  083B               	movf	itoa@str,w
  2068  04BC  3E03               	addlw	3
  2069  04BD  0084               	movwf	4
  2070  04BE  087F               	movf	btemp+1,w
  2071  04BF  1383               	bcf	3,7	;select IRP bank0
  2072  04C0  0080               	movwf	0
  2073  04C1                     l2129:
  2074                           
  2075                           ;itoa.c: 34:   if (str[3] != 0)
  2076  04C1  083B               	movf	itoa@str,w
  2077  04C2  3E03               	addlw	3
  2078  04C3  0084               	movwf	4
  2079  04C4  0800               	movf	0,w
  2080  04C5  1903               	btfsc	3,2
  2081  04C6  2CC8               	goto	u1371
  2082  04C7  2CC9               	goto	u1370
  2083  04C8                     u1371:
  2084  04C8  2CCE               	goto	l181
  2085  04C9                     u1370:
  2086  04C9                     l2131:
  2087                           
  2088                           ;itoa.c: 35:       str[3]-=1;
  2089  04C9  083B               	movf	itoa@str,w
  2090  04CA  3E03               	addlw	3
  2091  04CB  0084               	movwf	4
  2092  04CC  3001               	movlw	1
  2093  04CD  0280               	subwf	0,f
  2094  04CE                     l181:
  2095  04CE  0008               	return
  2096  04CF                     __end_of_itoa:
  2097                           
  2098                           	psect	text5
  2099  0647                     __ptext5:	
  2100 ;; *************** function ___lwmod *****************
  2101 ;; Defined at:
  2102 ;;		line 5 in file "C:\Program Files\Microchip\xc8\v2.20\pic\sources\c90\common\lwmod.c"
  2103 ;; Parameters:    Size  Location     Type
  2104 ;;  divisor         2   13[BANK0 ] unsigned int 
  2105 ;;  dividend        2   15[BANK0 ] unsigned int 
  2106 ;; Auto vars:     Size  Location     Type
  2107 ;;  counter         1   17[BANK0 ] unsigned char 
  2108 ;; Return value:  Size  Location     Type
  2109 ;;                  2   13[BANK0 ] unsigned int 
  2110 ;; Registers used:
  2111 ;;		wreg, status,2, status,0, btemp+1
  2112 ;; Tracked objects:
  2113 ;;		On entry : 0/0
  2114 ;;		On exit  : 0/0
  2115 ;;		Unchanged: 0/0
  2116 ;; Data sizes:     COMMON   BANK0   BANK1   BANK3   BANK2
  2117 ;;      Params:         0       4       0       0       0
  2118 ;;      Locals:         0       1       0       0       0
  2119 ;;      Temps:          0       0       0       0       0
  2120 ;;      Totals:         0       5       0       0       0
  2121 ;;Total ram usage:        5 bytes
  2122 ;; Hardware stack levels used:    1
  2123 ;; Hardware stack levels required when called:    3
  2124 ;; This function calls:
  2125 ;;		Nothing
  2126 ;; This function is called by:
  2127 ;;		_itoa
  2128 ;; This function uses a non-reentrant model
  2129 ;;
  2130                           
  2131                           
  2132                           ;psect for function ___lwmod
  2133  0647                     ___lwmod:
  2134  0647                     l2083:	
  2135                           ;incstack = 0
  2136                           ; Regs used in ___lwmod: [wreg+status,2+status,0+btemp+1]
  2137                           
  2138  0647  1283               	bcf	3,5	;RP0=0, select bank0
  2139  0648  1303               	bcf	3,6	;RP1=0, select bank0
  2140  0649  082D               	movf	___lwmod@divisor,w
  2141  064A  042E               	iorwf	___lwmod@divisor+1,w
  2142  064B  1903               	btfsc	3,2
  2143  064C  2E4E               	goto	u1291
  2144  064D  2E4F               	goto	u1290
  2145  064E                     u1291:
  2146  064E  2E7E               	goto	l2101
  2147  064F                     u1290:
  2148  064F                     l2085:
  2149  064F  01B1               	clrf	___lwmod@counter
  2150  0650  0AB1               	incf	___lwmod@counter,f
  2151  0651  2E5D               	goto	l2091
  2152  0652                     l2087:
  2153  0652  3001               	movlw	1
  2154  0653                     u1305:
  2155  0653  1003               	clrc
  2156  0654  0DAD               	rlf	___lwmod@divisor,f
  2157  0655  0DAE               	rlf	___lwmod@divisor+1,f
  2158  0656  3EFF               	addlw	-1
  2159  0657  1D03               	skipz
  2160  0658  2E53               	goto	u1305
  2161  0659                     l2089:
  2162  0659  3001               	movlw	1
  2163  065A  00FF               	movwf	btemp+1
  2164  065B  087F               	movf	btemp+1,w
  2165  065C  07B1               	addwf	___lwmod@counter,f
  2166  065D                     l2091:
  2167  065D  1FAE               	btfss	___lwmod@divisor+1,7
  2168  065E  2E60               	goto	u1311
  2169  065F  2E61               	goto	u1310
  2170  0660                     u1311:
  2171  0660  2E52               	goto	l2087
  2172  0661                     u1310:
  2173  0661                     l2093:
  2174  0661  082E               	movf	___lwmod@divisor+1,w
  2175  0662  0230               	subwf	___lwmod@dividend+1,w
  2176  0663  1D03               	skipz
  2177  0664  2E67               	goto	u1325
  2178  0665  082D               	movf	___lwmod@divisor,w
  2179  0666  022F               	subwf	___lwmod@dividend,w
  2180  0667                     u1325:
  2181  0667  1C03               	skipc
  2182  0668  2E6A               	goto	u1321
  2183  0669  2E6B               	goto	u1320
  2184  066A                     u1321:
  2185  066A  2E71               	goto	l2097
  2186  066B                     u1320:
  2187  066B                     l2095:
  2188  066B  082D               	movf	___lwmod@divisor,w
  2189  066C  02AF               	subwf	___lwmod@dividend,f
  2190  066D  082E               	movf	___lwmod@divisor+1,w
  2191  066E  1C03               	skipc
  2192  066F  03B0               	decf	___lwmod@dividend+1,f
  2193  0670  02B0               	subwf	___lwmod@dividend+1,f
  2194  0671                     l2097:
  2195  0671  3001               	movlw	1
  2196  0672                     u1335:
  2197  0672  1003               	clrc
  2198  0673  0CAE               	rrf	___lwmod@divisor+1,f
  2199  0674  0CAD               	rrf	___lwmod@divisor,f
  2200  0675  3EFF               	addlw	-1
  2201  0676  1D03               	skipz
  2202  0677  2E72               	goto	u1335
  2203  0678                     l2099:
  2204  0678  3001               	movlw	1
  2205  0679  02B1               	subwf	___lwmod@counter,f
  2206  067A  1D03               	btfss	3,2
  2207  067B  2E7D               	goto	u1341
  2208  067C  2E7E               	goto	u1340
  2209  067D                     u1341:
  2210  067D  2E61               	goto	l2093
  2211  067E                     u1340:
  2212  067E                     l2101:
  2213  067E  0830               	movf	___lwmod@dividend+1,w
  2214  067F  00AE               	movwf	?___lwmod+1
  2215  0680  082F               	movf	___lwmod@dividend,w
  2216  0681  00AD               	movwf	?___lwmod
  2217  0682                     l595:
  2218  0682  0008               	return
  2219  0683                     __end_of___lwmod:
  2220                           
  2221                           	psect	text6
  2222  05BD                     __ptext6:	
  2223 ;; *************** function ___lwdiv *****************
  2224 ;; Defined at:
  2225 ;;		line 5 in file "C:\Program Files\Microchip\xc8\v2.20\pic\sources\c90\common\lwdiv.c"
  2226 ;; Parameters:    Size  Location     Type
  2227 ;;  divisor         2   18[BANK0 ] unsigned int 
  2228 ;;  dividend        2   20[BANK0 ] unsigned int 
  2229 ;; Auto vars:     Size  Location     Type
  2230 ;;  quotient        2   23[BANK0 ] unsigned int 
  2231 ;;  counter         1   22[BANK0 ] unsigned char 
  2232 ;; Return value:  Size  Location     Type
  2233 ;;                  2   18[BANK0 ] unsigned int 
  2234 ;; Registers used:
  2235 ;;		wreg, status,2, status,0, btemp+1
  2236 ;; Tracked objects:
  2237 ;;		On entry : 0/0
  2238 ;;		On exit  : 0/0
  2239 ;;		Unchanged: 0/0
  2240 ;; Data sizes:     COMMON   BANK0   BANK1   BANK3   BANK2
  2241 ;;      Params:         0       4       0       0       0
  2242 ;;      Locals:         0       3       0       0       0
  2243 ;;      Temps:          0       0       0       0       0
  2244 ;;      Totals:         0       7       0       0       0
  2245 ;;Total ram usage:        7 bytes
  2246 ;; Hardware stack levels used:    1
  2247 ;; Hardware stack levels required when called:    3
  2248 ;; This function calls:
  2249 ;;		Nothing
  2250 ;; This function is called by:
  2251 ;;		_itoa
  2252 ;; This function uses a non-reentrant model
  2253 ;;
  2254                           
  2255                           
  2256                           ;psect for function ___lwdiv
  2257  05BD                     ___lwdiv:
  2258  05BD                     l2057:	
  2259                           ;incstack = 0
  2260                           ; Regs used in ___lwdiv: [wreg+status,2+status,0+btemp+1]
  2261                           
  2262  05BD  1283               	bcf	3,5	;RP0=0, select bank0
  2263  05BE  1303               	bcf	3,6	;RP1=0, select bank0
  2264  05BF  01B7               	clrf	___lwdiv@quotient
  2265  05C0  01B8               	clrf	___lwdiv@quotient+1
  2266  05C1                     l2059:
  2267  05C1  0832               	movf	___lwdiv@divisor,w
  2268  05C2  0433               	iorwf	___lwdiv@divisor+1,w
  2269  05C3  1903               	btfsc	3,2
  2270  05C4  2DC6               	goto	u1221
  2271  05C5  2DC7               	goto	u1220
  2272  05C6                     u1221:
  2273  05C6  2DFE               	goto	l2079
  2274  05C7                     u1220:
  2275  05C7                     l2061:
  2276  05C7  01B6               	clrf	___lwdiv@counter
  2277  05C8  0AB6               	incf	___lwdiv@counter,f
  2278  05C9  2DD5               	goto	l2067
  2279  05CA                     l2063:
  2280  05CA  3001               	movlw	1
  2281  05CB                     u1235:
  2282  05CB  1003               	clrc
  2283  05CC  0DB2               	rlf	___lwdiv@divisor,f
  2284  05CD  0DB3               	rlf	___lwdiv@divisor+1,f
  2285  05CE  3EFF               	addlw	-1
  2286  05CF  1D03               	skipz
  2287  05D0  2DCB               	goto	u1235
  2288  05D1                     l2065:
  2289  05D1  3001               	movlw	1
  2290  05D2  00FF               	movwf	btemp+1
  2291  05D3  087F               	movf	btemp+1,w
  2292  05D4  07B6               	addwf	___lwdiv@counter,f
  2293  05D5                     l2067:
  2294  05D5  1FB3               	btfss	___lwdiv@divisor+1,7
  2295  05D6  2DD8               	goto	u1241
  2296  05D7  2DD9               	goto	u1240
  2297  05D8                     u1241:
  2298  05D8  2DCA               	goto	l2063
  2299  05D9                     u1240:
  2300  05D9                     l2069:
  2301  05D9  3001               	movlw	1
  2302  05DA                     u1255:
  2303  05DA  1003               	clrc
  2304  05DB  0DB7               	rlf	___lwdiv@quotient,f
  2305  05DC  0DB8               	rlf	___lwdiv@quotient+1,f
  2306  05DD  3EFF               	addlw	-1
  2307  05DE  1D03               	skipz
  2308  05DF  2DDA               	goto	u1255
  2309  05E0  0833               	movf	___lwdiv@divisor+1,w
  2310  05E1  0235               	subwf	___lwdiv@dividend+1,w
  2311  05E2  1D03               	skipz
  2312  05E3  2DE6               	goto	u1265
  2313  05E4  0832               	movf	___lwdiv@divisor,w
  2314  05E5  0234               	subwf	___lwdiv@dividend,w
  2315  05E6                     u1265:
  2316  05E6  1C03               	skipc
  2317  05E7  2DE9               	goto	u1261
  2318  05E8  2DEA               	goto	u1260
  2319  05E9                     u1261:
  2320  05E9  2DF1               	goto	l2075
  2321  05EA                     u1260:
  2322  05EA                     l2071:
  2323  05EA  0832               	movf	___lwdiv@divisor,w
  2324  05EB  02B4               	subwf	___lwdiv@dividend,f
  2325  05EC  0833               	movf	___lwdiv@divisor+1,w
  2326  05ED  1C03               	skipc
  2327  05EE  03B5               	decf	___lwdiv@dividend+1,f
  2328  05EF  02B5               	subwf	___lwdiv@dividend+1,f
  2329  05F0                     l2073:
  2330  05F0  1437               	bsf	___lwdiv@quotient,0
  2331  05F1                     l2075:
  2332  05F1  3001               	movlw	1
  2333  05F2                     u1275:
  2334  05F2  1003               	clrc
  2335  05F3  0CB3               	rrf	___lwdiv@divisor+1,f
  2336  05F4  0CB2               	rrf	___lwdiv@divisor,f
  2337  05F5  3EFF               	addlw	-1
  2338  05F6  1D03               	skipz
  2339  05F7  2DF2               	goto	u1275
  2340  05F8                     l2077:
  2341  05F8  3001               	movlw	1
  2342  05F9  02B6               	subwf	___lwdiv@counter,f
  2343  05FA  1D03               	btfss	3,2
  2344  05FB  2DFD               	goto	u1281
  2345  05FC  2DFE               	goto	u1280
  2346  05FD                     u1281:
  2347  05FD  2DD9               	goto	l2069
  2348  05FE                     u1280:
  2349  05FE                     l2079:
  2350  05FE  0838               	movf	___lwdiv@quotient+1,w
  2351  05FF  00B3               	movwf	?___lwdiv+1
  2352  0600  0837               	movf	___lwdiv@quotient,w
  2353  0601  00B2               	movwf	?___lwdiv
  2354  0602                     l585:
  2355  0602  0008               	return
  2356  0603                     __end_of___lwdiv:
  2357                           
  2358                           	psect	text7
  2359  0412                     __ptext7:	
  2360 ;; *************** function _display7s *****************
  2361 ;; Defined at:
  2362 ;;		line 8 in file "7-Segment.c"
  2363 ;; Parameters:    Size  Location     Type
  2364 ;;  v               1    wreg     unsigned char 
  2365 ;; Auto vars:     Size  Location     Type
  2366 ;;  v               1   15[BANK0 ] unsigned char 
  2367 ;; Return value:  Size  Location     Type
  2368 ;;                  1    wreg      unsigned char 
  2369 ;; Registers used:
  2370 ;;		wreg, fsr0l, fsr0h, status,2, status,0
  2371 ;; Tracked objects:
  2372 ;;		On entry : 0/0
  2373 ;;		On exit  : 0/0
  2374 ;;		Unchanged: 0/0
  2375 ;; Data sizes:     COMMON   BANK0   BANK1   BANK3   BANK2
  2376 ;;      Params:         0       0       0       0       0
  2377 ;;      Locals:         0       1       0       0       0
  2378 ;;      Temps:          0       2       0       0       0
  2379 ;;      Totals:         0       3       0       0       0
  2380 ;;Total ram usage:        3 bytes
  2381 ;; Hardware stack levels used:    1
  2382 ;; Hardware stack levels required when called:    3
  2383 ;; This function calls:
  2384 ;;		Nothing
  2385 ;; This function is called by:
  2386 ;;		_main
  2387 ;;		_init_temperature
  2388 ;;		_temperature_increase
  2389 ;;		_temperature_decrease
  2390 ;; This function uses a non-reentrant model
  2391 ;;
  2392                           
  2393                           
  2394                           ;psect for function _display7s
  2395  0412                     _display7s:
  2396                           
  2397                           ;incstack = 0
  2398                           ; Regs used in _display7s: [wreg-fsr0h+status,2+status,0]
  2399                           ;display7s@v stored from wreg
  2400  0412  1283               	bcf	3,5	;RP0=0, select bank0
  2401  0413  1303               	bcf	3,6	;RP1=0, select bank0
  2402  0414  00AF               	movwf	display7s@v
  2403  0415                     l2133:
  2404  0415  2C38               	goto	l2205
  2405  0416                     l2135:
  2406  0416  303F               	movlw	63
  2407  0417  2C72               	goto	l210
  2408  0418                     l2139:
  2409  0418  3006               	movlw	6
  2410  0419  2C72               	goto	l210
  2411  041A                     l2143:
  2412  041A  305B               	movlw	91
  2413  041B  2C72               	goto	l210
  2414  041C                     l2147:
  2415  041C  304F               	movlw	79
  2416  041D  2C72               	goto	l210
  2417  041E                     l2151:
  2418  041E  3066               	movlw	102
  2419  041F  2C72               	goto	l210
  2420  0420                     l2155:
  2421  0420  306D               	movlw	109
  2422  0421  2C72               	goto	l210
  2423  0422                     l2159:
  2424  0422  307D               	movlw	125
  2425  0423  2C72               	goto	l210
  2426  0424                     l2163:
  2427  0424  3007               	movlw	7
  2428  0425  2C72               	goto	l210
  2429  0426                     l2167:
  2430  0426  307F               	movlw	127
  2431  0427  2C72               	goto	l210
  2432  0428                     l2171:
  2433  0428  306F               	movlw	111
  2434  0429  2C72               	goto	l210
  2435  042A                     l2175:
  2436  042A  3077               	movlw	119
  2437  042B  2C72               	goto	l210
  2438  042C                     l2179:
  2439  042C  307C               	movlw	124
  2440  042D  2C72               	goto	l210
  2441  042E                     l2183:
  2442  042E  3058               	movlw	88
  2443  042F  2C72               	goto	l210
  2444  0430                     l2187:
  2445  0430  305E               	movlw	94
  2446  0431  2C72               	goto	l210
  2447  0432                     l2191:
  2448  0432  3079               	movlw	121
  2449  0433  2C72               	goto	l210
  2450  0434                     l2195:
  2451  0434  3071               	movlw	113
  2452  0435  2C72               	goto	l210
  2453  0436                     l2199:
  2454  0436  3000               	movlw	0
  2455  0437  2C72               	goto	l210
  2456  0438                     l2205:
  2457  0438  082F               	movf	display7s@v,w
  2458  0439  00AD               	movwf	??_display7s
  2459  043A  01AE               	clrf	??_display7s+1
  2460                           
  2461                           ; Switch on 2 bytes has been partitioned into a top level switch of size 1, and 1 sub-sw
      +                          itches
  2462                           ; Switch size 1, requested type "simple"
  2463                           ; Number of cases is 1, Range of values is 0 to 0
  2464                           ; switch strategies available:
  2465                           ; Name         Instructions Cycles
  2466                           ; simple_byte            4     3 (average)
  2467                           ; direct_byte           11     8 (fixed)
  2468                           ; jumptable            260     6 (fixed)
  2469                           ;	Chosen strategy is simple_byte
  2470  043B  082E               	movf	??_display7s+1,w
  2471  043C  3A00               	xorlw	0	; case 0
  2472  043D  1903               	skipnz
  2473  043E  2C40               	goto	l2505
  2474  043F  2C36               	goto	l2199
  2475  0440                     l2505:
  2476                           
  2477                           ; Switch size 1, requested type "simple"
  2478                           ; Number of cases is 16, Range of values is 0 to 15
  2479                           ; switch strategies available:
  2480                           ; Name         Instructions Cycles
  2481                           ; simple_byte           49    25 (average)
  2482                           ; direct_byte           56     8 (fixed)
  2483                           ; jumptable            260     6 (fixed)
  2484                           ;	Chosen strategy is simple_byte
  2485  0440  082D               	movf	??_display7s,w
  2486  0441  3A00               	xorlw	0	; case 0
  2487  0442  1903               	skipnz
  2488  0443  2C16               	goto	l2135
  2489  0444  3A01               	xorlw	1	; case 1
  2490  0445  1903               	skipnz
  2491  0446  2C18               	goto	l2139
  2492  0447  3A03               	xorlw	3	; case 2
  2493  0448  1903               	skipnz
  2494  0449  2C1A               	goto	l2143
  2495  044A  3A01               	xorlw	1	; case 3
  2496  044B  1903               	skipnz
  2497  044C  2C1C               	goto	l2147
  2498  044D  3A07               	xorlw	7	; case 4
  2499  044E  1903               	skipnz
  2500  044F  2C1E               	goto	l2151
  2501  0450  3A01               	xorlw	1	; case 5
  2502  0451  1903               	skipnz
  2503  0452  2C20               	goto	l2155
  2504  0453  3A03               	xorlw	3	; case 6
  2505  0454  1903               	skipnz
  2506  0455  2C22               	goto	l2159
  2507  0456  3A01               	xorlw	1	; case 7
  2508  0457  1903               	skipnz
  2509  0458  2C24               	goto	l2163
  2510  0459  3A0F               	xorlw	15	; case 8
  2511  045A  1903               	skipnz
  2512  045B  2C26               	goto	l2167
  2513  045C  3A01               	xorlw	1	; case 9
  2514  045D  1903               	skipnz
  2515  045E  2C28               	goto	l2171
  2516  045F  3A03               	xorlw	3	; case 10
  2517  0460  1903               	skipnz
  2518  0461  2C2A               	goto	l2175
  2519  0462  3A01               	xorlw	1	; case 11
  2520  0463  1903               	skipnz
  2521  0464  2C2C               	goto	l2179
  2522  0465  3A07               	xorlw	7	; case 12
  2523  0466  1903               	skipnz
  2524  0467  2C2E               	goto	l2183
  2525  0468  3A01               	xorlw	1	; case 13
  2526  0469  1903               	skipnz
  2527  046A  2C30               	goto	l2187
  2528  046B  3A03               	xorlw	3	; case 14
  2529  046C  1903               	skipnz
  2530  046D  2C32               	goto	l2191
  2531  046E  3A01               	xorlw	1	; case 15
  2532  046F  1903               	skipnz
  2533  0470  2C34               	goto	l2195
  2534  0471  2C36               	goto	l2199
  2535  0472                     l210:
  2536  0472  0008               	return
  2537  0473                     __end_of_display7s:
  2538                           
  2539                           	psect	text8
  2540  0575                     __ptext8:	
  2541 ;; *************** function _adc_amostra *****************
  2542 ;; Defined at:
  2543 ;;		line 44 in file "adc.c"
  2544 ;; Parameters:    Size  Location     Type
  2545 ;;  canal           1    wreg     unsigned char 
  2546 ;; Auto vars:     Size  Location     Type
  2547 ;;  canal           1   22[BANK0 ] unsigned char 
  2548 ;; Return value:  Size  Location     Type
  2549 ;;                  2   13[BANK0 ] unsigned int 
  2550 ;; Registers used:
  2551 ;;		wreg, fsr0l, fsr0h, status,2, status,0
  2552 ;; Tracked objects:
  2553 ;;		On entry : 0/0
  2554 ;;		On exit  : 0/0
  2555 ;;		Unchanged: 0/0
  2556 ;; Data sizes:     COMMON   BANK0   BANK1   BANK3   BANK2
  2557 ;;      Params:         0       2       0       0       0
  2558 ;;      Locals:         0       1       0       0       0
  2559 ;;      Temps:          0       7       0       0       0
  2560 ;;      Totals:         0      10       0       0       0
  2561 ;;Total ram usage:       10 bytes
  2562 ;; Hardware stack levels used:    1
  2563 ;; Hardware stack levels required when called:    3
  2564 ;; This function calls:
  2565 ;;		Nothing
  2566 ;; This function is called by:
  2567 ;;		_main
  2568 ;;		_init_temperature
  2569 ;;		_temperature_increase
  2570 ;;		_temperature_decrease
  2571 ;; This function uses a non-reentrant model
  2572 ;;
  2573                           
  2574                           
  2575                           ;psect for function _adc_amostra
  2576  0575                     _adc_amostra:
  2577                           
  2578                           ;incstack = 0
  2579                           ; Regs used in _adc_amostra: [wreg-fsr0h+status,2+status,0]
  2580                           ;adc_amostra@canal stored from wreg
  2581  0575  1283               	bcf	3,5	;RP0=0, select bank0
  2582  0576  1303               	bcf	3,6	;RP1=0, select bank0
  2583  0577  00B6               	movwf	adc_amostra@canal
  2584  0578                     l2105:
  2585                           
  2586                           ;adc.c: 44: unsigned int adc_amostra(unsigned char canal);adc.c: 45: {;adc.c: 62:      s
      +                          witch(canal)
  2587  0578  2D82               	goto	l2115
  2588  0579                     l2107:
  2589                           
  2590                           ;adc.c: 65:         ADCON0=0x01;
  2591  0579  3001               	movlw	1
  2592  057A  009F               	movwf	31	;volatile
  2593                           
  2594                           ;adc.c: 66:         break;
  2595  057B  2D95               	goto	l171
  2596  057C                     l2109:
  2597                           
  2598                           ;adc.c: 68:         ADCON0=0x09;
  2599  057C  3009               	movlw	9
  2600  057D  009F               	movwf	31	;volatile
  2601                           
  2602                           ;adc.c: 69:         break;
  2603  057E  2D95               	goto	l171
  2604  057F                     l2111:
  2605                           
  2606                           ;adc.c: 71:         ADCON0=0x11;
  2607  057F  3011               	movlw	17
  2608  0580  009F               	movwf	31	;volatile
  2609                           
  2610                           ;adc.c: 72:         break;
  2611  0581  2D95               	goto	l171
  2612  0582                     l2115:
  2613  0582  0836               	movf	adc_amostra@canal,w
  2614  0583  00AF               	movwf	??_adc_amostra
  2615  0584  01B0               	clrf	??_adc_amostra+1
  2616                           
  2617                           ; Switch on 2 bytes has been partitioned into a top level switch of size 1, and 1 sub-sw
      +                          itches
  2618                           ; Switch size 1, requested type "simple"
  2619                           ; Number of cases is 1, Range of values is 0 to 0
  2620                           ; switch strategies available:
  2621                           ; Name         Instructions Cycles
  2622                           ; simple_byte            4     3 (average)
  2623                           ; direct_byte           11     8 (fixed)
  2624                           ; jumptable            260     6 (fixed)
  2625                           ;	Chosen strategy is simple_byte
  2626  0585  0830               	movf	??_adc_amostra+1,w
  2627  0586  3A00               	xorlw	0	; case 0
  2628  0587  1903               	skipnz
  2629  0588  2D8A               	goto	l2507
  2630  0589  2D95               	goto	l171
  2631  058A                     l2507:
  2632                           
  2633                           ; Switch size 1, requested type "simple"
  2634                           ; Number of cases is 3, Range of values is 0 to 2
  2635                           ; switch strategies available:
  2636                           ; Name         Instructions Cycles
  2637                           ; simple_byte           10     6 (average)
  2638                           ; direct_byte           17     8 (fixed)
  2639                           ; jumptable            260     6 (fixed)
  2640                           ;	Chosen strategy is simple_byte
  2641  058A  082F               	movf	??_adc_amostra,w
  2642  058B  3A00               	xorlw	0	; case 0
  2643  058C  1903               	skipnz
  2644  058D  2D79               	goto	l2107
  2645  058E  3A01               	xorlw	1	; case 1
  2646  058F  1903               	skipnz
  2647  0590  2D7C               	goto	l2109
  2648  0591  3A03               	xorlw	3	; case 2
  2649  0592  1903               	skipnz
  2650  0593  2D7F               	goto	l2111
  2651  0594  2D95               	goto	l171
  2652  0595                     l171:
  2653                           
  2654                           ;adc.c: 77:     ADCON0bits.GO=1;
  2655  0595  151F               	bsf	31,2	;volatile
  2656  0596                     l174:	
  2657                           ;adc.c: 78:     while(ADCON0bits.GO == 1);
  2658                           
  2659  0596  191F               	btfsc	31,2	;volatile
  2660  0597  2D99               	goto	u1351
  2661  0598  2D9A               	goto	u1350
  2662  0599                     u1351:
  2663  0599  2D96               	goto	l174
  2664  059A                     u1350:
  2665  059A                     l2117:
  2666                           
  2667                           ;adc.c: 80:    return ((((unsigned int)ADRESH)<<2)|(ADRESL>>6));
  2668  059A  1683               	bsf	3,5	;RP0=1, select bank1
  2669  059B  1303               	bcf	3,6	;RP1=0, select bank1
  2670  059C  081E               	movf	30,w	;volatile
  2671  059D  1283               	bcf	3,5	;RP0=0, select bank0
  2672  059E  1303               	bcf	3,6	;RP1=0, select bank0
  2673  059F  00AF               	movwf	??_adc_amostra
  2674  05A0  3006               	movlw	6
  2675  05A1                     u1365:
  2676  05A1  1003               	clrc
  2677  05A2  0CAF               	rrf	??_adc_amostra,f
  2678  05A3  3EFF               	addlw	-1
  2679  05A4  1D03               	skipz
  2680  05A5  2DA1               	goto	u1365
  2681  05A6  082F               	movf	??_adc_amostra,w
  2682  05A7  00B0               	movwf	??_adc_amostra+1
  2683  05A8  01B1               	clrf	??_adc_amostra+2
  2684  05A9  081E               	movf	30,w	;volatile
  2685  05AA  00B2               	movwf	??_adc_amostra+3
  2686  05AB  01B3               	clrf	??_adc_amostra+4
  2687  05AC  1003               	clrc
  2688  05AD  0DB2               	rlf	??_adc_amostra+3,f
  2689  05AE  0DB3               	rlf	??_adc_amostra+4,f
  2690  05AF  1003               	clrc
  2691  05B0  0DB2               	rlf	??_adc_amostra+3,f
  2692  05B1  0DB3               	rlf	??_adc_amostra+4,f
  2693  05B2  0830               	movf	??_adc_amostra+1,w
  2694  05B3  0432               	iorwf	??_adc_amostra+3,w
  2695  05B4  00B4               	movwf	??_adc_amostra+5
  2696  05B5  0831               	movf	??_adc_amostra+2,w
  2697  05B6  0433               	iorwf	??_adc_amostra+4,w
  2698  05B7  00B5               	movwf	??_adc_amostra+6
  2699  05B8  0834               	movf	??_adc_amostra+5,w
  2700  05B9  00AD               	movwf	?_adc_amostra
  2701  05BA  0835               	movf	??_adc_amostra+6,w
  2702  05BB  00AE               	movwf	?_adc_amostra+1
  2703  05BC                     l177:
  2704  05BC  0008               	return
  2705  05BD                     __end_of_adc_amostra:
  2706                           
  2707                           	psect	text9
  2708  06E8                     __ptext9:	
  2709 ;; *************** function ___wmul *****************
  2710 ;; Defined at:
  2711 ;;		line 15 in file "C:\Program Files\Microchip\xc8\v2.20\pic\sources\c90\common\Umul16.c"
  2712 ;; Parameters:    Size  Location     Type
  2713 ;;  multiplier      2   23[BANK0 ] unsigned int 
  2714 ;;  multiplicand    2   25[BANK0 ] unsigned int 
  2715 ;; Auto vars:     Size  Location     Type
  2716 ;;  product         2   27[BANK0 ] unsigned int 
  2717 ;; Return value:  Size  Location     Type
  2718 ;;                  2   23[BANK0 ] unsigned int 
  2719 ;; Registers used:
  2720 ;;		wreg, status,2, status,0
  2721 ;; Tracked objects:
  2722 ;;		On entry : 0/0
  2723 ;;		On exit  : 0/0
  2724 ;;		Unchanged: 0/0
  2725 ;; Data sizes:     COMMON   BANK0   BANK1   BANK3   BANK2
  2726 ;;      Params:         0       4       0       0       0
  2727 ;;      Locals:         0       2       0       0       0
  2728 ;;      Temps:          0       0       0       0       0
  2729 ;;      Totals:         0       6       0       0       0
  2730 ;;Total ram usage:        6 bytes
  2731 ;; Hardware stack levels used:    1
  2732 ;; Hardware stack levels required when called:    3
  2733 ;; This function calls:
  2734 ;;		Nothing
  2735 ;; This function is called by:
  2736 ;;		_main
  2737 ;;		_init_temperature
  2738 ;;		_temperature_increase
  2739 ;;		_temperature_decrease
  2740 ;; This function uses a non-reentrant model
  2741 ;;
  2742                           
  2743                           
  2744                           ;psect for function ___wmul
  2745  06E8                     ___wmul:
  2746  06E8                     l2213:	
  2747                           ;incstack = 0
  2748                           ; Regs used in ___wmul: [wreg+status,2+status,0]
  2749                           
  2750  06E8  1283               	bcf	3,5	;RP0=0, select bank0
  2751  06E9  1303               	bcf	3,6	;RP1=0, select bank0
  2752  06EA  01BB               	clrf	___wmul@product
  2753  06EB  01BC               	clrf	___wmul@product+1
  2754  06EC                     l2215:
  2755  06EC  1C37               	btfss	___wmul@multiplier,0
  2756  06ED  2EEF               	goto	u1381
  2757  06EE  2EF0               	goto	u1380
  2758  06EF                     u1381:
  2759  06EF  2EF6               	goto	l313
  2760  06F0                     u1380:
  2761  06F0                     l2217:
  2762  06F0  0839               	movf	___wmul@multiplicand,w
  2763  06F1  07BB               	addwf	___wmul@product,f
  2764  06F2  1803               	skipnc
  2765  06F3  0ABC               	incf	___wmul@product+1,f
  2766  06F4  083A               	movf	___wmul@multiplicand+1,w
  2767  06F5  07BC               	addwf	___wmul@product+1,f
  2768  06F6                     l313:
  2769  06F6  3001               	movlw	1
  2770  06F7                     u1395:
  2771  06F7  1003               	clrc
  2772  06F8  0DB9               	rlf	___wmul@multiplicand,f
  2773  06F9  0DBA               	rlf	___wmul@multiplicand+1,f
  2774  06FA  3EFF               	addlw	-1
  2775  06FB  1D03               	skipz
  2776  06FC  2EF7               	goto	u1395
  2777  06FD                     l2219:
  2778  06FD  3001               	movlw	1
  2779  06FE                     u1405:
  2780  06FE  1003               	clrc
  2781  06FF  0CB8               	rrf	___wmul@multiplier+1,f
  2782  0700  0CB7               	rrf	___wmul@multiplier,f
  2783  0701  3EFF               	addlw	-1
  2784  0702  1D03               	skipz
  2785  0703  2EFE               	goto	u1405
  2786  0704                     l2221:
  2787  0704  0837               	movf	___wmul@multiplier,w
  2788  0705  0438               	iorwf	___wmul@multiplier+1,w
  2789  0706  1D03               	btfss	3,2
  2790  0707  2F09               	goto	u1411
  2791  0708  2F0A               	goto	u1410
  2792  0709                     u1411:
  2793  0709  2EEC               	goto	l2215
  2794  070A                     u1410:
  2795  070A                     l2223:
  2796  070A  083C               	movf	___wmul@product+1,w
  2797  070B  00B8               	movwf	?___wmul+1
  2798  070C  083B               	movf	___wmul@product,w
  2799  070D  00B7               	movwf	?___wmul
  2800  070E                     l315:
  2801  070E  0008               	return
  2802  070F                     __end_of___wmul:
  2803                           
  2804                           	psect	text10
  2805  0720                     __ptext10:	
  2806 ;; *************** function _adc_init *****************
  2807 ;; Defined at:
  2808 ;;		line 30 in file "adc.c"
  2809 ;; Parameters:    Size  Location     Type
  2810 ;;		None
  2811 ;; Auto vars:     Size  Location     Type
  2812 ;;		None
  2813 ;; Return value:  Size  Location     Type
  2814 ;;                  1    wreg      void 
  2815 ;; Registers used:
  2816 ;;		wreg
  2817 ;; Tracked objects:
  2818 ;;		On entry : 0/0
  2819 ;;		On exit  : 0/0
  2820 ;;		Unchanged: 0/0
  2821 ;; Data sizes:     COMMON   BANK0   BANK1   BANK3   BANK2
  2822 ;;      Params:         0       0       0       0       0
  2823 ;;      Locals:         0       0       0       0       0
  2824 ;;      Temps:          0       0       0       0       0
  2825 ;;      Totals:         0       0       0       0       0
  2826 ;;Total ram usage:        0 bytes
  2827 ;; Hardware stack levels used:    1
  2828 ;; Hardware stack levels required when called:    3
  2829 ;; This function calls:
  2830 ;;		Nothing
  2831 ;; This function is called by:
  2832 ;;		_main
  2833 ;; This function uses a non-reentrant model
  2834 ;;
  2835                           
  2836                           
  2837                           ;psect for function _adc_init
  2838  0720                     _adc_init:
  2839  0720                     l2231:	
  2840                           ;incstack = 0
  2841                           ; Regs used in _adc_init: [wreg]
  2842                           
  2843                           
  2844                           ;adc.c: 33:   ADCON1=0x02;
  2845  0720  3002               	movlw	2
  2846  0721  1683               	bsf	3,5	;RP0=1, select bank1
  2847  0722  1303               	bcf	3,6	;RP1=0, select bank1
  2848  0723  009F               	movwf	31	;volatile
  2849                           
  2850                           ;adc.c: 34:   ADCON0=0x41;
  2851  0724  3041               	movlw	65
  2852  0725  1283               	bcf	3,5	;RP0=0, select bank0
  2853  0726  1303               	bcf	3,6	;RP1=0, select bank0
  2854  0727  009F               	movwf	31	;volatile
  2855  0728                     l166:
  2856  0728  0008               	return
  2857  0729                     __end_of_adc_init:
  2858                           
  2859                           	psect	text11
  2860  070F                     __ptext11:	
  2861 ;; *************** function _TIMER1_init *****************
  2862 ;; Defined at:
  2863 ;;		line 252 in file "main.c"
  2864 ;; Parameters:    Size  Location     Type
  2865 ;;		None
  2866 ;; Auto vars:     Size  Location     Type
  2867 ;;		None
  2868 ;; Return value:  Size  Location     Type
  2869 ;;                  1    wreg      void 
  2870 ;; Registers used:
  2871 ;;		None
  2872 ;; Tracked objects:
  2873 ;;		On entry : 0/0
  2874 ;;		On exit  : 0/0
  2875 ;;		Unchanged: 0/0
  2876 ;; Data sizes:     COMMON   BANK0   BANK1   BANK3   BANK2
  2877 ;;      Params:         0       0       0       0       0
  2878 ;;      Locals:         0       0       0       0       0
  2879 ;;      Temps:          0       0       0       0       0
  2880 ;;      Totals:         0       0       0       0       0
  2881 ;;Total ram usage:        0 bytes
  2882 ;; Hardware stack levels used:    1
  2883 ;; Hardware stack levels required when called:    3
  2884 ;; This function calls:
  2885 ;;		Nothing
  2886 ;; This function is called by:
  2887 ;;		_main
  2888 ;; This function uses a non-reentrant model
  2889 ;;
  2890                           
  2891                           
  2892                           ;psect for function _TIMER1_init
  2893  070F                     _TIMER1_init:
  2894  070F                     l2227:	
  2895                           ;incstack = 0
  2896                           ; Regs used in _TIMER1_init: []
  2897                           
  2898                           
  2899                           ;main.c: 255:     TMR1 = 15535;
  2900  070F  303C               	movlw	60
  2901  0710  1283               	bcf	3,5	;RP0=0, select bank0
  2902  0711  1303               	bcf	3,6	;RP1=0, select bank0
  2903  0712  008F               	movwf	15	;volatile
  2904  0713  30AF               	movlw	175
  2905  0714  008E               	movwf	14	;volatile
  2906                           
  2907                           ;main.c: 257:     TMR1CS = 0;
  2908  0715  1090               	bcf	16,1	;volatile
  2909                           
  2910                           ;main.c: 259:     T1CKPS0 = 0;
  2911  0716  1210               	bcf	16,4	;volatile
  2912                           
  2913                           ;main.c: 260:     T1CKPS1 = 0;
  2914  0717  1290               	bcf	16,5	;volatile
  2915                           
  2916                           ;main.c: 263:     TMR1IE = 1;
  2917  0718  1683               	bsf	3,5	;RP0=1, select bank1
  2918  0719  1303               	bcf	3,6	;RP1=0, select bank1
  2919  071A  140C               	bsf	12,0	;volatile
  2920                           
  2921                           ;main.c: 264:     TMR1IF = 0;
  2922  071B  1283               	bcf	3,5	;RP0=0, select bank0
  2923  071C  1303               	bcf	3,6	;RP1=0, select bank0
  2924  071D  100C               	bcf	12,0	;volatile
  2925                           
  2926                           ;main.c: 265:     PEIE = 1;
  2927  071E  170B               	bsf	11,6	;volatile
  2928  071F                     l153:
  2929  071F  0008               	return
  2930  0720                     __end_of_TIMER1_init:
  2931                           
  2932                           	psect	text12
  2933  0731                     __ptext12:	
  2934 ;; *************** function _IRQ_RB0_init *****************
  2935 ;; Defined at:
  2936 ;;		line 243 in file "main.c"
  2937 ;; Parameters:    Size  Location     Type
  2938 ;;		None
  2939 ;; Auto vars:     Size  Location     Type
  2940 ;;		None
  2941 ;; Return value:  Size  Location     Type
  2942 ;;                  1    wreg      void 
  2943 ;; Registers used:
  2944 ;;		None
  2945 ;; Tracked objects:
  2946 ;;		On entry : 0/0
  2947 ;;		On exit  : 0/0
  2948 ;;		Unchanged: 0/0
  2949 ;; Data sizes:     COMMON   BANK0   BANK1   BANK3   BANK2
  2950 ;;      Params:         0       0       0       0       0
  2951 ;;      Locals:         0       0       0       0       0
  2952 ;;      Temps:          0       0       0       0       0
  2953 ;;      Totals:         0       0       0       0       0
  2954 ;;Total ram usage:        0 bytes
  2955 ;; Hardware stack levels used:    1
  2956 ;; Hardware stack levels required when called:    3
  2957 ;; This function calls:
  2958 ;;		Nothing
  2959 ;; This function is called by:
  2960 ;;		_main
  2961 ;; This function uses a non-reentrant model
  2962 ;;
  2963                           
  2964                           
  2965                           ;psect for function _IRQ_RB0_init
  2966  0731                     _IRQ_RB0_init:
  2967  0731                     l2229:	
  2968                           ;incstack = 0
  2969                           ; Regs used in _IRQ_RB0_init: []
  2970                           
  2971                           
  2972                           ;main.c: 245:     INTE = 1;
  2973  0731  160B               	bsf	11,4	;volatile
  2974                           
  2975                           ;main.c: 247:     INTEDG = 0;
  2976  0732  1683               	bsf	3,5	;RP0=1, select bank1
  2977  0733  1303               	bcf	3,6	;RP1=0, select bank1
  2978  0734  1301               	bcf	1,6	;volatile
  2979                           
  2980                           ;main.c: 249:     GIE = 1;
  2981  0735  178B               	bsf	11,7	;volatile
  2982  0736                     l150:
  2983  0736  0008               	return
  2984  0737                     __end_of_IRQ_RB0_init:
  2985                           
  2986                           	psect	text13
  2987  003A                     __ptext13:	
  2988 ;; *************** function _ISR *****************
  2989 ;; Defined at:
  2990 ;;		line 187 in file "main.c"
  2991 ;; Parameters:    Size  Location     Type
  2992 ;;		None
  2993 ;; Auto vars:     Size  Location     Type
  2994 ;;  x               1   12[BANK0 ] unsigned char 
  2995 ;;  y               1   11[BANK0 ] unsigned char 
  2996 ;; Return value:  Size  Location     Type
  2997 ;;                  1    wreg      void 
  2998 ;; Registers used:
  2999 ;;		wreg, fsr0l, fsr0h, status,2, status,0, btemp+1, pclath, cstack
  3000 ;; Tracked objects:
  3001 ;;		On entry : 0/0
  3002 ;;		On exit  : 0/0
  3003 ;;		Unchanged: 0/0
  3004 ;; Data sizes:     COMMON   BANK0   BANK1   BANK3   BANK2
  3005 ;;      Params:         0       0       0       0       0
  3006 ;;      Locals:         0       2       0       0       0
  3007 ;;      Temps:          0       8       0       0       0
  3008 ;;      Totals:         0      10       0       0       0
  3009 ;;Total ram usage:       10 bytes
  3010 ;; Hardware stack levels used:    1
  3011 ;; Hardware stack levels required when called:    2
  3012 ;; This function calls:
  3013 ;;		i1___lwdiv
  3014 ;;		i1___wmul
  3015 ;;		i1_adc_amostra
  3016 ;;		i1_itoa
  3017 ;; This function is called by:
  3018 ;;		Interrupt level 1
  3019 ;; This function uses a non-reentrant model
  3020 ;;
  3021                           
  3022                           
  3023                           ;psect for function _ISR
  3024  003A                     _ISR:
  3025  003A                     i1l1925:
  3026                           
  3027                           ;main.c: 189:   if (INTF)
  3028  003A  1C8B               	btfss	11,1	;volatile
  3029  003B  283D               	goto	u113_21
  3030  003C  283E               	goto	u113_20
  3031  003D                     u113_21:
  3032  003D  284F               	goto	i1l1941
  3033  003E                     u113_20:
  3034  003E                     i1l1927:
  3035                           
  3036                           ;main.c: 190:   {;main.c: 191:     INTF = 0;
  3037  003E  108B               	bcf	11,1	;volatile
  3038  003F                     i1l1929:
  3039                           
  3040                           ;main.c: 192:     if (flag)
  3041  003F  0855               	movf	_flag,w
  3042  0040  0456               	iorwf	_flag+1,w
  3043  0041  1903               	btfsc	3,2
  3044  0042  2844               	goto	u114_21
  3045  0043  2845               	goto	u114_20
  3046  0044                     u114_21:
  3047  0044  284A               	goto	i1l1937
  3048  0045                     u114_20:
  3049  0045                     i1l1931:
  3050                           
  3051                           ;main.c: 193:     {;main.c: 194:         flag = 0;
  3052  0045  01D5               	clrf	_flag
  3053  0046  01D6               	clrf	_flag+1
  3054  0047                     i1l1933:
  3055                           
  3056                           ;main.c: 196:         TMR1ON = 0;
  3057  0047  1010               	bcf	16,0	;volatile
  3058  0048                     i1l1935:
  3059                           
  3060                           ;main.c: 197:         TMR1IF = 0;
  3061  0048  100C               	bcf	12,0	;volatile
  3062                           
  3063                           ;main.c: 198:     }else{
  3064  0049  284F               	goto	i1l1941
  3065  004A                     i1l1937:
  3066                           
  3067                           ;main.c: 199:         flag = 1;
  3068  004A  3001               	movlw	1
  3069  004B  00D5               	movwf	_flag
  3070  004C  3000               	movlw	0
  3071  004D  00D6               	movwf	_flag+1
  3072  004E                     i1l1939:
  3073                           
  3074                           ;main.c: 201:         TMR1ON = 1;
  3075  004E  1410               	bsf	16,0	;volatile
  3076  004F                     i1l1941:
  3077                           
  3078                           ;main.c: 206:    if (TMR1IF)
  3079  004F  1C0C               	btfss	12,0	;volatile
  3080  0050  2852               	goto	u115_21
  3081  0051  2853               	goto	u115_20
  3082  0052                     u115_21:
  3083  0052  2914               	goto	i1l147
  3084  0053                     u115_20:
  3085  0053                     i1l1943:
  3086                           
  3087                           ;main.c: 207:    {;main.c: 208:        if (flag && tempinit == 1)
  3088  0053  0855               	movf	_flag,w
  3089  0054  0456               	iorwf	_flag+1,w
  3090  0055  1903               	btfsc	3,2
  3091  0056  2858               	goto	u116_21
  3092  0057  2859               	goto	u116_20
  3093  0058                     u116_21:
  3094  0058  2913               	goto	i1l1975
  3095  0059                     u116_20:
  3096  0059                     i1l1945:
  3097  0059  0357               	decf	_tempinit,w
  3098  005A  0458               	iorwf	_tempinit+1,w
  3099  005B  1D03               	btfss	3,2
  3100  005C  285E               	goto	u117_21
  3101  005D  285F               	goto	u117_20
  3102  005E                     u117_21:
  3103  005E  2913               	goto	i1l1975
  3104  005F                     u117_20:
  3105  005F                     i1l1947:
  3106                           
  3107                           ;main.c: 209:        {;main.c: 210:            timer1counter++;
  3108  005F  3001               	movlw	1
  3109  0060  07C9               	addwf	_timer1counter,f
  3110  0061  1803               	skipnc
  3111  0062  0ACA               	incf	_timer1counter+1,f
  3112  0063  3000               	movlw	0
  3113  0064  07CA               	addwf	_timer1counter+1,f
  3114  0065                     i1l1949:
  3115                           
  3116                           ;main.c: 211:            if (timer1counter == 4){
  3117  0065  3004               	movlw	4
  3118  0066  0649               	xorwf	_timer1counter,w
  3119  0067  044A               	iorwf	_timer1counter+1,w
  3120  0068  1D03               	btfss	3,2
  3121  0069  286B               	goto	u118_21
  3122  006A  286C               	goto	u118_20
  3123  006B                     u118_21:
  3124  006B  28CB               	goto	i1l1961
  3125  006C                     u118_20:
  3126  006C                     i1l1951:
  3127                           
  3128                           ;main.c: 212:                 C++;
  3129  006C  3001               	movlw	1
  3130  006D  07CB               	addwf	_C,f
  3131  006E  1803               	skipnc
  3132  006F  0ACC               	incf	_C+1,f
  3133  0070  3000               	movlw	0
  3134  0071  07CC               	addwf	_C+1,f
  3135  0072                     i1l1953:
  3136                           
  3137                           ;main.c: 213:                 tmp=(adc_amostra(2)*10)/2;
  3138  0072  3002               	movlw	2
  3139  0073  120A  118A  2527  120A  118A  	fcall	i1_adc_amostra
  3140  0078  0871               	movf	?i1_adc_amostra+1,w
  3141  0079  00FB               	movwf	i1___wmul@multiplier+1
  3142  007A  0870               	movf	?i1_adc_amostra,w
  3143  007B  00FA               	movwf	i1___wmul@multiplier
  3144  007C  300A               	movlw	10
  3145  007D  00FC               	movwf	i1___wmul@multiplicand
  3146  007E  3000               	movlw	0
  3147  007F  00FD               	movwf	i1___wmul@multiplicand+1
  3148  0080  120A  118A  26BD  120A  118A  	fcall	i1___wmul
  3149  0085  087A               	movf	?i1___wmul,w
  3150  0086  1283               	bcf	3,5	;RP0=0, select bank0
  3151  0087  1303               	bcf	3,6	;RP1=0, select bank0
  3152  0088  00A3               	movwf	??_ISR
  3153  0089  087B               	movf	?i1___wmul+1,w
  3154  008A  00A4               	movwf	??_ISR+1
  3155  008B  1003               	clrc
  3156  008C  0CA4               	rrf	??_ISR+1,f
  3157  008D  0CA3               	rrf	??_ISR,f
  3158  008E  0823               	movf	??_ISR,w
  3159  008F  00CF               	movwf	_tmp
  3160  0090  0824               	movf	??_ISR+1,w
  3161  0091  00D0               	movwf	_tmp+1
  3162  0092                     i1l1955:
  3163                           
  3164                           ;main.c: 214:                 itoa(tmp,str);
  3165  0092  0850               	movf	_tmp+1,w
  3166  0093  00A1               	movwf	i1itoa@val+1
  3167  0094  084F               	movf	_tmp,w
  3168  0095  00A0               	movwf	i1itoa@val
  3169  0096  3059               	movlw	(low (_str| 0))& (0+255)
  3170  0097  00FF               	movwf	btemp+1
  3171  0098  087F               	movf	btemp+1,w
  3172  0099  00A2               	movwf	i1itoa@str
  3173  009A  120A  118A  24CF  120A  118A  	fcall	i1_itoa
  3174                           
  3175                           ;main.c: 215:                 unsigned char y= str[2];
  3176  009F  1283               	bcf	3,5	;RP0=0, select bank0
  3177  00A0  1303               	bcf	3,6	;RP1=0, select bank0
  3178  00A1  085B               	movf	_str+2,w
  3179  00A2  00FF               	movwf	btemp+1
  3180  00A3  087F               	movf	btemp+1,w
  3181  00A4  00AB               	movwf	ISR@y
  3182                           
  3183                           ;main.c: 216:                 unsigned char x= str[3];
  3184  00A5  085C               	movf	_str+3,w
  3185  00A6  00FF               	movwf	btemp+1
  3186  00A7  087F               	movf	btemp+1,w
  3187  00A8  00AC               	movwf	ISR@x
  3188  00A9                     i1l1957:
  3189                           
  3190                           ;main.c: 217:                 accumilated_tmeperature +=(y*10)+x;
  3191  00A9  082B               	movf	ISR@y,w
  3192  00AA  00A3               	movwf	??_ISR
  3193  00AB  01A4               	clrf	??_ISR+1
  3194  00AC  0823               	movf	??_ISR,w
  3195  00AD  00FA               	movwf	i1___wmul@multiplier
  3196  00AE  0824               	movf	??_ISR+1,w
  3197  00AF  00FB               	movwf	i1___wmul@multiplier+1
  3198  00B0  300A               	movlw	10
  3199  00B1  00FC               	movwf	i1___wmul@multiplicand
  3200  00B2  3000               	movlw	0
  3201  00B3  00FD               	movwf	i1___wmul@multiplicand+1
  3202  00B4  120A  118A  26BD  120A  118A  	fcall	i1___wmul
  3203  00B9  1283               	bcf	3,5	;RP0=0, select bank0
  3204  00BA  1303               	bcf	3,6	;RP1=0, select bank0
  3205  00BB  082C               	movf	ISR@x,w
  3206  00BC  077A               	addwf	?i1___wmul,w
  3207  00BD  00A5               	movwf	??_ISR+2
  3208  00BE  3000               	movlw	0
  3209  00BF  1803               	skipnc
  3210  00C0  3001               	movlw	1
  3211  00C1  077B               	addwf	?i1___wmul+1,w
  3212  00C2  00A6               	movwf	??_ISR+3
  3213  00C3  0825               	movf	??_ISR+2,w
  3214  00C4  07CD               	addwf	_accumilated_tmeperature,f
  3215  00C5  1803               	skipnc
  3216  00C6  0ACE               	incf	_accumilated_tmeperature+1,f
  3217  00C7  0826               	movf	??_ISR+3,w
  3218  00C8  07CE               	addwf	_accumilated_tmeperature+1,f
  3219  00C9                     i1l1959:
  3220                           
  3221                           ;main.c: 218:                 timer1counter = 0;
  3222  00C9  01C9               	clrf	_timer1counter
  3223  00CA  01CA               	clrf	_timer1counter+1
  3224  00CB                     i1l1961:
  3225                           
  3226                           ;main.c: 220:             if(C==30)
  3227  00CB  301E               	movlw	30
  3228  00CC  064B               	xorwf	_C,w
  3229  00CD  044C               	iorwf	_C+1,w
  3230  00CE  1D03               	btfss	3,2
  3231  00CF  28D1               	goto	u119_21
  3232  00D0  28D2               	goto	u119_20
  3233  00D1                     u119_21:
  3234  00D1  2913               	goto	i1l1975
  3235  00D2                     u119_20:
  3236  00D2                     i1l1963:
  3237                           
  3238                           ;main.c: 221:             {;main.c: 222:                 if ((accumilated_tmeperature/30
      +                          ) < wantedTemp)
  3239  00D2  301E               	movlw	30
  3240  00D3  00F5               	movwf	i1___lwdiv@divisor
  3241  00D4  3000               	movlw	0
  3242  00D5  00F6               	movwf	i1___lwdiv@divisor+1
  3243  00D6  084E               	movf	_accumilated_tmeperature+1,w
  3244  00D7  00F8               	movwf	i1___lwdiv@dividend+1
  3245  00D8  084D               	movf	_accumilated_tmeperature,w
  3246  00D9  00F7               	movwf	i1___lwdiv@dividend
  3247  00DA  120A  118A  2603  120A  118A  	fcall	i1___lwdiv
  3248  00DF  1283               	bcf	3,5	;RP0=0, select bank0
  3249  00E0  1303               	bcf	3,6	;RP1=0, select bank0
  3250  00E1  0860               	movf	_wantedTemp+1,w
  3251  00E2  0276               	subwf	?i1___lwdiv+1,w
  3252  00E3  1D03               	skipz
  3253  00E4  28E7               	goto	u120_25
  3254  00E5  085F               	movf	_wantedTemp,w
  3255  00E6  0275               	subwf	?i1___lwdiv,w
  3256  00E7                     u120_25:
  3257  00E7  1803               	skipnc
  3258  00E8  28EA               	goto	u120_21
  3259  00E9  28EB               	goto	u120_20
  3260  00EA                     u120_21:
  3261  00EA  28F0               	goto	i1l1967
  3262  00EB                     u120_20:
  3263  00EB                     i1l1965:
  3264                           
  3265                           ;main.c: 223:                 {;main.c: 224:                     heater_flag = 1;
  3266  00EB  3001               	movlw	1
  3267  00EC  00D3               	movwf	_heater_flag
  3268  00ED  3000               	movlw	0
  3269  00EE  00D4               	movwf	_heater_flag+1
  3270                           
  3271                           ;main.c: 225:                 }
  3272  00EF  290D               	goto	i1l144
  3273  00F0                     i1l1967:
  3274  00F0  301E               	movlw	30
  3275  00F1  00F5               	movwf	i1___lwdiv@divisor
  3276  00F2  3000               	movlw	0
  3277  00F3  00F6               	movwf	i1___lwdiv@divisor+1
  3278  00F4  084E               	movf	_accumilated_tmeperature+1,w
  3279  00F5  00F8               	movwf	i1___lwdiv@dividend+1
  3280  00F6  084D               	movf	_accumilated_tmeperature,w
  3281  00F7  00F7               	movwf	i1___lwdiv@dividend
  3282  00F8  120A  118A  2603  120A  118A  	fcall	i1___lwdiv
  3283  00FD  0876               	movf	?i1___lwdiv+1,w
  3284  00FE  1283               	bcf	3,5	;RP0=0, select bank0
  3285  00FF  1303               	bcf	3,6	;RP1=0, select bank0
  3286  0100  0260               	subwf	_wantedTemp+1,w
  3287  0101  1D03               	skipz
  3288  0102  2905               	goto	u121_25
  3289  0103  0875               	movf	?i1___lwdiv,w
  3290  0104  025F               	subwf	_wantedTemp,w
  3291  0105                     u121_25:
  3292  0105  1803               	skipnc
  3293  0106  2908               	goto	u121_21
  3294  0107  2909               	goto	u121_20
  3295  0108                     u121_21:
  3296  0108  290D               	goto	i1l144
  3297  0109                     u121_20:
  3298  0109                     i1l1969:
  3299                           
  3300                           ;main.c: 227:                 {;main.c: 228:                     cooler_flag = 1;
  3301  0109  3001               	movlw	1
  3302  010A  00D1               	movwf	_cooler_flag
  3303  010B  3000               	movlw	0
  3304  010C  00D2               	movwf	_cooler_flag+1
  3305  010D                     i1l144:
  3306                           
  3307                           ;main.c: 231:                 RB5 = ~RB5;
  3308  010D  3020               	movlw	32
  3309  010E  0686               	xorwf	6,f
  3310  010F                     i1l1971:
  3311                           
  3312                           ;main.c: 233:                 C = 0;
  3313  010F  01CB               	clrf	_C
  3314  0110  01CC               	clrf	_C+1
  3315  0111                     i1l1973:
  3316                           
  3317                           ;main.c: 234:                 accumilated_tmeperature= 0;
  3318  0111  01CD               	clrf	_accumilated_tmeperature
  3319  0112  01CE               	clrf	_accumilated_tmeperature+1
  3320  0113                     i1l1975:
  3321                           
  3322                           ;main.c: 236:             TMR1IF = 0;
  3323  0113  100C               	bcf	12,0	;volatile
  3324  0114                     i1l147:	
  3325                           ;main.c: 237:        }else{
  3326                           
  3327  0114  082A               	movf	??_ISR+7,w
  3328  0115  00FF               	movwf	btemp+1
  3329  0116  0829               	movf	??_ISR+6,w
  3330  0117  008A               	movwf	10
  3331  0118  0828               	movf	??_ISR+5,w
  3332  0119  0084               	movwf	4
  3333  011A  0E27               	swapf	(??_ISR+4)^0,w
  3334  011B  0083               	movwf	3
  3335  011C  0EFE               	swapf	btemp,f
  3336  011D  0E7E               	swapf	btemp,w
  3337  011E  0009               	retfie
  3338  011F                     __end_of_ISR:
  3339                           
  3340                           	psect	intentry
  3341  0004                     __pintentry:	
  3342                           ;incstack = 0
  3343                           ; Regs used in _ISR: [wreg-fsr0h+status,2+status,0+btemp+1+pclath+cstack]
  3344                           
  3345  0004                     interrupt_function:
  3346  007E                     saved_w	set	btemp
  3347  0004  00FE               	movwf	btemp
  3348  0005  0E03               	swapf	3,w
  3349  0006  1283               	bcf	3,5	;RP0=0, select bank0
  3350  0007  1303               	bcf	3,6	;RP1=0, select bank0
  3351  0008  00A7               	movwf	??_ISR+4
  3352  0009  0804               	movf	4,w
  3353  000A  00A8               	movwf	??_ISR+5
  3354  000B  080A               	movf	10,w
  3355  000C  00A9               	movwf	??_ISR+6
  3356  000D  087F               	movf	btemp+1,w
  3357  000E  00AA               	movwf	??_ISR+7
  3358  000F  120A  118A  283A   	ljmp	_ISR
  3359                           
  3360                           	psect	text14
  3361  04CF                     __ptext14:	
  3362 ;; *************** function i1_itoa *****************
  3363 ;; Defined at:
  3364 ;;		line 27 in file "itoa.c"
  3365 ;; Parameters:    Size  Location     Type
  3366 ;;  val             2    0[BANK0 ] unsigned int 
  3367 ;;  str             1    2[BANK0 ] PTR unsigned char 
  3368 ;;		 -> str(6), 
  3369 ;; Auto vars:     Size  Location     Type
  3370 ;;		None
  3371 ;; Return value:  Size  Location     Type
  3372 ;;                  1    wreg      void 
  3373 ;; Registers used:
  3374 ;;		wreg, fsr0l, fsr0h, status,2, status,0, btemp+1, pclath, cstack
  3375 ;; Tracked objects:
  3376 ;;		On entry : 0/0
  3377 ;;		On exit  : 0/0
  3378 ;;		Unchanged: 0/0
  3379 ;; Data sizes:     COMMON   BANK0   BANK1   BANK3   BANK2
  3380 ;;      Params:         0       3       0       0       0
  3381 ;;      Locals:         0       0       0       0       0
  3382 ;;      Temps:          0       0       0       0       0
  3383 ;;      Totals:         0       3       0       0       0
  3384 ;;Total ram usage:        3 bytes
  3385 ;; Hardware stack levels used:    1
  3386 ;; Hardware stack levels required when called:    1
  3387 ;; This function calls:
  3388 ;;		i1___lwdiv
  3389 ;;		i1___lwmod
  3390 ;; This function is called by:
  3391 ;;		_ISR
  3392 ;; This function uses a non-reentrant model
  3393 ;;
  3394                           
  3395                           
  3396                           ;psect for function i1_itoa
  3397  04CF                     i1_itoa:
  3398  04CF                     i1l1845:	
  3399                           ;incstack = 0
  3400                           ; Regs used in i1_itoa: [wreg-fsr0h+status,2+status,0+btemp+1+pclath+cstack]
  3401                           
  3402                           
  3403                           ;itoa.c: 27: void itoa(unsigned int val, unsigned char* str );itoa.c: 28: {;itoa.c: 32: 
      +                            str[2]=((val%1000)/100);
  3404  04CF  3064               	movlw	100
  3405  04D0  00F5               	movwf	i1___lwdiv@divisor
  3406  04D1  3000               	movlw	0
  3407  04D2  00F6               	movwf	i1___lwdiv@divisor+1
  3408  04D3  1283               	bcf	3,5	;RP0=0, select bank0
  3409  04D4  1303               	bcf	3,6	;RP1=0, select bank0
  3410  04D5  0821               	movf	i1itoa@val+1,w
  3411  04D6  00F3               	movwf	i1___lwmod@dividend+1
  3412  04D7  0820               	movf	i1itoa@val,w
  3413  04D8  00F2               	movwf	i1___lwmod@dividend
  3414  04D9  30E8               	movlw	232
  3415  04DA  00F0               	movwf	i1___lwmod@divisor
  3416  04DB  3003               	movlw	3
  3417  04DC  00F1               	movwf	i1___lwmod@divisor+1
  3418  04DD  120A  118A  2683  120A  118A  	fcall	i1___lwmod
  3419  04E2  0871               	movf	?i1___lwmod+1,w
  3420  04E3  00F8               	movwf	i1___lwdiv@dividend+1
  3421  04E4  0870               	movf	?i1___lwmod,w
  3422  04E5  00F7               	movwf	i1___lwdiv@dividend
  3423  04E6  120A  118A  2603  120A  118A  	fcall	i1___lwdiv
  3424  04EB  0875               	movf	?i1___lwdiv,w
  3425  04EC  00FF               	movwf	btemp+1
  3426  04ED  1283               	bcf	3,5	;RP0=0, select bank0
  3427  04EE  1303               	bcf	3,6	;RP1=0, select bank0
  3428  04EF  0822               	movf	i1itoa@str,w
  3429  04F0  3E02               	addlw	2
  3430  04F1  0084               	movwf	4
  3431  04F2  087F               	movf	btemp+1,w
  3432  04F3  1383               	bcf	3,7	;select IRP bank0
  3433  04F4  0080               	movwf	0
  3434                           
  3435                           ;itoa.c: 33:   str[3]=((val%100)/10);
  3436  04F5  300A               	movlw	10
  3437  04F6  00F5               	movwf	i1___lwdiv@divisor
  3438  04F7  3000               	movlw	0
  3439  04F8  00F6               	movwf	i1___lwdiv@divisor+1
  3440  04F9  0821               	movf	i1itoa@val+1,w
  3441  04FA  00F3               	movwf	i1___lwmod@dividend+1
  3442  04FB  0820               	movf	i1itoa@val,w
  3443  04FC  00F2               	movwf	i1___lwmod@dividend
  3444  04FD  3064               	movlw	100
  3445  04FE  00F0               	movwf	i1___lwmod@divisor
  3446  04FF  3000               	movlw	0
  3447  0500  00F1               	movwf	i1___lwmod@divisor+1
  3448  0501  120A  118A  2683  120A  118A  	fcall	i1___lwmod
  3449  0506  0871               	movf	?i1___lwmod+1,w
  3450  0507  00F8               	movwf	i1___lwdiv@dividend+1
  3451  0508  0870               	movf	?i1___lwmod,w
  3452  0509  00F7               	movwf	i1___lwdiv@dividend
  3453  050A  120A  118A  2603  120A  118A  	fcall	i1___lwdiv
  3454  050F  0875               	movf	?i1___lwdiv,w
  3455  0510  00FF               	movwf	btemp+1
  3456  0511  1283               	bcf	3,5	;RP0=0, select bank0
  3457  0512  1303               	bcf	3,6	;RP1=0, select bank0
  3458  0513  0822               	movf	i1itoa@str,w
  3459  0514  3E03               	addlw	3
  3460  0515  0084               	movwf	4
  3461  0516  087F               	movf	btemp+1,w
  3462  0517  1383               	bcf	3,7	;select IRP bank0
  3463  0518  0080               	movwf	0
  3464  0519                     i1l1847:
  3465                           
  3466                           ;itoa.c: 34:   if (str[3] != 0)
  3467  0519  0822               	movf	i1itoa@str,w
  3468  051A  3E03               	addlw	3
  3469  051B  0084               	movwf	4
  3470  051C  0800               	movf	0,w
  3471  051D  1903               	btfsc	3,2
  3472  051E  2D20               	goto	u104_21
  3473  051F  2D21               	goto	u104_20
  3474  0520                     u104_21:
  3475  0520  2D26               	goto	i1l181
  3476  0521                     u104_20:
  3477  0521                     i1l1849:
  3478                           
  3479                           ;itoa.c: 35:       str[3]-=1;
  3480  0521  0822               	movf	i1itoa@str,w
  3481  0522  3E03               	addlw	3
  3482  0523  0084               	movwf	4
  3483  0524  3001               	movlw	1
  3484  0525  0280               	subwf	0,f
  3485  0526                     i1l181:
  3486  0526  0008               	return
  3487  0527                     __end_ofi1_itoa:
  3488                           
  3489                           	psect	text15
  3490  0683                     __ptext15:	
  3491 ;; *************** function i1___lwmod *****************
  3492 ;; Defined at:
  3493 ;;		line 5 in file "C:\Program Files\Microchip\xc8\v2.20\pic\sources\c90\common\lwmod.c"
  3494 ;; Parameters:    Size  Location     Type
  3495 ;;  divisor         2    0[COMMON] unsigned int 
  3496 ;;  dividend        2    2[COMMON] unsigned int 
  3497 ;; Auto vars:     Size  Location     Type
  3498 ;;  counter         1    4[COMMON] unsigned char 
  3499 ;; Return value:  Size  Location     Type
  3500 ;;                  2    0[COMMON] unsigned int 
  3501 ;; Registers used:
  3502 ;;		wreg, status,2, status,0, btemp+1
  3503 ;; Tracked objects:
  3504 ;;		On entry : 0/0
  3505 ;;		On exit  : 0/0
  3506 ;;		Unchanged: 0/0
  3507 ;; Data sizes:     COMMON   BANK0   BANK1   BANK3   BANK2
  3508 ;;      Params:         4       0       0       0       0
  3509 ;;      Locals:         1       0       0       0       0
  3510 ;;      Temps:          0       0       0       0       0
  3511 ;;      Totals:         5       0       0       0       0
  3512 ;;Total ram usage:        5 bytes
  3513 ;; Hardware stack levels used:    1
  3514 ;; This function calls:
  3515 ;;		Nothing
  3516 ;; This function is called by:
  3517 ;;		i1_itoa
  3518 ;; This function uses a non-reentrant model
  3519 ;;
  3520                           
  3521                           
  3522                           ;psect for function i1___lwmod
  3523  0683                     i1___lwmod:
  3524  0683                     i1l1665:	
  3525                           ;incstack = 0
  3526                           ; Regs used in i1___lwmod: [wreg+status,2+status,0+btemp+1]
  3527                           
  3528  0683  0870               	movf	i1___lwmod@divisor,w
  3529  0684  0471               	iorwf	i1___lwmod@divisor+1,w
  3530  0685  1903               	btfsc	3,2
  3531  0686  2E88               	goto	u89_21
  3532  0687  2E89               	goto	u89_20
  3533  0688                     u89_21:
  3534  0688  2EB8               	goto	i1l1683
  3535  0689                     u89_20:
  3536  0689                     i1l1667:
  3537  0689  01F4               	clrf	i1___lwmod@counter
  3538  068A  0AF4               	incf	i1___lwmod@counter,f
  3539  068B  2E97               	goto	i1l1673
  3540  068C                     i1l1669:
  3541  068C  3001               	movlw	1
  3542  068D                     u90_25:
  3543  068D  1003               	clrc
  3544  068E  0DF0               	rlf	i1___lwmod@divisor,f
  3545  068F  0DF1               	rlf	i1___lwmod@divisor+1,f
  3546  0690  3EFF               	addlw	-1
  3547  0691  1D03               	skipz
  3548  0692  2E8D               	goto	u90_25
  3549  0693                     i1l1671:
  3550  0693  3001               	movlw	1
  3551  0694  00FF               	movwf	btemp+1
  3552  0695  087F               	movf	btemp+1,w
  3553  0696  07F4               	addwf	i1___lwmod@counter,f
  3554  0697                     i1l1673:
  3555  0697  1FF1               	btfss	i1___lwmod@divisor+1,7
  3556  0698  2E9A               	goto	u91_21
  3557  0699  2E9B               	goto	u91_20
  3558  069A                     u91_21:
  3559  069A  2E8C               	goto	i1l1669
  3560  069B                     u91_20:
  3561  069B                     i1l1675:
  3562  069B  0871               	movf	i1___lwmod@divisor+1,w
  3563  069C  0273               	subwf	i1___lwmod@dividend+1,w
  3564  069D  1D03               	skipz
  3565  069E  2EA1               	goto	u92_25
  3566  069F  0870               	movf	i1___lwmod@divisor,w
  3567  06A0  0272               	subwf	i1___lwmod@dividend,w
  3568  06A1                     u92_25:
  3569  06A1  1C03               	skipc
  3570  06A2  2EA4               	goto	u92_21
  3571  06A3  2EA5               	goto	u92_20
  3572  06A4                     u92_21:
  3573  06A4  2EAB               	goto	i1l1679
  3574  06A5                     u92_20:
  3575  06A5                     i1l1677:
  3576  06A5  0870               	movf	i1___lwmod@divisor,w
  3577  06A6  02F2               	subwf	i1___lwmod@dividend,f
  3578  06A7  0871               	movf	i1___lwmod@divisor+1,w
  3579  06A8  1C03               	skipc
  3580  06A9  03F3               	decf	i1___lwmod@dividend+1,f
  3581  06AA  02F3               	subwf	i1___lwmod@dividend+1,f
  3582  06AB                     i1l1679:
  3583  06AB  3001               	movlw	1
  3584  06AC                     u93_25:
  3585  06AC  1003               	clrc
  3586  06AD  0CF1               	rrf	i1___lwmod@divisor+1,f
  3587  06AE  0CF0               	rrf	i1___lwmod@divisor,f
  3588  06AF  3EFF               	addlw	-1
  3589  06B0  1D03               	skipz
  3590  06B1  2EAC               	goto	u93_25
  3591  06B2                     i1l1681:
  3592  06B2  3001               	movlw	1
  3593  06B3  02F4               	subwf	i1___lwmod@counter,f
  3594  06B4  1D03               	btfss	3,2
  3595  06B5  2EB7               	goto	u94_21
  3596  06B6  2EB8               	goto	u94_20
  3597  06B7                     u94_21:
  3598  06B7  2E9B               	goto	i1l1675
  3599  06B8                     u94_20:
  3600  06B8                     i1l1683:
  3601  06B8  0873               	movf	i1___lwmod@dividend+1,w
  3602  06B9  00F1               	movwf	?i1___lwmod+1
  3603  06BA  0872               	movf	i1___lwmod@dividend,w
  3604  06BB  00F0               	movwf	?i1___lwmod
  3605  06BC                     i1l595:
  3606  06BC  0008               	return
  3607  06BD                     __end_ofi1___lwmod:
  3608                           
  3609                           	psect	text16
  3610  0603                     __ptext16:	
  3611 ;; *************** function i1___lwdiv *****************
  3612 ;; Defined at:
  3613 ;;		line 5 in file "C:\Program Files\Microchip\xc8\v2.20\pic\sources\c90\common\lwdiv.c"
  3614 ;; Parameters:    Size  Location     Type
  3615 ;;  divisor         2    5[COMMON] unsigned int 
  3616 ;;  dividend        2    7[COMMON] unsigned int 
  3617 ;; Auto vars:     Size  Location     Type
  3618 ;;  quotient        2    9[COMMON] unsigned int 
  3619 ;;  counter         1   11[COMMON] unsigned char 
  3620 ;; Return value:  Size  Location     Type
  3621 ;;                  2    5[COMMON] unsigned int 
  3622 ;; Registers used:
  3623 ;;		wreg, status,2, status,0, btemp+1
  3624 ;; Tracked objects:
  3625 ;;		On entry : 0/0
  3626 ;;		On exit  : 0/0
  3627 ;;		Unchanged: 0/0
  3628 ;; Data sizes:     COMMON   BANK0   BANK1   BANK3   BANK2
  3629 ;;      Params:         4       0       0       0       0
  3630 ;;      Locals:         3       0       0       0       0
  3631 ;;      Temps:          0       0       0       0       0
  3632 ;;      Totals:         7       0       0       0       0
  3633 ;;Total ram usage:        7 bytes
  3634 ;; Hardware stack levels used:    1
  3635 ;; This function calls:
  3636 ;;		Nothing
  3637 ;; This function is called by:
  3638 ;;		_ISR
  3639 ;;		i1_itoa
  3640 ;; This function uses a non-reentrant model
  3641 ;;
  3642                           
  3643                           
  3644                           ;psect for function i1___lwdiv
  3645  0603                     i1___lwdiv:
  3646  0603                     i1l1639:	
  3647                           ;incstack = 0
  3648                           ; Regs used in i1___lwdiv: [wreg+status,2+status,0+btemp+1]
  3649                           
  3650  0603  01F9               	clrf	i1___lwdiv@quotient
  3651  0604  01FA               	clrf	i1___lwdiv@quotient+1
  3652  0605                     i1l1641:
  3653  0605  0875               	movf	i1___lwdiv@divisor,w
  3654  0606  0476               	iorwf	i1___lwdiv@divisor+1,w
  3655  0607  1903               	btfsc	3,2
  3656  0608  2E0A               	goto	u82_21
  3657  0609  2E0B               	goto	u82_20
  3658  060A                     u82_21:
  3659  060A  2E42               	goto	i1l1661
  3660  060B                     u82_20:
  3661  060B                     i1l1643:
  3662  060B  01FB               	clrf	i1___lwdiv@counter
  3663  060C  0AFB               	incf	i1___lwdiv@counter,f
  3664  060D  2E19               	goto	i1l1649
  3665  060E                     i1l1645:
  3666  060E  3001               	movlw	1
  3667  060F                     u83_25:
  3668  060F  1003               	clrc
  3669  0610  0DF5               	rlf	i1___lwdiv@divisor,f
  3670  0611  0DF6               	rlf	i1___lwdiv@divisor+1,f
  3671  0612  3EFF               	addlw	-1
  3672  0613  1D03               	skipz
  3673  0614  2E0F               	goto	u83_25
  3674  0615                     i1l1647:
  3675  0615  3001               	movlw	1
  3676  0616  00FF               	movwf	btemp+1
  3677  0617  087F               	movf	btemp+1,w
  3678  0618  07FB               	addwf	i1___lwdiv@counter,f
  3679  0619                     i1l1649:
  3680  0619  1FF6               	btfss	i1___lwdiv@divisor+1,7
  3681  061A  2E1C               	goto	u84_21
  3682  061B  2E1D               	goto	u84_20
  3683  061C                     u84_21:
  3684  061C  2E0E               	goto	i1l1645
  3685  061D                     u84_20:
  3686  061D                     i1l1651:
  3687  061D  3001               	movlw	1
  3688  061E                     u85_25:
  3689  061E  1003               	clrc
  3690  061F  0DF9               	rlf	i1___lwdiv@quotient,f
  3691  0620  0DFA               	rlf	i1___lwdiv@quotient+1,f
  3692  0621  3EFF               	addlw	-1
  3693  0622  1D03               	skipz
  3694  0623  2E1E               	goto	u85_25
  3695  0624  0876               	movf	i1___lwdiv@divisor+1,w
  3696  0625  0278               	subwf	i1___lwdiv@dividend+1,w
  3697  0626  1D03               	skipz
  3698  0627  2E2A               	goto	u86_25
  3699  0628  0875               	movf	i1___lwdiv@divisor,w
  3700  0629  0277               	subwf	i1___lwdiv@dividend,w
  3701  062A                     u86_25:
  3702  062A  1C03               	skipc
  3703  062B  2E2D               	goto	u86_21
  3704  062C  2E2E               	goto	u86_20
  3705  062D                     u86_21:
  3706  062D  2E35               	goto	i1l1657
  3707  062E                     u86_20:
  3708  062E                     i1l1653:
  3709  062E  0875               	movf	i1___lwdiv@divisor,w
  3710  062F  02F7               	subwf	i1___lwdiv@dividend,f
  3711  0630  0876               	movf	i1___lwdiv@divisor+1,w
  3712  0631  1C03               	skipc
  3713  0632  03F8               	decf	i1___lwdiv@dividend+1,f
  3714  0633  02F8               	subwf	i1___lwdiv@dividend+1,f
  3715  0634                     i1l1655:
  3716  0634  1479               	bsf	i1___lwdiv@quotient,0
  3717  0635                     i1l1657:
  3718  0635  3001               	movlw	1
  3719  0636                     u87_25:
  3720  0636  1003               	clrc
  3721  0637  0CF6               	rrf	i1___lwdiv@divisor+1,f
  3722  0638  0CF5               	rrf	i1___lwdiv@divisor,f
  3723  0639  3EFF               	addlw	-1
  3724  063A  1D03               	skipz
  3725  063B  2E36               	goto	u87_25
  3726  063C                     i1l1659:
  3727  063C  3001               	movlw	1
  3728  063D  02FB               	subwf	i1___lwdiv@counter,f
  3729  063E  1D03               	btfss	3,2
  3730  063F  2E41               	goto	u88_21
  3731  0640  2E42               	goto	u88_20
  3732  0641                     u88_21:
  3733  0641  2E1D               	goto	i1l1651
  3734  0642                     u88_20:
  3735  0642                     i1l1661:
  3736  0642  087A               	movf	i1___lwdiv@quotient+1,w
  3737  0643  00F6               	movwf	?i1___lwdiv+1
  3738  0644  0879               	movf	i1___lwdiv@quotient,w
  3739  0645  00F5               	movwf	?i1___lwdiv
  3740  0646                     i1l585:
  3741  0646  0008               	return
  3742  0647                     __end_ofi1___lwdiv:
  3743                           
  3744                           	psect	text17
  3745  0527                     __ptext17:	
  3746 ;; *************** function i1_adc_amostra *****************
  3747 ;; Defined at:
  3748 ;;		line 44 in file "adc.c"
  3749 ;; Parameters:    Size  Location     Type
  3750 ;;  canal           1    wreg     unsigned char 
  3751 ;; Auto vars:     Size  Location     Type
  3752 ;;  canal           1    9[COMMON] unsigned char 
  3753 ;; Return value:  Size  Location     Type
  3754 ;;                  2    0[COMMON] unsigned int 
  3755 ;; Registers used:
  3756 ;;		wreg, fsr0l, fsr0h, status,2, status,0
  3757 ;; Tracked objects:
  3758 ;;		On entry : 0/0
  3759 ;;		On exit  : 0/0
  3760 ;;		Unchanged: 0/0
  3761 ;; Data sizes:     COMMON   BANK0   BANK1   BANK3   BANK2
  3762 ;;      Params:         2       0       0       0       0
  3763 ;;      Locals:         1       0       0       0       0
  3764 ;;      Temps:          7       0       0       0       0
  3765 ;;      Totals:        10       0       0       0       0
  3766 ;;Total ram usage:       10 bytes
  3767 ;; Hardware stack levels used:    1
  3768 ;; This function calls:
  3769 ;;		Nothing
  3770 ;; This function is called by:
  3771 ;;		_ISR
  3772 ;; This function uses a non-reentrant model
  3773 ;;
  3774                           
  3775                           
  3776                           ;psect for function i1_adc_amostra
  3777  0527                     i1_adc_amostra:
  3778                           
  3779                           ;incstack = 0
  3780                           ; Regs used in i1_adc_amostra: [wreg-fsr0h+status,2+status,0]
  3781                           ;i1adc_amostra@canal stored from wreg
  3782  0527  00F9               	movwf	i1adc_amostra@canal
  3783  0528                     i1l1825:
  3784                           
  3785                           ;adc.c: 44: unsigned int adc_amostra(unsigned char canal);adc.c: 45: {;adc.c: 62:      s
      +                          witch(canal)
  3786  0528  2D38               	goto	i1l1835
  3787  0529                     i1l1827:
  3788                           
  3789                           ;adc.c: 65:         ADCON0=0x01;
  3790  0529  3001               	movlw	1
  3791  052A  1283               	bcf	3,5	;RP0=0, select bank0
  3792  052B  1303               	bcf	3,6	;RP1=0, select bank0
  3793  052C  009F               	movwf	31	;volatile
  3794                           
  3795                           ;adc.c: 66:         break;
  3796  052D  2D4B               	goto	i1l171
  3797  052E                     i1l1829:
  3798                           
  3799                           ;adc.c: 68:         ADCON0=0x09;
  3800  052E  3009               	movlw	9
  3801  052F  1283               	bcf	3,5	;RP0=0, select bank0
  3802  0530  1303               	bcf	3,6	;RP1=0, select bank0
  3803  0531  009F               	movwf	31	;volatile
  3804                           
  3805                           ;adc.c: 69:         break;
  3806  0532  2D4B               	goto	i1l171
  3807  0533                     i1l1831:
  3808                           
  3809                           ;adc.c: 71:         ADCON0=0x11;
  3810  0533  3011               	movlw	17
  3811  0534  1283               	bcf	3,5	;RP0=0, select bank0
  3812  0535  1303               	bcf	3,6	;RP1=0, select bank0
  3813  0536  009F               	movwf	31	;volatile
  3814                           
  3815                           ;adc.c: 72:         break;
  3816  0537  2D4B               	goto	i1l171
  3817  0538                     i1l1835:
  3818  0538  0879               	movf	i1adc_amostra@canal,w
  3819  0539  00F2               	movwf	??i1_adc_amostra
  3820  053A  01F3               	clrf	??i1_adc_amostra+1
  3821                           
  3822                           ; Switch on 2 bytes has been partitioned into a top level switch of size 1, and 1 sub-sw
      +                          itches
  3823                           ; Switch size 1, requested type "simple"
  3824                           ; Number of cases is 1, Range of values is 0 to 0
  3825                           ; switch strategies available:
  3826                           ; Name         Instructions Cycles
  3827                           ; simple_byte            4     3 (average)
  3828                           ; direct_byte           11     8 (fixed)
  3829                           ; jumptable            260     6 (fixed)
  3830                           ;	Chosen strategy is simple_byte
  3831  053B  0873               	movf	??i1_adc_amostra+1,w
  3832  053C  3A00               	xorlw	0	; case 0
  3833  053D  1903               	skipnz
  3834  053E  2D40               	goto	i1l2509
  3835  053F  2D4B               	goto	i1l171
  3836  0540                     i1l2509:
  3837                           
  3838                           ; Switch size 1, requested type "simple"
  3839                           ; Number of cases is 3, Range of values is 0 to 2
  3840                           ; switch strategies available:
  3841                           ; Name         Instructions Cycles
  3842                           ; simple_byte           10     6 (average)
  3843                           ; direct_byte           17     8 (fixed)
  3844                           ; jumptable            260     6 (fixed)
  3845                           ;	Chosen strategy is simple_byte
  3846  0540  0872               	movf	??i1_adc_amostra,w
  3847  0541  3A00               	xorlw	0	; case 0
  3848  0542  1903               	skipnz
  3849  0543  2D29               	goto	i1l1827
  3850  0544  3A01               	xorlw	1	; case 1
  3851  0545  1903               	skipnz
  3852  0546  2D2E               	goto	i1l1829
  3853  0547  3A03               	xorlw	3	; case 2
  3854  0548  1903               	skipnz
  3855  0549  2D33               	goto	i1l1831
  3856  054A  2D4B               	goto	i1l171
  3857  054B                     i1l171:
  3858                           
  3859                           ;adc.c: 77:     ADCON0bits.GO=1;
  3860  054B  1283               	bcf	3,5	;RP0=0, select bank0
  3861  054C  1303               	bcf	3,6	;RP1=0, select bank0
  3862  054D  151F               	bsf	31,2	;volatile
  3863  054E                     i1l174:	
  3864                           ;adc.c: 78:     while(ADCON0bits.GO == 1);
  3865                           
  3866  054E  191F               	btfsc	31,2	;volatile
  3867  054F  2D51               	goto	u102_21
  3868  0550  2D52               	goto	u102_20
  3869  0551                     u102_21:
  3870  0551  2D4E               	goto	i1l174
  3871  0552                     u102_20:
  3872  0552                     i1l1837:
  3873                           
  3874                           ;adc.c: 80:    return ((((unsigned int)ADRESH)<<2)|(ADRESL>>6));
  3875  0552  1683               	bsf	3,5	;RP0=1, select bank1
  3876  0553  1303               	bcf	3,6	;RP1=0, select bank1
  3877  0554  081E               	movf	30,w	;volatile
  3878  0555  00F2               	movwf	??i1_adc_amostra
  3879  0556  3006               	movlw	6
  3880  0557                     u103_25:
  3881  0557  1003               	clrc
  3882  0558  0CF2               	rrf	??i1_adc_amostra,f
  3883  0559  3EFF               	addlw	-1
  3884  055A  1D03               	skipz
  3885  055B  2D57               	goto	u103_25
  3886  055C  0872               	movf	??i1_adc_amostra,w
  3887  055D  00F3               	movwf	??i1_adc_amostra+1
  3888  055E  01F4               	clrf	??i1_adc_amostra+2
  3889  055F  1283               	bcf	3,5	;RP0=0, select bank0
  3890  0560  1303               	bcf	3,6	;RP1=0, select bank0
  3891  0561  081E               	movf	30,w	;volatile
  3892  0562  00F5               	movwf	??i1_adc_amostra+3
  3893  0563  01F6               	clrf	??i1_adc_amostra+4
  3894  0564  1003               	clrc
  3895  0565  0DF5               	rlf	??i1_adc_amostra+3,f
  3896  0566  0DF6               	rlf	??i1_adc_amostra+4,f
  3897  0567  1003               	clrc
  3898  0568  0DF5               	rlf	??i1_adc_amostra+3,f
  3899  0569  0DF6               	rlf	??i1_adc_amostra+4,f
  3900  056A  0873               	movf	??i1_adc_amostra+1,w
  3901  056B  0475               	iorwf	??i1_adc_amostra+3,w
  3902  056C  00F7               	movwf	??i1_adc_amostra+5
  3903  056D  0874               	movf	??i1_adc_amostra+2,w
  3904  056E  0476               	iorwf	??i1_adc_amostra+4,w
  3905  056F  00F8               	movwf	??i1_adc_amostra+6
  3906  0570  0877               	movf	??i1_adc_amostra+5,w
  3907  0571  00F0               	movwf	?i1_adc_amostra
  3908  0572  0878               	movf	??i1_adc_amostra+6,w
  3909  0573  00F1               	movwf	?i1_adc_amostra+1
  3910  0574                     i1l177:
  3911  0574  0008               	return
  3912  0575                     __end_ofi1_adc_amostra:
  3913                           
  3914                           	psect	text18
  3915  06BD                     __ptext18:	
  3916 ;; *************** function i1___wmul *****************
  3917 ;; Defined at:
  3918 ;;		line 15 in file "C:\Program Files\Microchip\xc8\v2.20\pic\sources\c90\common\Umul16.c"
  3919 ;; Parameters:    Size  Location     Type
  3920 ;;  multiplier      2   10[COMMON] unsigned int 
  3921 ;;  multiplicand    2   12[COMMON] unsigned int 
  3922 ;; Auto vars:     Size  Location     Type
  3923 ;;  product         2    0[BANK0 ] unsigned int 
  3924 ;; Return value:  Size  Location     Type
  3925 ;;                  2   10[COMMON] unsigned int 
  3926 ;; Registers used:
  3927 ;;		wreg, status,2, status,0
  3928 ;; Tracked objects:
  3929 ;;		On entry : 0/0
  3930 ;;		On exit  : 0/0
  3931 ;;		Unchanged: 0/0
  3932 ;; Data sizes:     COMMON   BANK0   BANK1   BANK3   BANK2
  3933 ;;      Params:         4       0       0       0       0
  3934 ;;      Locals:         0       2       0       0       0
  3935 ;;      Temps:          0       0       0       0       0
  3936 ;;      Totals:         4       2       0       0       0
  3937 ;;Total ram usage:        6 bytes
  3938 ;; Hardware stack levels used:    1
  3939 ;; This function calls:
  3940 ;;		Nothing
  3941 ;; This function is called by:
  3942 ;;		_ISR
  3943 ;; This function uses a non-reentrant model
  3944 ;;
  3945                           
  3946                           
  3947                           ;psect for function i1___wmul
  3948  06BD                     i1___wmul:
  3949  06BD                     i1l1851:	
  3950                           ;incstack = 0
  3951                           ; Regs used in i1___wmul: [wreg+status,2+status,0]
  3952                           
  3953  06BD  1283               	bcf	3,5	;RP0=0, select bank0
  3954  06BE  1303               	bcf	3,6	;RP1=0, select bank0
  3955  06BF  01A0               	clrf	i1___wmul@product
  3956  06C0  01A1               	clrf	i1___wmul@product+1
  3957  06C1                     i1l1853:
  3958  06C1  1C7A               	btfss	i1___wmul@multiplier,0
  3959  06C2  2EC4               	goto	u105_21
  3960  06C3  2EC5               	goto	u105_20
  3961  06C4                     u105_21:
  3962  06C4  2ECD               	goto	i1l313
  3963  06C5                     u105_20:
  3964  06C5                     i1l1855:
  3965  06C5  087C               	movf	i1___wmul@multiplicand,w
  3966  06C6  1283               	bcf	3,5	;RP0=0, select bank0
  3967  06C7  1303               	bcf	3,6	;RP1=0, select bank0
  3968  06C8  07A0               	addwf	i1___wmul@product,f
  3969  06C9  1803               	skipnc
  3970  06CA  0AA1               	incf	i1___wmul@product+1,f
  3971  06CB  087D               	movf	i1___wmul@multiplicand+1,w
  3972  06CC  07A1               	addwf	i1___wmul@product+1,f
  3973  06CD                     i1l313:
  3974  06CD  3001               	movlw	1
  3975  06CE                     u106_25:
  3976  06CE  1003               	clrc
  3977  06CF  0DFC               	rlf	i1___wmul@multiplicand,f
  3978  06D0  0DFD               	rlf	i1___wmul@multiplicand+1,f
  3979  06D1  3EFF               	addlw	-1
  3980  06D2  1D03               	skipz
  3981  06D3  2ECE               	goto	u106_25
  3982  06D4                     i1l1857:
  3983  06D4  3001               	movlw	1
  3984  06D5                     u107_25:
  3985  06D5  1003               	clrc
  3986  06D6  0CFB               	rrf	i1___wmul@multiplier+1,f
  3987  06D7  0CFA               	rrf	i1___wmul@multiplier,f
  3988  06D8  3EFF               	addlw	-1
  3989  06D9  1D03               	skipz
  3990  06DA  2ED5               	goto	u107_25
  3991  06DB                     i1l1859:
  3992  06DB  087A               	movf	i1___wmul@multiplier,w
  3993  06DC  047B               	iorwf	i1___wmul@multiplier+1,w
  3994  06DD  1D03               	btfss	3,2
  3995  06DE  2EE0               	goto	u108_21
  3996  06DF  2EE1               	goto	u108_20
  3997  06E0                     u108_21:
  3998  06E0  2EC1               	goto	i1l1853
  3999  06E1                     u108_20:
  4000  06E1                     i1l1861:
  4001  06E1  1283               	bcf	3,5	;RP0=0, select bank0
  4002  06E2  1303               	bcf	3,6	;RP1=0, select bank0
  4003  06E3  0821               	movf	i1___wmul@product+1,w
  4004  06E4  00FB               	movwf	?i1___wmul+1
  4005  06E5  0820               	movf	i1___wmul@product,w
  4006  06E6  00FA               	movwf	?i1___wmul
  4007  06E7                     i1l315:
  4008  06E7  0008               	return
  4009  06E8                     __end_ofi1___wmul:
  4010  007E                     btemp	set	126	;btemp
  4011  007E                     wtemp0	set	126
  4012                           
  4013                           	psect	config
  4014                           
  4015                           ;Config register CONFIG @ 0x2007
  4016                           ;	Oscillator Selection bits
  4017                           ;	FOSC = HS, HS oscillator
  4018                           ;	Watchdog Timer Enable bit
  4019                           ;	WDTE = OFF, WDT disabled
  4020                           ;	Power-up Timer Enable bit
  4021                           ;	PWRTE = OFF, PWRT disabled
  4022                           ;	Brown-out Reset Enable bit
  4023                           ;	BOREN = OFF, BOR disabled
  4024                           ;	Low-Voltage (Single-Supply) In-Circuit Serial Programming Enable bit
  4025                           ;	LVP = OFF, RB3 is digital I/O, HV on MCLR must be used for programming
  4026                           ;	Data EEPROM Memory Code Protection bit
  4027                           ;	CPD = OFF, Data EEPROM code protection off
  4028                           ;	Flash Program Memory Write Enable bits
  4029                           ;	WRT = OFF, Write protection off; all program memory may be written to by EECON control
  4030                           ;	In-Circuit Debugger Mode bit
  4031                           ;	DEBUG = 0x1, unprogrammed default
  4032                           ;	Flash Program Memory Code Protection bit
  4033                           ;	CP = OFF, Code protection off
  4034  2007                     	org	8199
  4035  2007  3F3A               	dw	16186

Data Sizes:
    Strings     0
    Constant    0
    Data        4
    BSS         22
    Persistent  0
    Stack       0

Auto Spaces:
    Space          Size  Autos    Used
    COMMON           14     14      14
    BANK0            80     41      67
    BANK1            80      2       2
    BANK3            96      0       0
    BANK2            96      0       0

Pointer List with Targets:

    temperature_decrease@y	PTR unsigned char  size(1) Largest target is 6
		 -> str(BANK0[6]), 

    temperature_increase@y	PTR unsigned char  size(1) Largest target is 6
		 -> str(BANK0[6]), 

    init_temperature@y	PTR unsigned char  size(1) Largest target is 6
		 -> str(BANK0[6]), 

    itoa@str	PTR unsigned char  size(1) Largest target is 6
		 -> str(BANK0[6]), 


Critical Paths under _main in COMMON

    None.

Critical Paths under _ISR in COMMON

    _ISR->i1___wmul
    i1_itoa->i1___lwdiv
    i1___lwdiv->i1___lwmod
    i1___wmul->i1_adc_amostra

Critical Paths under _main in BANK0

    _main->_temperature_increase
    _temperature_increase->___wmul
    _temperature_decrease->___wmul
    _init_temperature->___wmul
    _itoa->___lwdiv
    ___lwdiv->___lwmod
    ___wmul->_adc_amostra

Critical Paths under _ISR in BANK0

    _ISR->i1_itoa

Critical Paths under _main in BANK1

    None.

Critical Paths under _ISR in BANK1

    None.

Critical Paths under _main in BANK3

    None.

Critical Paths under _ISR in BANK3

    None.

Critical Paths under _main in BANK2

    None.

Critical Paths under _ISR in BANK2

    None.

Call Graph Tables:

 ---------------------------------------------------------------------------------
 (Depth) Function   	        Calls       Base Space   Used Autos Params    Refs
 ---------------------------------------------------------------------------------
 (0) _main                                                 4     4      0   17568
                                             39 BANK0      2     2      0
                                              0 BANK1      2     2      0
                       _IRQ_RB0_init
                        _TIMER1_init
                             ___wmul
                        _adc_amostra
                           _adc_init
                          _display7s
                   _init_temperature
                               _itoa
               _temperature_decrease
               _temperature_increase
 ---------------------------------------------------------------------------------
 (1) _temperature_increase                                10     7      3    4454
                                             29 BANK0     10     7      3
                             ___wmul
                        _adc_amostra
                          _display7s
                               _itoa
 ---------------------------------------------------------------------------------
 (1) _temperature_decrease                                 9     6      3    4454
                                             29 BANK0      9     6      3
                             ___wmul
                        _adc_amostra
                          _display7s
                               _itoa
 ---------------------------------------------------------------------------------
 (1) _init_temperature                                     9     6      3    4485
                                             29 BANK0      9     6      3
                             ___wmul
                        _adc_amostra
                          _display7s
                               _itoa
 ---------------------------------------------------------------------------------
 (2) _itoa                                                 3     0      3    2429
                                             25 BANK0      3     0      3
                            ___lwdiv
                            ___lwmod
 ---------------------------------------------------------------------------------
 (3) ___lwmod                                              5     1      4     592
                                             13 BANK0      5     1      4
 ---------------------------------------------------------------------------------
 (3) ___lwdiv                                              7     3      4     821
                                             18 BANK0      7     3      4
                            ___lwmod (ARG)
 ---------------------------------------------------------------------------------
 (2) _display7s                                            3     3      0      31
                                             13 BANK0      3     3      0
 ---------------------------------------------------------------------------------
 (2) _adc_amostra                                         10     8      2      31
                                             13 BANK0     10     8      2
 ---------------------------------------------------------------------------------
 (2) ___wmul                                               6     2      4    1616
                                             23 BANK0      6     2      4
                        _adc_amostra (ARG)
 ---------------------------------------------------------------------------------
 (1) _adc_init                                             0     0      0       0
 ---------------------------------------------------------------------------------
 (1) _TIMER1_init                                          0     0      0       0
 ---------------------------------------------------------------------------------
 (1) _IRQ_RB0_init                                         0     0      0       0
 ---------------------------------------------------------------------------------
 Estimated maximum stack depth 3
 ---------------------------------------------------------------------------------
 (Depth) Function   	        Calls       Base Space   Used Autos Params    Refs
 ---------------------------------------------------------------------------------
 (4) _ISR                                                 10    10      0    1451
                                              3 BANK0     10    10      0
                          i1___lwdiv
                           i1___wmul
                      i1_adc_amostra
                             i1_itoa
 ---------------------------------------------------------------------------------
 (5) i1_itoa                                               3     0      3     817
                                              0 BANK0      3     0      3
                          i1___lwdiv
                          i1___lwmod
 ---------------------------------------------------------------------------------
 (6) i1___lwmod                                            5     1      4     263
                                              0 COMMON     5     1      4
 ---------------------------------------------------------------------------------
 (6) i1___lwdiv                                            7     3      4     370
                                              5 COMMON     7     3      4
                          i1___lwmod (ARG)
 ---------------------------------------------------------------------------------
 (5) i1_adc_amostra                                       10     8      2      22
                                              0 COMMON    10     8      2
 ---------------------------------------------------------------------------------
 (5) i1___wmul                                             6     2      4     196
                                             10 COMMON     4     0      4
                                              0 BANK0      2     2      0
                      i1_adc_amostra (ARG)
 ---------------------------------------------------------------------------------
 Estimated maximum stack depth 6
 ---------------------------------------------------------------------------------

 Call Graph Graphs:

 _main (ROOT)
   _IRQ_RB0_init
   _TIMER1_init
   ___wmul
     _adc_amostra (ARG)
   _adc_amostra
   _adc_init
   _display7s
   _init_temperature
     ___wmul
       _adc_amostra (ARG)
     _adc_amostra
     _display7s
     _itoa
       ___lwdiv
         ___lwmod (ARG)
       ___lwmod
   _itoa
     ___lwdiv
       ___lwmod (ARG)
     ___lwmod
   _temperature_decrease
     ___wmul
       _adc_amostra (ARG)
     _adc_amostra
     _display7s
     _itoa
       ___lwdiv
         ___lwmod (ARG)
       ___lwmod
   _temperature_increase
     ___wmul
       _adc_amostra (ARG)
     _adc_amostra
     _display7s
     _itoa
       ___lwdiv
         ___lwmod (ARG)
       ___lwmod

 _ISR (ROOT)
   i1___lwdiv
     i1___lwmod (ARG)
   i1___wmul
     i1_adc_amostra (ARG)
   i1_adc_amostra
   i1_itoa
     i1___lwdiv
       i1___lwmod (ARG)
     i1___lwmod

 Address spaces:
Name               Size   Autos  Total    Cost      Usage
BANK3               60      0       0       9        0.0%
BITBANK3            60      0       0       8        0.0%
SFR3                 0      0       0       4        0.0%
BITSFR3              0      0       0       4        0.0%
BANK2               60      0       0      11        0.0%
BITBANK2            60      0       0      10        0.0%
SFR2                 0      0       0       5        0.0%
BITSFR2              0      0       0       5        0.0%
BANK1               50      2       2       7        2.5%
BITBANK1            50      0       0       6        0.0%
SFR1                 0      0       0       2        0.0%
BITSFR1              0      0       0       2        0.0%
BANK0               50     29      43       5       83.8%
BITBANK0            50      0       0       4        0.0%
SFR0                 0      0       0       1        0.0%
BITSFR0              0      0       0       1        0.0%
COMMON               E      E       E       1      100.0%
BITCOMMON            E      0       0       0        0.0%
CODE                 0      0       0       0        0.0%
DATA                 0      0      53      12        0.0%
ABS                  0      0      53       3        0.0%
NULL                 0      0       0       0        0.0%
STACK                0      0       0       2        0.0%
EEDATA             100      0       0       0        0.0%


Microchip Technology PIC Macro Assembler V2.20 build 20200408173844 
Symbol Table                                                                                   Sat Jul 11 00:08:26 2020

                            _C 004B                             l98 01F9                             fsr 0004  
          ___wmul@multiplicand 0039               i1___wmul@product 0020           __size_of_adc_amostra 0048  
                          l110 0204                            l120 034C                            l210 0472  
                          l115 02B9                            l131 0411                            l123 036C  
                          l150 0736                            l128 03FF                            l153 071F  
                          l313 06F6                            l315 070E                            l171 0595  
                          l181 04CE                            l166 0728                            l174 0596  
                          l177 05BC                            l585 0602                            l595 0682  
                          _GIE 005F                            _RA4 002C                            _RA5 002D  
                          _RC2 003A                            _RB5 0035                            _RB7 0037  
                          _RC5 003D                            _ISR 003A                            fsr0 0004  
                          _tmp 004F                            _str 0059                            indf 0000  
                         ?_ISR 0070                           ISR@x 002C                           ISR@y 002B  
                         l2101 067E                           l2111 057F                           l2105 0578  
                         l2107 0579                           l2115 0582                           l2131 04C9  
                         l2221 0704                           l2213 06E8                           l2117 059A  
                         l2109 057C                           l2205 0438                           l2133 0415  
                         l2061 05C7                           l2301 0317                           l2231 0720  
                         l2223 070A                           l2215 06EC                           l2151 041E  
                         l2143 041A                           l2135 0416                           l2071 05EA  
                         l2063 05CA                           l2127 0473                           l2311 0365  
                         l2303 031B                           l2217 06F0                           l2073 05F0  
                         l2065 05D1                           l2057 05BD                           l2129 04C1  
                         l2241 0239                           l2233 01FF                           l2321 036D  
                         l2313 0369                           l2305 0324                           l2401 018D  
                         l2227 070F                           l2219 06FD                           l2171 0428  
                         l2163 0424                           l2155 0420                           l2147 041C  
                         l2139 0418                           l2075 05F1                           l2067 05D5  
                         l2059 05C1                           l2091 065D                           l2083 0647  
                         l2251 0255                           l2243 023A                           l2235 0207  
                         l2331 03AA                           l2323 0374                           l2315 036A  
                         l2307 032F                           l2411 01C6                           l2403 01AF  
                         l2229 0731                           l2077 05F8                           l2069 05D9  
                         l2093 0661                           l2085 064F                           l2253 0256  
                         l2245 023E                           l2237 0229                           l2261 028A  
                         l2341 03C6                           l2333 03AD                           l2325 037A  
                         l2317 036B                           l2309 034F                           l2421 01E4  
                         l2413 01CF                           l2405 01BC                           l2191 0432  
                         l2183 042E                           l2175 042A                           l2167 0426  
                         l2159 0422                           l2079 05FE                           l2095 066B  
                         l2087 0652                           l2271 02B7                           l2263 0290  
                         l2255 025A                           l2247 0247                           l2239 0236  
                         l2351 03E2                           l2343 03C9                           l2335 03AE  
                         l2327 037B                           l2423 01ED                           l2415 01DA  
                         l2407 01BF                           l2505 0440                           l2097 0671  
                         l2089 0659                           l2273 02B8                           l2265 029E  
                         l2257 0263                           l2249 0252                           l2361 0410  
                         l2345 03CA                           l2337 03B2                           l2329 039D  
                         l2353 0402                           l2281 02C7                           l2417 01DD  
                         l2409 01C0                           l2507 058A                           l2195 0434  
                         l2187 0430                           l2179 042C                           l2099 0678  
                         l2267 02AE                           l2259 026E                           l2355 040C  
                         l2347 03CE                           l2339 03BB                           l2291 02FB  
                         l2283 02C8                           l2419 01DE                           l2371 012E  
                         l2269 02B4                           l2357 040E                           l2349 03D7  
                         l2293 02FF                           l2285 02EA                           l2277 02BA  
                         l2381 013B                           l2373 0131                           l2365 011F  
                         l2199 0436                           l2359 040F                           l2295 0308  
                         l2287 02F7                           l2279 02BF                           l2391 0157  
                         l2383 013E                           l2375 0134                           l2367 0129  
                         l2297 0313                           l2289 02FA                           l2393 0165  
                         l2385 0141                           l2377 0135                           l2369 012D  
                         l2299 0316                           l2395 016B                           l2387 0149  
                         l2379 0138                           l2397 0178                           l2389 0151  
                         l2399 0180                           u1220 05C7                           u1221 05C6  
                         u1310 0661                           u1311 0660                           u1240 05D9  
                         u1320 066B                           u1241 05D8                           u1321 066A  
                         u1305 0653                           u1410 070A                           u1411 0709  
                         u1235 05CB                           u1260 05EA                           u1340 067E  
                         u1420 0290                           u1500 0157                           u1405 06FE  
                         u1261 05E9                           u1341 067D                           u1325 0667  
                         u1421 028F                           u1501 0156                           u1350 059A  
                         u1430 029E                           u1510 016B                           u1351 0599  
                         u1255 05DA                           u1335 0672                           u1431 029D  
                         u1511 016A                           u1280 05FE                           u1440 02AE  
                         u1520 0180                           u1281 05FD                           u1265 05E6  
                         u1441 02AD                           u1521 017F                           u1290 064F  
                         u1370 04C9                           u1450 02C7                           u1275 05F2  
                         u1291 064E                           u1371 04C8                           u1435 029A  
                         u1451 02C6                           u1380 06F0                           u1460 0365  
                         u1381 06EF                           u1365 05A1                           u1445 02AA  
                         u1461 0364                           u1470 037A                           u1607 0269  
                         u1471 0379                           u1480 040C                           u1481 040B  
                         u1465 0361                           u1537 01D5                           u1490 0151  
                         u1395 06F7                           u1547 01F3                           u1491 0150  
                         u1485 0408                           u1557 030E                           u1567 032A  
                         u1577 03C1                           u1587 03DD                           u1597 024D  
                         _PEIE 005E                           _INTE 005C                           _INTF 0059  
                         _TMR1 000E                           _flag 0055                           _main 011F  
                         _itoa 0473                           btemp 007E                           start 0012  
                        ??_ISR 0023                  i1_adc_amostra 0527                          ?_main 0070  
                        ?_itoa 0039                __end_of___lwdiv 0603                          i1l144 010D  
                        i1l313 06CD                          i1l315 06E7                          i1l171 054B  
                        i1l147 0114                          i1l181 0526                          i1l174 054E  
                        i1l177 0574                __end_of___lwmod 0683                          i1l585 0646  
                        i1l595 06BC                          _PORTD 0008                          _TRISA 0085  
                        _TRISD 0088                          u82_20 060B                          u82_21 060A  
                        u90_25 068D                          u91_20 069B                          u91_21 069A  
                        u83_25 060F                          u84_20 061D                          u92_20 06A5  
                        u84_21 061C                          u92_21 06A4                          u92_25 06A1  
                        u85_25 061E                          u93_25 06AC                          u86_20 062E  
                        u94_20 06B8                          u86_21 062D                          u94_21 06B7  
                        u86_25 062A                          u87_25 0636                          u88_20 0642  
                        u88_21 0641                          u89_20 0689                          u89_21 0688  
           i1___lwmod@dividend 0072                          main@x 00A1                          main@y 00A0  
                        pclath 000A               __end_ofi1___wmul 06E8                          status 0003  
          i1___wmul@multiplier 007A                          wtemp0 007E              ?_init_temperature 003D  
           __size_ofi1___lwdiv 0044             __size_ofi1___lwmod 003A             ??_init_temperature 0040  
              __initialization 0015                   __end_of_main 01FF                   __end_of_itoa 04CF  
               ?i1_adc_amostra 0070             i1adc_amostra@canal 0079                         ??_main 0047  
                       ??_itoa 003C                   ?_TIMER1_init 0070                         _ADCON0 001F  
                       _ADCON1 009F                         _ADRESH 001E                         _ADRESL 009E  
          init_temperature@res 0044               __end_of_adc_init 0729                         u102_20 0552  
                       u102_21 0551                         u103_25 0557                         u104_20 0521  
                       u120_20 00EB                         u104_21 0520                         u120_21 00EA  
                       u120_25 00E7                         u105_20 06C5                         u121_20 0109  
                       u113_20 003E                         u105_21 06C4                         i1l1641 0605  
                       u121_21 0108                         u113_21 003D                         i1l1651 061D  
                       i1l1643 060B                         i1l2509 0540                         i1l1653 062E  
                       i1l1645 060E                         i1l1661 0642                         u121_25 0105  
                       i1l1831 0533                         i1l1655 0634                         i1l1647 0615  
                       i1l1639 0603                         i1l1671 0693                         u114_20 0045  
                       i1l1825 0528                         i1l1657 0635                         i1l1649 0619  
                       i1l1681 06B2                         i1l1673 0697                         i1l1665 0683  
                       u114_21 0044                         i1l1851 06BD                         i1l1827 0529  
                       i1l1835 0538                         i1l1659 063C                         i1l1675 069B  
                       i1l1667 0689                         i1l1683 06B8                         i1l1931 0045  
                       i1l1861 06E1                         u106_25 06CE                         i1l1853 06C1  
                       i1l1837 0552                         i1l1829 052E                         i1l1677 06A5  
                       i1l1669 068C                         i1l1845 04CF                         i1l1933 0047  
                       i1l1941 004F                         i1l1925 003A                         i1l1855 06C5  
                       i1l1679 06AB                         i1l1847 0519                         i1l1951 006C  
                       i1l1943 0053                         i1l1935 0048                         i1l1927 003E  
                       u115_20 0053                         i1l1857 06D4                         i1l1849 0521  
                       i1l1953 0072                         i1l1961 00CB                         i1l1945 0059  
                       u115_21 0052                         i1l1937 004A                         i1l1929 003F  
                       i1l1859 06DB                         i1l1971 010F                         i1l1963 00D2  
                       i1l1955 0092                         i1l1947 005F                         i1l1939 004E  
                       u107_25 06D5                         i1l1973 0111                         i1l1965 00EB  
                       i1l1957 00A9                         i1l1949 0065                         i1l1967 00F0  
                       i1l1959 00C9                         i1l1975 0113                         u108_20 06E1  
                       u116_20 0059                         u108_21 06E0                         i1l1969 0109  
                       u116_21 0058                         u117_20 005F                         u117_21 005E  
                       u118_20 006C                         u118_21 006B                         _INTEDG 040E  
                       u119_20 00D2                         u119_21 00D1                         _TMR1IE 0460  
                       _TMR1IF 0060                         _TMR1CS 0081                         _TMR1ON 0080  
                       _TRISC2 043A                         _TRISB5 0435                         _TRISC5 043D  
                       _TRISB7 0437                         i1_itoa 04CF                         ___wmul 06E8  
                    ??___lwdiv 0036                      ??___lwmod 0031                         _stayIn 0061  
            __end_ofi1___lwdiv 0647              __end_ofi1___lwmod 06BD                         saved_w 007E  
                ?_IRQ_RB0_init 0070   __end_of_temperature_decrease 0412        __end_of__initialization 0036  
      temperature_decrease@res 0042   __end_of_temperature_increase 036D                 __pcstackCOMMON 0070  
              ??i1_adc_amostra 0072                   __pidataBANK0 0737                      ?i1___wmul 007A  
               ??_IRQ_RB0_init 002D             __size_of_display7s 0061                     __pbssBANK0 0049  
                      ?i1_itoa 0020                     __pmaintext 011F                        ?___wmul 0037  
                ??_adc_amostra 002F                     __pintentry 0004                      ?_adc_init 0070  
                   ??i1___wmul 007E                        _T1CKPS0 0084                        _T1CKPS1 0085  
         __size_of_TIMER1_init 0011                __size_ofi1_itoa 0058              __end_of_display7s 0473  
              __size_of___wmul 0027                        ___lwdiv 05BD                        ___lwmod 0647  
                   ??_adc_init 002D                        __ptext1 02BA                        __ptext2 036D  
         _temperature_decrease 036D      __size_of_init_temperature 00BB                        __ptext3 01FF  
                      __ptext4 0473                        __ptext5 0647                        __ptext6 05BD  
                      __ptext7 0412                        __ptext8 0575                        __ptext9 06E8  
                 __size_of_ISR 00E5              i1___lwdiv@divisor 0075            __end_of_adc_amostra 05BD  
            i1___lwdiv@counter 007B           _temperature_increase 02BA                        clrloop0 072A  
         end_of_initialization 0036                        itoa@val 0039                        itoa@str 003B  
         __end_of_IRQ_RB0_init 0737          i1___wmul@multiplicand 007C          ?_temperature_decrease 003D  
                   _wantedTemp 005F                      _PORTEbits 0009          ?_temperature_increase 003D  
                    i1___lwdiv 0603                      i1___lwmod 0683                     display7s@v 002F  
               __end_ofi1_itoa 0527                    _adc_amostra 0575                 __end_of___wmul 070F  
                    i1itoa@val 0020                      i1itoa@str 0022              i1___lwmod@divisor 0070  
            i1___lwmod@counter 0074            start_initialization 0015              __size_ofi1___wmul 002B  
                  __end_of_ISR 011F                     ?i1___lwdiv 0075                     ?i1___lwmod 0070  
      temperature_increase@res 0043                       ??i1_itoa 007C                       ??___wmul 003B  
        __end_ofi1_adc_amostra 0575         ??_temperature_decrease 0040                    __pdataBANK0 005F  
             _init_temperature 01FF              __size_of_adc_init 0009                      ___latbits 0002  
       ??_temperature_increase 0040                  __pcstackBANK0 0020                  __pcstackBANK1 00A0  
    temperature_decrease@x_134 0045      temperature_decrease@y_133 0044          __size_of_IRQ_RB0_init 0006  
             ___lwdiv@dividend 0034                       ?___lwdiv 0032                       ?___lwmod 002D  
                    _display7s 0412        _accumilated_tmeperature 004D                  ??_TIMER1_init 002D  
        init_temperature@x_122 0043          init_temperature@y_121 0042                   _IRQ_RB0_init 0731  
             ___lwdiv@quotient 0037                    ??i1___lwdiv 0079                    ??i1___lwmod 0074  
                  _heater_flag 0053              interrupt_function 0004                 ___wmul@product 003B  
                    clear_ram0 0729                    _cooler_flag 0051                     ?_display7s 0070  
                   _ADCON0bits 001F              ___wmul@multiplier 0037                       i1___wmul 06BD  
          __end_of_TIMER1_init 0720                  _timer1counter 0049              init_temperature@x 003D  
            init_temperature@y 003F                   ?_adc_amostra 002D               __size_of___lwdiv 0046  
             __size_of___lwmod 003C          temperature_decrease@x 003D          temperature_decrease@y 003F  
                     _adc_init 0720                ___lwdiv@divisor 0032                ___lwdiv@counter 0036  
                     __ptext10 0720                       __ptext11 070F                       __ptext12 0731  
                     __ptext13 003A                       __ptext14 04CF                       __ptext15 0683  
                     __ptext16 0603                       __ptext17 0527                       __ptext18 06BD  
           i1___lwdiv@dividend 0077       __end_of_init_temperature 02BA                  __size_of_main 00E0  
                __size_of_itoa 005C                       _tempinit 0057                    ??_display7s 002D  
           i1___lwdiv@quotient 0079                    _TIMER1_init 070F          temperature_increase@x 003D  
        temperature_increase@y 003F                       intlevel1 0000               ___lwmod@dividend 002F  
    temperature_increase@x_128 0046      temperature_increase@y_127 0045  __size_of_temperature_decrease 00A5  
              ___lwmod@divisor 002D                ___lwmod@counter 0031               adc_amostra@canal 0036  
__size_of_temperature_increase 00B3         __size_ofi1_adc_amostra 004E  
