

Microchip MPLAB XC8 Assembler V2.20 build 20200408173844 
                                                                                               Sun Jul 12 01:09:56 2020

Microchip MPLAB XC8 C Compiler v2.20 (Free license) build 20200408173844 Og1 
     1                           	processor	16F877A
     2                           	pagewidth 120
     3                           	opt	flic
     4                           	psect	idataBANK0,global,class=CODE,delta=2,noexec
     5                           	psect	nvBANK0,global,class=BANK0,space=1,delta=1,noexec
     6                           	psect	cinit,global,class=CODE,merge=1,delta=2
     7                           	psect	bssBANK0,global,class=BANK0,space=1,delta=1,noexec
     8                           	psect	dataBANK0,global,class=BANK0,space=1,delta=1,noexec
     9                           	psect	inittext,global,class=CODE,delta=2
    10                           	psect	cstackBANK1,global,class=BANK1,space=1,delta=1,noexec
    11                           	psect	cstackCOMMON,global,class=COMMON,space=1,delta=1,noexec
    12                           	psect	cstackBANK0,global,class=BANK0,space=1,delta=1,noexec
    13                           	psect	maintext,global,class=CODE,split=1,delta=2
    14                           	psect	text1,local,class=CODE,merge=1,delta=2
    15                           	psect	text2,local,class=CODE,merge=1,delta=2
    16                           	psect	text3,local,class=CODE,merge=1,delta=2
    17                           	psect	text4,local,class=CODE,merge=1,delta=2,group=1
    18                           	psect	text5,local,class=CODE,merge=1,delta=2,group=1
    19                           	psect	text6,local,class=CODE,merge=1,delta=2
    20                           	psect	text7,local,class=CODE,merge=1,delta=2
    21                           	psect	text8,local,class=CODE,merge=1,delta=2
    22                           	psect	text9,local,class=CODE,merge=1,delta=2
    23                           	psect	text10,local,class=CODE,merge=1,delta=2
    24                           	psect	text11,local,class=CODE,merge=1,delta=2
    25                           	psect	text12,local,class=CODE,merge=1,delta=2,group=1
    26                           	psect	text13,local,class=CODE,merge=1,delta=2,group=1
    27                           	psect	text14,local,class=CODE,merge=1,delta=2
    28                           	psect	text15,local,class=CODE,merge=1,delta=2
    29                           	psect	text16,local,class=CODE,merge=1,delta=2
    30                           	psect	text17,local,class=CODE,merge=1,delta=2
    31                           	psect	text18,local,class=CODE,merge=1,delta=2
    32                           	psect	text19,local,class=CODE,merge=1,delta=2
    33                           	psect	text20,local,class=CODE,merge=1,delta=2
    34                           	psect	text21,local,class=CODE,merge=1,delta=2,group=1
    35                           	psect	text22,local,class=CODE,merge=1,delta=2
    36                           	psect	text23,local,class=CODE,merge=1,delta=2
    37                           	psect	text24,local,class=CODE,merge=1,delta=2
    38                           	psect	text25,local,class=CODE,merge=1,delta=2
    39                           	psect	text26,local,class=CODE,merge=1,delta=2
    40                           	psect	text27,local,class=CODE,merge=1,delta=2
    41                           	psect	text28,local,class=CODE,merge=1,delta=2
    42                           	psect	text29,local,class=CODE,merge=1,delta=2
    43                           	psect	intentry,global,class=CODE,delta=2
    44                           	psect	text30,local,class=CODE,merge=1,delta=2
    45                           	psect	text31,local,class=CODE,merge=1,delta=2
    46                           	psect	text32,local,class=CODE,merge=1,delta=2
    47                           	psect	text33,local,class=CODE,merge=1,delta=2
    48                           	psect	text34,local,class=CODE,merge=1,delta=2
    49                           	psect	text35,local,class=CODE,merge=1,delta=2,group=1
    50                           	psect	config,global,abs,ovrld,class=CONFIG,space=4,delta=2,noexec
    51                           	dabs	1,0x7E,2
    52  0000                     
    53                           ; Version 2.20
    54                           ; Generated 12/02/2020 GMT
    55                           ; 
    56                           ; Copyright © 2020, Microchip Technology Inc. and its subsidiaries ("Microchip")
    57                           ; All rights reserved.
    58                           ; 
    59                           ; This software is developed by Microchip Technology Inc. and its subsidiaries ("Microch
      +                          ip").
    60                           ; 
    61                           ; Redistribution and use in source and binary forms, with or without modification, are
    62                           ; permitted provided that the following conditions are met:
    63                           ; 
    64                           ;     1. Redistributions of source code must retain the above copyright notice, this lis
      +                          t of
    65                           ;        conditions and the following disclaimer.
    66                           ; 
    67                           ;     2. Redistributions in binary form must reproduce the above copyright notice, this 
      +                          list
    68                           ;        of conditions and the following disclaimer in the documentation and/or other
    69                           ;        materials provided with the distribution.
    70                           ; 
    71                           ;     3. Microchip's name may not be used to endorse or promote products derived from th
      +                          is
    72                           ;        software without specific prior written permission.
    73                           ; 
    74                           ; THIS SOFTWARE IS PROVIDED BY MICROCHIP "AS IS" AND ANY EXPRESS OR IMPLIED WARRANTIES,
    75                           ; INCLUDING, BUT NOT LIMITED TO, THE IMPLIED WARRANTIES OF MERCHANTABILITY AND FITNESS F
      +                          OR
    76                           ; PURPOSE ARE DISCLAIMED.  IN NO EVENT SHALL MICROCHIP BE LIABLE FOR ANY DIRECT, INDIREC
      +                          T,
    77                           ; INCIDENTAL, SPECIAL, EXEMPLARY, OR CONSEQUENTIAL DAMAGES (INCLUDING BUT NOT LIMITED TO
    78                           ; PROCUREMENT OF SUBSTITUTE GOODS OR SERVICES; LOSS OF USE, DATA OR PROFITS; OR BUSINESS
    79                           ; INTERRUPTION) HOWSOEVER CAUSED AND ON ANY THEORY OF LIABILITY, WHETHER IN CONTRACT, ST
      +                          RICT
    80                           ; LIABILITY, OR TORT (INCLUDING NEGLIGENCE OR OTHERWISE) ARISING IN ANY WAY OUT OF THE U
      +                          SE OF
    81                           ; THIS SOFTWARE, EVEN IF ADVISED OF THE POSSIBILITY OF SUCH DAMAGE.
    82                           ; 
    83                           ; 
    84                           ; Code-generator required, PIC16F877A Definitions
    85                           ; 
    86                           ; SFR Addresses
    87  0000                     	;# 
    88  0001                     	;# 
    89  0002                     	;# 
    90  0003                     	;# 
    91  0004                     	;# 
    92  0005                     	;# 
    93  0006                     	;# 
    94  0007                     	;# 
    95  0008                     	;# 
    96  0009                     	;# 
    97  000A                     	;# 
    98  000B                     	;# 
    99  000C                     	;# 
   100  000D                     	;# 
   101  000E                     	;# 
   102  000E                     	;# 
   103  000F                     	;# 
   104  0010                     	;# 
   105  0011                     	;# 
   106  0012                     	;# 
   107  0013                     	;# 
   108  0014                     	;# 
   109  0015                     	;# 
   110  0015                     	;# 
   111  0016                     	;# 
   112  0017                     	;# 
   113  0018                     	;# 
   114  0019                     	;# 
   115  001A                     	;# 
   116  001B                     	;# 
   117  001B                     	;# 
   118  001C                     	;# 
   119  001D                     	;# 
   120  001E                     	;# 
   121  001F                     	;# 
   122  0081                     	;# 
   123  0085                     	;# 
   124  0086                     	;# 
   125  0087                     	;# 
   126  0088                     	;# 
   127  0089                     	;# 
   128  008C                     	;# 
   129  008D                     	;# 
   130  008E                     	;# 
   131  0091                     	;# 
   132  0092                     	;# 
   133  0093                     	;# 
   134  0094                     	;# 
   135  0098                     	;# 
   136  0099                     	;# 
   137  009C                     	;# 
   138  009D                     	;# 
   139  009E                     	;# 
   140  009F                     	;# 
   141  010C                     	;# 
   142  010D                     	;# 
   143  010E                     	;# 
   144  010F                     	;# 
   145  018C                     	;# 
   146  018D                     	;# 
   147  0000                     	;# 
   148  0001                     	;# 
   149  0002                     	;# 
   150  0003                     	;# 
   151  0004                     	;# 
   152  0005                     	;# 
   153  0006                     	;# 
   154  0007                     	;# 
   155  0008                     	;# 
   156  0009                     	;# 
   157  000A                     	;# 
   158  000B                     	;# 
   159  000C                     	;# 
   160  000D                     	;# 
   161  000E                     	;# 
   162  000E                     	;# 
   163  000F                     	;# 
   164  0010                     	;# 
   165  0011                     	;# 
   166  0012                     	;# 
   167  0013                     	;# 
   168  0014                     	;# 
   169  0015                     	;# 
   170  0015                     	;# 
   171  0016                     	;# 
   172  0017                     	;# 
   173  0018                     	;# 
   174  0019                     	;# 
   175  001A                     	;# 
   176  001B                     	;# 
   177  001B                     	;# 
   178  001C                     	;# 
   179  001D                     	;# 
   180  001E                     	;# 
   181  001F                     	;# 
   182  0081                     	;# 
   183  0085                     	;# 
   184  0086                     	;# 
   185  0087                     	;# 
   186  0088                     	;# 
   187  0089                     	;# 
   188  008C                     	;# 
   189  008D                     	;# 
   190  008E                     	;# 
   191  0091                     	;# 
   192  0092                     	;# 
   193  0093                     	;# 
   194  0094                     	;# 
   195  0098                     	;# 
   196  0099                     	;# 
   197  009C                     	;# 
   198  009D                     	;# 
   199  009E                     	;# 
   200  009F                     	;# 
   201  010C                     	;# 
   202  010D                     	;# 
   203  010E                     	;# 
   204  010F                     	;# 
   205  018C                     	;# 
   206  018D                     	;# 
   207  0000                     	;# 
   208  0001                     	;# 
   209  0002                     	;# 
   210  0003                     	;# 
   211  0004                     	;# 
   212  0005                     	;# 
   213  0006                     	;# 
   214  0007                     	;# 
   215  0008                     	;# 
   216  0009                     	;# 
   217  000A                     	;# 
   218  000B                     	;# 
   219  000C                     	;# 
   220  000D                     	;# 
   221  000E                     	;# 
   222  000E                     	;# 
   223  000F                     	;# 
   224  0010                     	;# 
   225  0011                     	;# 
   226  0012                     	;# 
   227  0013                     	;# 
   228  0014                     	;# 
   229  0015                     	;# 
   230  0015                     	;# 
   231  0016                     	;# 
   232  0017                     	;# 
   233  0018                     	;# 
   234  0019                     	;# 
   235  001A                     	;# 
   236  001B                     	;# 
   237  001B                     	;# 
   238  001C                     	;# 
   239  001D                     	;# 
   240  001E                     	;# 
   241  001F                     	;# 
   242  0081                     	;# 
   243  0085                     	;# 
   244  0086                     	;# 
   245  0087                     	;# 
   246  0088                     	;# 
   247  0089                     	;# 
   248  008C                     	;# 
   249  008D                     	;# 
   250  008E                     	;# 
   251  0091                     	;# 
   252  0092                     	;# 
   253  0093                     	;# 
   254  0094                     	;# 
   255  0098                     	;# 
   256  0099                     	;# 
   257  009C                     	;# 
   258  009D                     	;# 
   259  009E                     	;# 
   260  009F                     	;# 
   261  010C                     	;# 
   262  010D                     	;# 
   263  010E                     	;# 
   264  010F                     	;# 
   265  018C                     	;# 
   266  018D                     	;# 
   267  0000                     	;# 
   268  0001                     	;# 
   269  0002                     	;# 
   270  0003                     	;# 
   271  0004                     	;# 
   272  0005                     	;# 
   273  0006                     	;# 
   274  0007                     	;# 
   275  0008                     	;# 
   276  0009                     	;# 
   277  000A                     	;# 
   278  000B                     	;# 
   279  000C                     	;# 
   280  000D                     	;# 
   281  000E                     	;# 
   282  000E                     	;# 
   283  000F                     	;# 
   284  0010                     	;# 
   285  0011                     	;# 
   286  0012                     	;# 
   287  0013                     	;# 
   288  0014                     	;# 
   289  0015                     	;# 
   290  0015                     	;# 
   291  0016                     	;# 
   292  0017                     	;# 
   293  0018                     	;# 
   294  0019                     	;# 
   295  001A                     	;# 
   296  001B                     	;# 
   297  001B                     	;# 
   298  001C                     	;# 
   299  001D                     	;# 
   300  001E                     	;# 
   301  001F                     	;# 
   302  0081                     	;# 
   303  0085                     	;# 
   304  0086                     	;# 
   305  0087                     	;# 
   306  0088                     	;# 
   307  0089                     	;# 
   308  008C                     	;# 
   309  008D                     	;# 
   310  008E                     	;# 
   311  0091                     	;# 
   312  0092                     	;# 
   313  0093                     	;# 
   314  0094                     	;# 
   315  0098                     	;# 
   316  0099                     	;# 
   317  009C                     	;# 
   318  009D                     	;# 
   319  009E                     	;# 
   320  009F                     	;# 
   321  010C                     	;# 
   322  010D                     	;# 
   323  010E                     	;# 
   324  010F                     	;# 
   325  018C                     	;# 
   326  018D                     	;# 
   327  0000                     	;# 
   328  0001                     	;# 
   329  0002                     	;# 
   330  0003                     	;# 
   331  0004                     	;# 
   332  0005                     	;# 
   333  0006                     	;# 
   334  0007                     	;# 
   335  0008                     	;# 
   336  0009                     	;# 
   337  000A                     	;# 
   338  000B                     	;# 
   339  000C                     	;# 
   340  000D                     	;# 
   341  000E                     	;# 
   342  000E                     	;# 
   343  000F                     	;# 
   344  0010                     	;# 
   345  0011                     	;# 
   346  0012                     	;# 
   347  0013                     	;# 
   348  0014                     	;# 
   349  0015                     	;# 
   350  0015                     	;# 
   351  0016                     	;# 
   352  0017                     	;# 
   353  0018                     	;# 
   354  0019                     	;# 
   355  001A                     	;# 
   356  001B                     	;# 
   357  001B                     	;# 
   358  001C                     	;# 
   359  001D                     	;# 
   360  001E                     	;# 
   361  001F                     	;# 
   362  0081                     	;# 
   363  0085                     	;# 
   364  0086                     	;# 
   365  0087                     	;# 
   366  0088                     	;# 
   367  0089                     	;# 
   368  008C                     	;# 
   369  008D                     	;# 
   370  008E                     	;# 
   371  0091                     	;# 
   372  0092                     	;# 
   373  0093                     	;# 
   374  0094                     	;# 
   375  0098                     	;# 
   376  0099                     	;# 
   377  009C                     	;# 
   378  009D                     	;# 
   379  009E                     	;# 
   380  009F                     	;# 
   381  010C                     	;# 
   382  010D                     	;# 
   383  010E                     	;# 
   384  010F                     	;# 
   385  018C                     	;# 
   386  018D                     	;# 
   387  0000                     	;# 
   388  0001                     	;# 
   389  0002                     	;# 
   390  0003                     	;# 
   391  0004                     	;# 
   392  0005                     	;# 
   393  0006                     	;# 
   394  0007                     	;# 
   395  0008                     	;# 
   396  0009                     	;# 
   397  000A                     	;# 
   398  000B                     	;# 
   399  000C                     	;# 
   400  000D                     	;# 
   401  000E                     	;# 
   402  000E                     	;# 
   403  000F                     	;# 
   404  0010                     	;# 
   405  0011                     	;# 
   406  0012                     	;# 
   407  0013                     	;# 
   408  0014                     	;# 
   409  0015                     	;# 
   410  0015                     	;# 
   411  0016                     	;# 
   412  0017                     	;# 
   413  0018                     	;# 
   414  0019                     	;# 
   415  001A                     	;# 
   416  001B                     	;# 
   417  001B                     	;# 
   418  001C                     	;# 
   419  001D                     	;# 
   420  001E                     	;# 
   421  001F                     	;# 
   422  0081                     	;# 
   423  0085                     	;# 
   424  0086                     	;# 
   425  0087                     	;# 
   426  0088                     	;# 
   427  0089                     	;# 
   428  008C                     	;# 
   429  008D                     	;# 
   430  008E                     	;# 
   431  0091                     	;# 
   432  0092                     	;# 
   433  0093                     	;# 
   434  0094                     	;# 
   435  0098                     	;# 
   436  0099                     	;# 
   437  009C                     	;# 
   438  009D                     	;# 
   439  009E                     	;# 
   440  009F                     	;# 
   441  010C                     	;# 
   442  010D                     	;# 
   443  010E                     	;# 
   444  010F                     	;# 
   445  018C                     	;# 
   446  018D                     	;# 
   447  0000                     	;# 
   448  0001                     	;# 
   449  0002                     	;# 
   450  0003                     	;# 
   451  0004                     	;# 
   452  0005                     	;# 
   453  0006                     	;# 
   454  0007                     	;# 
   455  0008                     	;# 
   456  0009                     	;# 
   457  000A                     	;# 
   458  000B                     	;# 
   459  000C                     	;# 
   460  000D                     	;# 
   461  000E                     	;# 
   462  000E                     	;# 
   463  000F                     	;# 
   464  0010                     	;# 
   465  0011                     	;# 
   466  0012                     	;# 
   467  0013                     	;# 
   468  0014                     	;# 
   469  0015                     	;# 
   470  0015                     	;# 
   471  0016                     	;# 
   472  0017                     	;# 
   473  0018                     	;# 
   474  0019                     	;# 
   475  001A                     	;# 
   476  001B                     	;# 
   477  001B                     	;# 
   478  001C                     	;# 
   479  001D                     	;# 
   480  001E                     	;# 
   481  001F                     	;# 
   482  0081                     	;# 
   483  0085                     	;# 
   484  0086                     	;# 
   485  0087                     	;# 
   486  0088                     	;# 
   487  0089                     	;# 
   488  008C                     	;# 
   489  008D                     	;# 
   490  008E                     	;# 
   491  0091                     	;# 
   492  0092                     	;# 
   493  0093                     	;# 
   494  0094                     	;# 
   495  0098                     	;# 
   496  0099                     	;# 
   497  009C                     	;# 
   498  009D                     	;# 
   499  009E                     	;# 
   500  009F                     	;# 
   501  010C                     	;# 
   502  010D                     	;# 
   503  010E                     	;# 
   504  010F                     	;# 
   505  018C                     	;# 
   506  018D                     	;# 
   507  0000                     	;# 
   508  0001                     	;# 
   509  0002                     	;# 
   510  0003                     	;# 
   511  0004                     	;# 
   512  0005                     	;# 
   513  0006                     	;# 
   514  0007                     	;# 
   515  0008                     	;# 
   516  0009                     	;# 
   517  000A                     	;# 
   518  000B                     	;# 
   519  000C                     	;# 
   520  000D                     	;# 
   521  000E                     	;# 
   522  000E                     	;# 
   523  000F                     	;# 
   524  0010                     	;# 
   525  0011                     	;# 
   526  0012                     	;# 
   527  0013                     	;# 
   528  0014                     	;# 
   529  0015                     	;# 
   530  0015                     	;# 
   531  0016                     	;# 
   532  0017                     	;# 
   533  0018                     	;# 
   534  0019                     	;# 
   535  001A                     	;# 
   536  001B                     	;# 
   537  001B                     	;# 
   538  001C                     	;# 
   539  001D                     	;# 
   540  001E                     	;# 
   541  001F                     	;# 
   542  0081                     	;# 
   543  0085                     	;# 
   544  0086                     	;# 
   545  0087                     	;# 
   546  0088                     	;# 
   547  0089                     	;# 
   548  008C                     	;# 
   549  008D                     	;# 
   550  008E                     	;# 
   551  0091                     	;# 
   552  0092                     	;# 
   553  0093                     	;# 
   554  0094                     	;# 
   555  0098                     	;# 
   556  0099                     	;# 
   557  009C                     	;# 
   558  009D                     	;# 
   559  009E                     	;# 
   560  009F                     	;# 
   561  010C                     	;# 
   562  010D                     	;# 
   563  010E                     	;# 
   564  010F                     	;# 
   565  018C                     	;# 
   566  018D                     	;# 
   567  0000                     	;# 
   568  0001                     	;# 
   569  0002                     	;# 
   570  0003                     	;# 
   571  0004                     	;# 
   572  0005                     	;# 
   573  0006                     	;# 
   574  0007                     	;# 
   575  0008                     	;# 
   576  0009                     	;# 
   577  000A                     	;# 
   578  000B                     	;# 
   579  000C                     	;# 
   580  000D                     	;# 
   581  000E                     	;# 
   582  000E                     	;# 
   583  000F                     	;# 
   584  0010                     	;# 
   585  0011                     	;# 
   586  0012                     	;# 
   587  0013                     	;# 
   588  0014                     	;# 
   589  0015                     	;# 
   590  0015                     	;# 
   591  0016                     	;# 
   592  0017                     	;# 
   593  0018                     	;# 
   594  0019                     	;# 
   595  001A                     	;# 
   596  001B                     	;# 
   597  001B                     	;# 
   598  001C                     	;# 
   599  001D                     	;# 
   600  001E                     	;# 
   601  001F                     	;# 
   602  0081                     	;# 
   603  0085                     	;# 
   604  0086                     	;# 
   605  0087                     	;# 
   606  0088                     	;# 
   607  0089                     	;# 
   608  008C                     	;# 
   609  008D                     	;# 
   610  008E                     	;# 
   611  0091                     	;# 
   612  0092                     	;# 
   613  0093                     	;# 
   614  0094                     	;# 
   615  0098                     	;# 
   616  0099                     	;# 
   617  009C                     	;# 
   618  009D                     	;# 
   619  009E                     	;# 
   620  009F                     	;# 
   621  010C                     	;# 
   622  010D                     	;# 
   623  010E                     	;# 
   624  010F                     	;# 
   625  018C                     	;# 
   626  018D                     	;# 
   627                           
   628                           	psect	idataBANK0
   629  07F2                     __pidataBANK0:
   630                           
   631                           ;initializer for _segments_code
   632  07F2  34BF               	retlw	191
   633  07F3  3406               	retlw	6
   634  07F4  345B               	retlw	91
   635  07F5  344F               	retlw	79
   636  07F6  3466               	retlw	102
   637  07F7  346D               	retlw	109
   638  07F8  347D               	retlw	125
   639  07F9  3407               	retlw	7
   640  07FA  34FF               	retlw	255
   641  07FB  346F               	retlw	111
   642                           
   643                           ;initializer for _TargetTempreture
   644  07FC  343C               	retlw	60
   645  07FD  3400               	retlw	0
   646                           
   647                           ;initializer for flashDisplay@prev_status
   648  07FE  3401               	retlw	1
   649                           
   650                           	psect	nvBANK0
   651  005D                     __pnvBANK0:
   652  005D                     _canuse:
   653  005D                     	ds	1
   654  005E                     _state:
   655  005E                     	ds	1
   656  000E                     _TMR1	set	14
   657  0013                     _SSPBUF	set	19
   658  0014                     _SSPCON	set	20
   659  001E                     _ADRESH	set	30
   660  001F                     _ADCON0bits	set	31
   661  001F                     _ADCON0	set	31
   662  0005                     _PORTAbits	set	5
   663  0006                     _PORTBbits	set	6
   664  0006                     _PORTB	set	6
   665  0008                     _PORTD	set	8
   666  005E                     _PEIE	set	94
   667  0085                     _T1CKPS1	set	133
   668  0084                     _T1CKPS0	set	132
   669  0081                     _TMR1CS	set	129
   670  0063                     _SSPIF	set	99
   671  005F                     _GIE	set	95
   672  005C                     _INTE	set	92
   673  0035                     _RB5	set	53
   674  0060                     _TMR1IF	set	96
   675  0059                     _INTF	set	89
   676  0080                     _TMR1ON	set	128
   677  003D                     _RC5	set	61
   678  003A                     _RC2	set	58
   679  0094                     _SSPSTAT	set	148
   680  0093                     _SSPADD	set	147
   681  0091                     _SSPCON2	set	145
   682  009E                     _ADRESL	set	158
   683  009F                     _ADCON1	set	159
   684  0086                     _TRISB	set	134
   685  0088                     _TRISD	set	136
   686  0085                     _TRISA	set	133
   687  0460                     _TMR1IE	set	1120
   688  048C                     _ACKEN	set	1164
   689  048D                     _ACKDT	set	1165
   690  048B                     _RCEN	set	1163
   691  048E                     _ACKSTAT	set	1166
   692  048A                     _PEN	set	1162
   693  0489                     _RSEN	set	1161
   694  0488                     _SEN	set	1160
   695  043C                     _TRISC4	set	1084
   696  043B                     _TRISC3	set	1083
   697  040E                     _INTEDG	set	1038
   698  043A                     _TRISC2	set	1082
   699  043D                     _TRISC5	set	1085
   700                           
   701                           	psect	cinit
   702  0015                     start_initialization:	
   703                           ; #config settings
   704                           
   705  0015                     __initialization:
   706                           
   707                           ; Initialize objects allocated to BANK0
   708  0015  1383               	bcf	3,7	;select IRP bank0
   709  0016  3053               	movlw	low (__pdataBANK0+13)
   710  0017  00FD               	movwf	btemp+-1
   711  0018  3007               	movlw	high __pidataBANK0
   712  0019  00FE               	movwf	btemp
   713  001A  30F2               	movlw	low __pidataBANK0
   714  001B  00FF               	movwf	btemp+1
   715  001C  3046               	movlw	low __pdataBANK0
   716  001D  0084               	movwf	4
   717  001E  120A  158A  27F1  120A  118A  	fcall	init_ram0
   718                           
   719                           ; Clear objects allocated to BANK0
   720  0023  01D3               	clrf	__pbssBANK0& (0+127)
   721  0024  01D4               	clrf	(__pbssBANK0+1)& (0+127)
   722  0025  01D5               	clrf	(__pbssBANK0+2)& (0+127)
   723  0026  01D6               	clrf	(__pbssBANK0+3)& (0+127)
   724  0027  01D7               	clrf	(__pbssBANK0+4)& (0+127)
   725  0028  01D8               	clrf	(__pbssBANK0+5)& (0+127)
   726  0029  01D9               	clrf	(__pbssBANK0+6)& (0+127)
   727  002A  01DA               	clrf	(__pbssBANK0+7)& (0+127)
   728  002B  01DB               	clrf	(__pbssBANK0+8)& (0+127)
   729  002C  01DC               	clrf	(__pbssBANK0+9)& (0+127)
   730  002D                     end_of_initialization:	
   731                           ;End of C runtime variable initialization code
   732                           
   733  002D                     __end_of__initialization:
   734  002D  0183               	clrf	3
   735  002E  120A  118A  2954   	ljmp	_main	;jump to C main() function
   736                           
   737                           	psect	bssBANK0
   738  0053                     __pbssBANK0:
   739  0053                     _accumilated_tmeperature:
   740  0053                     	ds	2
   741  0055                     _TEMPRETURE:
   742  0055                     	ds	2
   743  0057                     flashDisplay@count:
   744  0057                     	ds	1
   745  0058                     _timer1counter:
   746  0058                     	ds	1
   747  0059                     _Number_Tempreture:
   748  0059                     	ds	1
   749  005A                     _temp_state:
   750  005A                     	ds	1
   751  005B                     _str:
   752  005B                     	ds	2
   753                           
   754                           	psect	dataBANK0
   755  0046                     __pdataBANK0:
   756  0046                     _segments_code:
   757  0046                     	ds	10
   758  0050                     _TargetTempreture:
   759  0050                     	ds	2
   760  0052                     flashDisplay@prev_status:
   761  0052                     	ds	1
   762                           
   763                           	psect	inittext
   764  0FED                     init_fetch0:	
   765                           ;	Called with low address in FSR and high address in W
   766                           
   767  0FED  087E               	movf	btemp,w
   768  0FEE  008A               	movwf	10
   769  0FEF  087F               	movf	btemp+1,w
   770  0FF0  0082               	movwf	2
   771  0FF1                     init_ram0:	
   772                           ;Called with:
   773                           ;	high address of idata address in btemp 
   774                           ;	low address of idata address in btemp+1 
   775                           ;	low address of data in FSR
   776                           ;	high address + 1 of data in btemp-1
   777                           
   778  0FF1  120A  158A  27ED  120A  158A  	fcall	init_fetch0
   779  0FF6  0080               	movwf	0
   780  0FF7  0A84               	incf	4,f
   781  0FF8  0804               	movf	4,w
   782  0FF9  067D               	xorwf	btemp+-1,w
   783  0FFA  1903               	btfsc	3,2
   784  0FFB  3400               	retlw	0
   785  0FFC  0AFF               	incf	btemp+1,f
   786  0FFD  1903               	btfsc	3,2
   787  0FFE  0AFE               	incf	btemp,f
   788  0FFF  2FF1               	goto	init_ram0
   789                           
   790                           	psect	cstackBANK1
   791  00A0                     __pcstackBANK1:
   792  00A0                     ??_I2C_Master_Init:
   793                           
   794                           ; 1 bytes @ 0x0
   795  00A0                     	ds	4
   796  00A4                     ??_main:
   797                           
   798                           ; 1 bytes @ 0x4
   799  00A4                     	ds	3
   800                           
   801                           	psect	cstackCOMMON
   802  0070                     __pcstackCOMMON:
   803  0070                     ?_TIMER1_init:
   804  0070                     ?_IRQ_RB0_init:	
   805                           ; 1 bytes @ 0x0
   806                           
   807  0070                     ?_adc_init:	
   808                           ; 1 bytes @ 0x0
   809                           
   810  0070                     ?_on_state:	
   811                           ; 1 bytes @ 0x0
   812                           
   813  0070                     ?_off_state:	
   814                           ; 1 bytes @ 0x0
   815                           
   816  0070                     ?_setting_state:	
   817                           ; 1 bytes @ 0x0
   818                           
   819  0070                     ?_flashDisplay:	
   820                           ; 1 bytes @ 0x0
   821                           
   822  0070                     ?_changeStatus:	
   823                           ; 1 bytes @ 0x0
   824                           
   825  0070                     ?_heaterOn:	
   826                           ; 1 bytes @ 0x0
   827                           
   828  0070                     ?_coolerOn:	
   829                           ; 1 bytes @ 0x0
   830                           
   831  0070                     ?_main:	
   832                           ; 1 bytes @ 0x0
   833                           
   834  0070                     ?_update_tempreture:	
   835                           ; 1 bytes @ 0x0
   836                           
   837  0070                     ?_ISR:	
   838                           ; 1 bytes @ 0x0
   839                           
   840  0070                     ?_lcd_writeNumber:	
   841                           ; 1 bytes @ 0x0
   842                           
   843  0070                     ?_I2C_Master_Wait:	
   844                           ; 1 bytes @ 0x0
   845                           
   846  0070                     ?_I2C_Master_Start:	
   847                           ; 1 bytes @ 0x0
   848                           
   849  0070                     ?_I2C_Master_RepeatedStart:	
   850                           ; 1 bytes @ 0x0
   851                           
   852  0070                     ?_I2C_Master_Stop:	
   853                           ; 1 bytes @ 0x0
   854                           
   855  0070                     ?_I2C_Master_Write:	
   856                           ; 1 bytes @ 0x0
   857                           
   858  0070                     ?_I2C_Read_Byte:	
   859                           ; 1 bytes @ 0x0
   860                           
   861  0070                     ?_I2C_NACK:	
   862                           ; 1 bytes @ 0x0
   863                           
   864  0070                     ?_adc_amostra:	
   865                           ; 1 bytes @ 0x0
   866                           
   867  0070                     ?i1___lwmod:	
   868                           ; 2 bytes @ 0x0
   869                           
   870  0070                     i1___lwmod@divisor:	
   871                           ; 2 bytes @ 0x0
   872                           
   873                           
   874                           ; 2 bytes @ 0x0
   875  0070                     	ds	2
   876  0072                     ??_adc_amostra:
   877  0072                     i1___lwmod@dividend:	
   878                           ; 1 bytes @ 0x2
   879                           
   880                           
   881                           ; 2 bytes @ 0x2
   882  0072                     	ds	2
   883  0074                     ??i1___lwmod:
   884  0074                     i1___lwmod@counter:	
   885                           ; 1 bytes @ 0x4
   886                           
   887                           
   888                           ; 1 bytes @ 0x4
   889  0074                     	ds	1
   890  0075                     ?i1___lwdiv:
   891  0075                     i1___lwdiv@divisor:	
   892                           ; 2 bytes @ 0x5
   893                           
   894                           
   895                           ; 2 bytes @ 0x5
   896  0075                     	ds	2
   897  0077                     i1___lwdiv@dividend:
   898                           
   899                           ; 2 bytes @ 0x7
   900  0077                     	ds	2
   901  0079                     ??i1___lwdiv:
   902  0079                     adc_amostra@canal:	
   903                           ; 1 bytes @ 0x9
   904                           
   905  0079                     i1___lwdiv@quotient:	
   906                           ; 1 bytes @ 0x9
   907                           
   908                           
   909                           ; 2 bytes @ 0x9
   910  0079                     	ds	1
   911  007A                     ?___wmul:
   912  007A                     ___wmul@multiplier:	
   913                           ; 2 bytes @ 0xA
   914                           
   915                           
   916                           ; 2 bytes @ 0xA
   917  007A                     	ds	1
   918  007B                     i1___lwdiv@counter:
   919                           
   920                           ; 1 bytes @ 0xB
   921  007B                     	ds	1
   922  007C                     ??_convertADCReadings:
   923  007C                     ___wmul@multiplicand:	
   924                           ; 1 bytes @ 0xC
   925                           
   926                           
   927                           ; 2 bytes @ 0xC
   928  007C                     	ds	2
   929  007E                     ??___wmul:
   930                           
   931                           	psect	cstackBANK0
   932  0020                     __pcstackBANK0:	
   933                           ; 1 bytes @ 0xE
   934                           
   935  0020                     ?_convertADCReadings:
   936  0020                     convertADCReadings@val:	
   937                           ; 1 bytes @ 0x0
   938                           
   939  0020                     ___wmul@product:	
   940                           ; 2 bytes @ 0x0
   941                           
   942                           
   943                           ; 2 bytes @ 0x0
   944  0020                     	ds	2
   945  0022                     convertADCReadings@str:
   946                           
   947                           ; 1 bytes @ 0x2
   948  0022                     	ds	1
   949  0023                     ??_update_tempreture:
   950                           
   951                           ; 1 bytes @ 0x3
   952  0023                     	ds	4
   953  0027                     update_tempreture@temp:
   954                           
   955                           ; 2 bytes @ 0x7
   956  0027                     	ds	2
   957  0029                     update_tempreture@y:
   958                           
   959                           ; 1 bytes @ 0x9
   960  0029                     	ds	1
   961  002A                     update_tempreture@x:
   962                           
   963                           ; 1 bytes @ 0xA
   964  002A                     	ds	1
   965  002B                     ??_ISR:
   966                           
   967                           ; 1 bytes @ 0xB
   968  002B                     	ds	6
   969  0031                     ??_TIMER1_init:
   970  0031                     ??_IRQ_RB0_init:	
   971                           ; 1 bytes @ 0x11
   972                           
   973  0031                     ??_adc_init:	
   974                           ; 1 bytes @ 0x11
   975                           
   976  0031                     ??_off_state:	
   977                           ; 1 bytes @ 0x11
   978                           
   979  0031                     ??_changeStatus:	
   980                           ; 1 bytes @ 0x11
   981                           
   982  0031                     ??_heaterOn:	
   983                           ; 1 bytes @ 0x11
   984                           
   985  0031                     ??_coolerOn:	
   986                           ; 1 bytes @ 0x11
   987                           
   988  0031                     ??_lcd_writeNumber:	
   989                           ; 1 bytes @ 0x11
   990                           
   991  0031                     ??_I2C_Master_Wait:	
   992                           ; 1 bytes @ 0x11
   993                           
   994  0031                     ??_I2C_Master_Start:	
   995                           ; 1 bytes @ 0x11
   996                           
   997  0031                     ??_I2C_Master_RepeatedStart:	
   998                           ; 1 bytes @ 0x11
   999                           
  1000  0031                     ??_I2C_Master_Stop:	
  1001                           ; 1 bytes @ 0x11
  1002                           
  1003  0031                     ??_I2C_Master_Write:	
  1004                           ; 1 bytes @ 0x11
  1005                           
  1006  0031                     ??_I2C_Read_Byte:	
  1007                           ; 1 bytes @ 0x11
  1008                           
  1009  0031                     ??_I2C_NACK:	
  1010                           ; 1 bytes @ 0x11
  1011                           
  1012  0031                     ?___awdiv:	
  1013                           ; 1 bytes @ 0x11
  1014                           
  1015  0031                     ?___awmod:	
  1016                           ; 2 bytes @ 0x11
  1017                           
  1018  0031                     ?___lwdiv:	
  1019                           ; 2 bytes @ 0x11
  1020                           
  1021  0031                     ?___lwmod:	
  1022                           ; 2 bytes @ 0x11
  1023                           
  1024  0031                     ?___lldiv:	
  1025                           ; 2 bytes @ 0x11
  1026                           
  1027  0031                     lcd_writeNumber@code:	
  1028                           ; 4 bytes @ 0x11
  1029                           
  1030  0031                     I2C_Master_Write@data:	
  1031                           ; 1 bytes @ 0x11
  1032                           
  1033  0031                     ___awdiv@divisor:	
  1034                           ; 1 bytes @ 0x11
  1035                           
  1036  0031                     ___awmod@divisor:	
  1037                           ; 2 bytes @ 0x11
  1038                           
  1039  0031                     ___lwdiv@divisor:	
  1040                           ; 2 bytes @ 0x11
  1041                           
  1042  0031                     ___lwmod@divisor:	
  1043                           ; 2 bytes @ 0x11
  1044                           
  1045  0031                     ___lldiv@divisor:	
  1046                           ; 2 bytes @ 0x11
  1047                           
  1048                           
  1049                           ; 4 bytes @ 0x11
  1050  0031                     	ds	1
  1051  0032                     ?_EEPROM_Read:
  1052  0032                     ?_EEPROM_Write:	
  1053                           ; 1 bytes @ 0x12
  1054                           
  1055  0032                     lcd_writeNumber@number:	
  1056                           ; 1 bytes @ 0x12
  1057                           
  1058  0032                     EEPROM_Write@data:	
  1059                           ; 1 bytes @ 0x12
  1060                           
  1061  0032                     EEPROM_Read@add:	
  1062                           ; 1 bytes @ 0x12
  1063                           
  1064                           
  1065                           ; 2 bytes @ 0x12
  1066  0032                     	ds	1
  1067  0033                     ??_EEPROM_Write:
  1068  0033                     EEPROM_Write@add:	
  1069                           ; 1 bytes @ 0x13
  1070                           
  1071  0033                     ___awdiv@dividend:	
  1072                           ; 1 bytes @ 0x13
  1073                           
  1074  0033                     ___awmod@dividend:	
  1075                           ; 2 bytes @ 0x13
  1076                           
  1077  0033                     ___lwdiv@dividend:	
  1078                           ; 2 bytes @ 0x13
  1079                           
  1080  0033                     ___lwmod@dividend:	
  1081                           ; 2 bytes @ 0x13
  1082                           
  1083                           
  1084                           ; 2 bytes @ 0x13
  1085  0033                     	ds	1
  1086  0034                     ??_EEPROM_Read:
  1087  0034                     EEPROM_Read@Data:	
  1088                           ; 1 bytes @ 0x14
  1089                           
  1090                           
  1091                           ; 1 bytes @ 0x14
  1092  0034                     	ds	1
  1093  0035                     ??___awdiv:
  1094  0035                     ??___awmod:	
  1095                           ; 1 bytes @ 0x15
  1096                           
  1097  0035                     ??___lwdiv:	
  1098                           ; 1 bytes @ 0x15
  1099                           
  1100  0035                     ??___lwmod:	
  1101                           ; 1 bytes @ 0x15
  1102                           
  1103  0035                     ___awdiv@counter:	
  1104                           ; 1 bytes @ 0x15
  1105                           
  1106  0035                     ___awmod@counter:	
  1107                           ; 1 bytes @ 0x15
  1108                           
  1109  0035                     ___lwmod@counter:	
  1110                           ; 1 bytes @ 0x15
  1111                           
  1112  0035                     ___lwdiv@quotient:	
  1113                           ; 1 bytes @ 0x15
  1114                           
  1115  0035                     ___lldiv@dividend:	
  1116                           ; 2 bytes @ 0x15
  1117                           
  1118                           
  1119                           ; 4 bytes @ 0x15
  1120  0035                     	ds	1
  1121  0036                     ___awdiv@sign:
  1122  0036                     ___awmod@sign:	
  1123                           ; 1 bytes @ 0x16
  1124                           
  1125                           
  1126                           ; 1 bytes @ 0x16
  1127  0036                     	ds	1
  1128  0037                     ___lwdiv@counter:
  1129  0037                     ___awdiv@quotient:	
  1130                           ; 1 bytes @ 0x17
  1131                           
  1132                           
  1133                           ; 2 bytes @ 0x17
  1134  0037                     	ds	1
  1135  0038                     ?_displayTempreture:
  1136  0038                     displayTempreture@TEMPRETURE:	
  1137                           ; 1 bytes @ 0x18
  1138                           
  1139                           
  1140                           ; 2 bytes @ 0x18
  1141  0038                     	ds	1
  1142  0039                     ?_displayDeiredTempreture:
  1143  0039                     ??___lldiv:	
  1144                           ; 1 bytes @ 0x19
  1145                           
  1146  0039                     displayDeiredTempreture@TargetTempreture:	
  1147                           ; 1 bytes @ 0x19
  1148                           
  1149                           
  1150                           ; 2 bytes @ 0x19
  1151  0039                     	ds	1
  1152  003A                     ??_displayTempreture:
  1153  003A                     ___lldiv@quotient:	
  1154                           ; 1 bytes @ 0x1A
  1155                           
  1156                           
  1157                           ; 4 bytes @ 0x1A
  1158  003A                     	ds	1
  1159  003B                     ??_displayDeiredTempreture:
  1160                           
  1161                           ; 1 bytes @ 0x1B
  1162  003B                     	ds	1
  1163  003C                     displayTempreture@low:
  1164                           
  1165                           ; 1 bytes @ 0x1C
  1166  003C                     	ds	1
  1167  003D                     displayTempreture@high:
  1168  003D                     displayDeiredTempreture@low:	
  1169                           ; 1 bytes @ 0x1D
  1170                           
  1171                           
  1172                           ; 1 bytes @ 0x1D
  1173  003D                     	ds	1
  1174  003E                     ??_on_state:
  1175  003E                     displayDeiredTempreture@high:	
  1176                           ; 1 bytes @ 0x1E
  1177                           
  1178  003E                     ___lldiv@counter:	
  1179                           ; 1 bytes @ 0x1E
  1180                           
  1181                           
  1182                           ; 1 bytes @ 0x1E
  1183  003E                     	ds	1
  1184  003F                     ?_I2C_Master_Init:
  1185  003F                     ??_flashDisplay:	
  1186                           ; 1 bytes @ 0x1F
  1187                           
  1188  003F                     I2C_Master_Init@baud:	
  1189                           ; 1 bytes @ 0x1F
  1190                           
  1191                           
  1192                           ; 4 bytes @ 0x1F
  1193  003F                     	ds	2
  1194  0041                     flashDisplay@i:
  1195                           
  1196                           ; 2 bytes @ 0x21
  1197  0041                     	ds	2
  1198  0043                     flashDisplay@i_218:
  1199                           
  1200                           ; 2 bytes @ 0x23
  1201  0043                     	ds	2
  1202  0045                     ??_setting_state:
  1203  0045                     main@flag:	
  1204                           ; 1 bytes @ 0x25
  1205                           
  1206                           
  1207                           ; 1 bytes @ 0x25
  1208  0045                     	ds	1
  1209                           
  1210                           	psect	maintext
  1211  0154                     __pmaintext:	
  1212 ;;
  1213 ;;Main: autosize = 0, tempsize = 3, incstack = 0, save=0
  1214 ;;
  1215 ;; *************** function _main *****************
  1216 ;; Defined at:
  1217 ;;		line 77 in file "main.c"
  1218 ;; Parameters:    Size  Location     Type
  1219 ;;		None
  1220 ;; Auto vars:     Size  Location     Type
  1221 ;;  flag            1   37[BANK0 ] unsigned char 
  1222 ;; Return value:  Size  Location     Type
  1223 ;;                  1    wreg      void 
  1224 ;; Registers used:
  1225 ;;		wreg, fsr0l, fsr0h, status,2, status,0, btemp+1, pclath, cstack
  1226 ;; Tracked objects:
  1227 ;;		On entry : B00/0
  1228 ;;		On exit  : 0/0
  1229 ;;		Unchanged: 0/0
  1230 ;; Data sizes:     COMMON   BANK0   BANK1   BANK3   BANK2
  1231 ;;      Params:         0       0       0       0       0
  1232 ;;      Locals:         0       1       0       0       0
  1233 ;;      Temps:          0       0       3       0       0
  1234 ;;      Totals:         0       1       3       0       0
  1235 ;;Total ram usage:        4 bytes
  1236 ;; Hardware stack levels required when called:    9
  1237 ;; This function calls:
  1238 ;;		_EEPROM_Read
  1239 ;;		_EEPROM_Write
  1240 ;;		_I2C_Master_Init
  1241 ;;		_IRQ_RB0_init
  1242 ;;		_TIMER1_init
  1243 ;;		_adc_init
  1244 ;;		_off_state
  1245 ;;		_on_state
  1246 ;;		_setting_state
  1247 ;; This function is called by:
  1248 ;;		Startup code after reset
  1249 ;; This function uses a non-reentrant model
  1250 ;;
  1251                           
  1252                           
  1253                           ;psect for function _main
  1254  0154                     _main:
  1255  0154                     l2445:	
  1256                           ;incstack = 0
  1257 ;; hardware stack exceeded
  1258                           ; Regs used in _main: [wreg-fsr0h+status,2+status,0+btemp+1+pclath+cstack]
  1259                           
  1260                           
  1261                           ;main.c: 78:     TIMER1_init ();
  1262  0154  120A  158A  27DC  120A  118A  	fcall	_TIMER1_init
  1263                           
  1264                           ;main.c: 79:     IRQ_RB0_init ();
  1265  0159  120A  158A  278E  120A  118A  	fcall	_IRQ_RB0_init
  1266  015E                     l2447:
  1267                           
  1268                           ;main.c: 80:     I2C_Master_Init(100000);
  1269  015E  3000               	movlw	0
  1270  015F  1283               	bcf	3,5	;RP0=0, select bank0
  1271  0160  1303               	bcf	3,6	;RP1=0, select bank0
  1272  0161  00C2               	movwf	I2C_Master_Init@baud+3
  1273  0162  3001               	movlw	1
  1274  0163  00C1               	movwf	I2C_Master_Init@baud+2
  1275  0164  3086               	movlw	134
  1276  0165  00C0               	movwf	I2C_Master_Init@baud+1
  1277  0166  30A0               	movlw	160
  1278  0167  00BF               	movwf	I2C_Master_Init@baud
  1279  0168  120A  118A  2404  120A  118A  	fcall	_I2C_Master_Init
  1280  016D                     l2449:
  1281                           
  1282                           ;main.c: 83:     TRISA = 0x07;
  1283  016D  3007               	movlw	7
  1284  016E  1683               	bsf	3,5	;RP0=1, select bank1
  1285  016F  1303               	bcf	3,6	;RP1=0, select bank1
  1286  0170  0085               	movwf	5	;volatile
  1287  0171                     l2451:
  1288                           
  1289                           ;main.c: 85:     TRISD = 0x00;
  1290  0171  0188               	clrf	8	;volatile
  1291  0172                     l2453:
  1292                           
  1293                           ;main.c: 87:     PORTD = 0x00;
  1294  0172  1283               	bcf	3,5	;RP0=0, select bank0
  1295  0173  1303               	bcf	3,6	;RP1=0, select bank0
  1296  0174  0188               	clrf	8	;volatile
  1297  0175                     l2455:
  1298                           
  1299                           ;main.c: 89:     TRISC5 = 0;
  1300  0175  1683               	bsf	3,5	;RP0=1, select bank1
  1301  0176  1303               	bcf	3,6	;RP1=0, select bank1
  1302  0177  1287               	bcf	7,5	;volatile
  1303  0178                     l2457:
  1304                           
  1305                           ;main.c: 90:     TRISC2 = 0;
  1306  0178  1107               	bcf	7,2	;volatile
  1307  0179                     l2459:
  1308                           
  1309                           ;main.c: 91:     RC2 = 0;
  1310  0179  1283               	bcf	3,5	;RP0=0, select bank0
  1311  017A  1303               	bcf	3,6	;RP1=0, select bank0
  1312  017B  1107               	bcf	7,2	;volatile
  1313  017C                     l2461:
  1314                           
  1315                           ;main.c: 92:     RC5 = 0;
  1316  017C  1287               	bcf	7,5	;volatile
  1317  017D                     l2463:
  1318                           
  1319                           ;main.c: 93:     TRISB = 0x19;
  1320  017D  3019               	movlw	25
  1321  017E  1683               	bsf	3,5	;RP0=1, select bank1
  1322  017F  1303               	bcf	3,6	;RP1=0, select bank1
  1323  0180  0086               	movwf	6	;volatile
  1324  0181                     l2465:
  1325                           
  1326                           ;main.c: 94:     PORTB = 0x00;
  1327  0181  1283               	bcf	3,5	;RP0=0, select bank0
  1328  0182  1303               	bcf	3,6	;RP1=0, select bank0
  1329  0183  0186               	clrf	6	;volatile
  1330  0184                     l2467:
  1331                           
  1332                           ;main.c: 95:     Number_Tempreture=0;
  1333  0184  01D9               	clrf	_Number_Tempreture
  1334  0185                     l2469:
  1335                           
  1336                           ;main.c: 96:     canuse= 1;
  1337  0185  01DD               	clrf	_canuse
  1338  0186  0ADD               	incf	_canuse,f
  1339  0187                     l2471:
  1340                           
  1341                           ;main.c: 97:     adc_init();
  1342  0187  120A  158A  27A6  120A  118A  	fcall	_adc_init
  1343  018C                     l2473:
  1344                           
  1345                           ;main.c: 98:     state=OFF_STATE;
  1346  018C  1283               	bcf	3,5	;RP0=0, select bank0
  1347  018D  1303               	bcf	3,6	;RP1=0, select bank0
  1348  018E  01DE               	clrf	_state
  1349  018F  0ADE               	incf	_state,f
  1350  0190                     l2475:
  1351                           
  1352                           ;main.c: 99:     temp_state=OK_state;
  1353  0190  01DA               	clrf	_temp_state
  1354  0191                     l2477:
  1355                           
  1356                           ;main.c: 101:     timer1counter=0;
  1357  0191  01D8               	clrf	_timer1counter
  1358  0192                     l2479:
  1359                           
  1360                           ;main.c: 102:     accumilated_tmeperature=0;
  1361  0192  01D3               	clrf	_accumilated_tmeperature
  1362  0193  01D4               	clrf	_accumilated_tmeperature+1
  1363  0194                     l2481:
  1364                           
  1365                           ;main.c: 103:     TargetTempreture = 60;
  1366  0194  303C               	movlw	60
  1367  0195  00D0               	movwf	_TargetTempreture
  1368  0196  3000               	movlw	0
  1369  0197  00D1               	movwf	_TargetTempreture+1
  1370  0198                     l2483:
  1371                           
  1372                           ;main.c: 104:     unsigned char flag=EEPROM_Read(0x01);
  1373  0198  3001               	movlw	1
  1374  0199  00B2               	movwf	EEPROM_Read@add
  1375  019A  3000               	movlw	0
  1376  019B  00B3               	movwf	EEPROM_Read@add+1
  1377  019C  120A  118A  271E  120A  118A  	fcall	_EEPROM_Read
  1378  01A1  00FF               	movwf	btemp+1
  1379  01A2  087F               	movf	btemp+1,w
  1380  01A3  1283               	bcf	3,5	;RP0=0, select bank0
  1381  01A4  1303               	bcf	3,6	;RP1=0, select bank0
  1382  01A5  00C5               	movwf	main@flag
  1383  01A6                     l2485:
  1384                           
  1385                           ;main.c: 105:     _delay((unsigned long)((500)*(8000000/4000.0)));
  1386  01A6  3006               	movlw	6
  1387  01A7  1683               	bsf	3,5	;RP0=1, select bank1
  1388  01A8  1303               	bcf	3,6	;RP1=0, select bank1
  1389  01A9  00A6               	movwf	(??_main^(0+128)+2)
  1390  01AA  3013               	movlw	19
  1391  01AB  00A5               	movwf	(??_main^(0+128)+1)
  1392  01AC  30AD               	movlw	173
  1393  01AD  00A4               	movwf	??_main^(0+128)
  1394  01AE                     u2027:
  1395  01AE  0BA4               	decfsz	??_main^(0+128),f
  1396  01AF  29AE               	goto	u2027
  1397  01B0  0BA5               	decfsz	(??_main^(0+128)+1),f
  1398  01B1  29AE               	goto	u2027
  1399  01B2  0BA6               	decfsz	(??_main^(0+128)+2),f
  1400  01B3  29AE               	goto	u2027
  1401  01B4                     l2487:
  1402                           
  1403                           ;main.c: 106:     if(flag==1)
  1404  01B4  1283               	bcf	3,5	;RP0=0, select bank0
  1405  01B5  1303               	bcf	3,6	;RP1=0, select bank0
  1406  01B6  0345               	decf	main@flag,w
  1407  01B7  1D03               	btfss	3,2
  1408  01B8  29BA               	goto	u2011
  1409  01B9  29BB               	goto	u2010
  1410  01BA                     u2011:
  1411  01BA  29D2               	goto	l2491
  1412  01BB                     u2010:
  1413  01BB                     l2489:
  1414                           
  1415                           ;main.c: 107:     {;main.c: 108:         TargetTempreture=EEPROM_Read(0x00);
  1416  01BB  3000               	movlw	0
  1417  01BC  00B2               	movwf	EEPROM_Read@add
  1418  01BD  00B3               	movwf	EEPROM_Read@add+1
  1419  01BE  120A  118A  271E  120A  118A  	fcall	_EEPROM_Read
  1420  01C3  1683               	bsf	3,5	;RP0=1, select bank1
  1421  01C4  1303               	bcf	3,6	;RP1=0, select bank1
  1422  01C5  00A4               	movwf	??_main^(0+128)
  1423  01C6  01A5               	clrf	(??_main^(0+128)+1)
  1424  01C7  0824               	movf	??_main^(0+128),w
  1425  01C8  1283               	bcf	3,5	;RP0=0, select bank0
  1426  01C9  1303               	bcf	3,6	;RP1=0, select bank0
  1427  01CA  00D0               	movwf	_TargetTempreture
  1428  01CB  1683               	bsf	3,5	;RP0=1, select bank1
  1429  01CC  1303               	bcf	3,6	;RP1=0, select bank1
  1430  01CD  0825               	movf	(??_main+1)^(0+128),w
  1431  01CE  1283               	bcf	3,5	;RP0=0, select bank0
  1432  01CF  1303               	bcf	3,6	;RP1=0, select bank0
  1433  01D0  00D1               	movwf	_TargetTempreture+1
  1434                           
  1435                           ;main.c: 109:     }
  1436  01D1  29F2               	goto	l2503
  1437  01D2                     l2491:
  1438                           
  1439                           ;main.c: 111:     {;main.c: 112:       EEPROM_Write(0x01,0x01);
  1440  01D2  01B2               	clrf	EEPROM_Write@data
  1441  01D3  0AB2               	incf	EEPROM_Write@data,f
  1442  01D4  3001               	movlw	1
  1443  01D5  120A  118A  2754  120A  118A  	fcall	_EEPROM_Write
  1444  01DA                     l2493:
  1445                           
  1446                           ;main.c: 113:       TargetTempreture=60;
  1447  01DA  303C               	movlw	60
  1448  01DB  1283               	bcf	3,5	;RP0=0, select bank0
  1449  01DC  1303               	bcf	3,6	;RP1=0, select bank0
  1450  01DD  00D0               	movwf	_TargetTempreture
  1451  01DE  3000               	movlw	0
  1452  01DF  00D1               	movwf	_TargetTempreture+1
  1453  01E0  29F2               	goto	l2503
  1454  01E1                     l2495:
  1455                           
  1456                           ;main.c: 121:                 on_state();
  1457  01E1  120A  118A  2630  120A  118A  	fcall	_on_state
  1458                           
  1459                           ;main.c: 122:                 break;
  1460  01E6  29F2               	goto	l2503
  1461  01E7                     l2497:
  1462                           
  1463                           ;main.c: 124:                 off_state();
  1464  01E7  120A  158A  277F  120A  118A  	fcall	_off_state
  1465                           
  1466                           ;main.c: 125:                 break;
  1467  01EC  29F2               	goto	l2503
  1468  01ED                     l2499:
  1469                           
  1470                           ;main.c: 127:                 setting_state();
  1471  01ED  120A  158A  27B8  120A  118A  	fcall	_setting_state
  1472  01F2                     l2503:	
  1473                           ;main.c: 128:                 break;
  1474                           
  1475  01F2  1283               	bcf	3,5	;RP0=0, select bank0
  1476  01F3  1303               	bcf	3,6	;RP1=0, select bank0
  1477  01F4  085E               	movf	_state,w
  1478  01F5  1683               	bsf	3,5	;RP0=1, select bank1
  1479  01F6  1303               	bcf	3,6	;RP1=0, select bank1
  1480  01F7  00A4               	movwf	??_main^(0+128)
  1481  01F8  01A5               	clrf	(??_main^(0+128)+1)
  1482                           
  1483                           ; Switch on 2 bytes has been partitioned into a top level switch of size 1, and 1 sub-sw
      +                          itches
  1484                           ; Switch size 1, requested type "simple"
  1485                           ; Number of cases is 1, Range of values is 0 to 0
  1486                           ; switch strategies available:
  1487                           ; Name         Instructions Cycles
  1488                           ; simple_byte            4     3 (average)
  1489                           ; direct_byte           11     8 (fixed)
  1490                           ; jumptable            260     6 (fixed)
  1491                           ;	Chosen strategy is simple_byte
  1492  01F9  0825               	movf	(??_main+1)^(0+128),w
  1493  01FA  3A00               	xorlw	0	; case 0
  1494  01FB  1903               	skipnz
  1495  01FC  29FE               	goto	l2611
  1496  01FD  29F2               	goto	l2503
  1497  01FE                     l2611:
  1498                           
  1499                           ; Switch size 1, requested type "simple"
  1500                           ; Number of cases is 3, Range of values is 0 to 2
  1501                           ; switch strategies available:
  1502                           ; Name         Instructions Cycles
  1503                           ; simple_byte           10     6 (average)
  1504                           ; direct_byte           17     8 (fixed)
  1505                           ; jumptable            260     6 (fixed)
  1506                           ;	Chosen strategy is simple_byte
  1507  01FE  0824               	movf	??_main^(0+128),w
  1508  01FF  3A00               	xorlw	0	; case 0
  1509  0200  1903               	skipnz
  1510  0201  29E1               	goto	l2495
  1511  0202  3A01               	xorlw	1	; case 1
  1512  0203  1903               	skipnz
  1513  0204  29E7               	goto	l2497
  1514  0205  3A03               	xorlw	3	; case 2
  1515  0206  1903               	skipnz
  1516  0207  29ED               	goto	l2499
  1517  0208  29F2               	goto	l2503
  1518  0209  120A  118A  2812   	ljmp	start
  1519  020C                     __end_of_main:
  1520                           
  1521                           	psect	text1
  1522  0FB8                     __ptext1:	
  1523 ;; *************** function _setting_state *****************
  1524 ;; Defined at:
  1525 ;;		line 135 in file "main.c"
  1526 ;; Parameters:    Size  Location     Type
  1527 ;;		None
  1528 ;; Auto vars:     Size  Location     Type
  1529 ;;		None
  1530 ;; Return value:  Size  Location     Type
  1531 ;;                  1    wreg      void 
  1532 ;; Registers used:
  1533 ;;		wreg, fsr0l, fsr0h, status,2, status,0, btemp+1, pclath, cstack
  1534 ;; Tracked objects:
  1535 ;;		On entry : 0/0
  1536 ;;		On exit  : 0/0
  1537 ;;		Unchanged: 0/0
  1538 ;; Data sizes:     COMMON   BANK0   BANK1   BANK3   BANK2
  1539 ;;      Params:         0       0       0       0       0
  1540 ;;      Locals:         0       0       0       0       0
  1541 ;;      Temps:          0       0       0       0       0
  1542 ;;      Totals:         0       0       0       0       0
  1543 ;;Total ram usage:        0 bytes
  1544 ;; Hardware stack levels used:    1
  1545 ;; Hardware stack levels required when called:    8
  1546 ;; This function calls:
  1547 ;;		_flashDisplay
  1548 ;; This function is called by:
  1549 ;;		_main
  1550 ;; This function uses a non-reentrant model
  1551 ;;
  1552                           
  1553                           
  1554                           ;psect for function _setting_state
  1555  0FB8                     _setting_state:
  1556  0FB8                     l2181:	
  1557                           ;incstack = 0
  1558 ;; hardware stack exceeded
  1559                           ; Regs used in _setting_state: [wreg-fsr0h+status,2+status,0+btemp+1+pclath+cstack]
  1560                           
  1561                           
  1562                           ;main.c: 137:      TMR1ON = 0;
  1563  0FB8  1283               	bcf	3,5	;RP0=0, select bank0
  1564  0FB9  1303               	bcf	3,6	;RP1=0, select bank0
  1565  0FBA  1010               	bcf	16,0	;volatile
  1566                           
  1567                           ;main.c: 138:      RC2=0;
  1568  0FBB  1107               	bcf	7,2	;volatile
  1569                           
  1570                           ;main.c: 139:      RC5=0;
  1571  0FBC  1287               	bcf	7,5	;volatile
  1572  0FBD                     l2183:
  1573                           
  1574                           ;main.c: 140:      flashDisplay();
  1575  0FBD  120A  118A  2031  120A  158A  	fcall	_flashDisplay
  1576  0FC2                     l109:
  1577  0FC2  0008               	return
  1578  0FC3                     __end_of_setting_state:
  1579                           
  1580                           	psect	text2
  1581  0031                     __ptext2:	
  1582 ;; *************** function _flashDisplay *****************
  1583 ;; Defined at:
  1584 ;;		line 263 in file "main.c"
  1585 ;; Parameters:    Size  Location     Type
  1586 ;;		None
  1587 ;; Auto vars:     Size  Location     Type
  1588 ;;  i               2   35[BANK0 ] int 
  1589 ;;  i               2   33[BANK0 ] int 
  1590 ;; Return value:  Size  Location     Type
  1591 ;;                  1    wreg      void 
  1592 ;; Registers used:
  1593 ;;		wreg, fsr0l, fsr0h, status,2, status,0, btemp+1, pclath, cstack
  1594 ;; Tracked objects:
  1595 ;;		On entry : 0/0
  1596 ;;		On exit  : 0/0
  1597 ;;		Unchanged: 0/0
  1598 ;; Data sizes:     COMMON   BANK0   BANK1   BANK3   BANK2
  1599 ;;      Params:         0       0       0       0       0
  1600 ;;      Locals:         0       4       0       0       0
  1601 ;;      Temps:          0       2       0       0       0
  1602 ;;      Totals:         0       6       0       0       0
  1603 ;;Total ram usage:        6 bytes
  1604 ;; Hardware stack levels used:    1
  1605 ;; Hardware stack levels required when called:    7
  1606 ;; This function calls:
  1607 ;;		_EEPROM_Write
  1608 ;;		_displayDeiredTempreture
  1609 ;; This function is called by:
  1610 ;;		_setting_state
  1611 ;; This function uses a non-reentrant model
  1612 ;;
  1613                           
  1614                           
  1615                           ;psect for function _flashDisplay
  1616  0031                     _flashDisplay:
  1617  0031                     l1921:	
  1618                           ;incstack = 0
  1619 ;; hardware stack exceeded
  1620                           ; Regs used in _flashDisplay: [wreg-fsr0h+status,2+status,0+btemp+1+pclath+cstack]
  1621                           
  1622                           
  1623                           ;main.c: 265:     static unsigned char count=0;;main.c: 266:     static unsigned char pr
      +                          ev_status=PREV_STABLE;;main.c: 267:     if(PORTBbits.RB3&&PORTBbits.RB4)
  1624  0031  1283               	bcf	3,5	;RP0=0, select bank0
  1625  0032  1303               	bcf	3,6	;RP1=0, select bank0
  1626  0033  1D86               	btfss	6,3	;volatile
  1627  0034  2836               	goto	u1501
  1628  0035  2837               	goto	u1500
  1629  0036                     u1501:
  1630  0036  2854               	goto	l1937
  1631  0037                     u1500:
  1632  0037                     l1923:
  1633  0037  1E06               	btfss	6,4	;volatile
  1634  0038  283A               	goto	u1511
  1635  0039  283B               	goto	u1510
  1636  003A                     u1511:
  1637  003A  2854               	goto	l1937
  1638  003B                     u1510:
  1639  003B                     l1925:
  1640                           
  1641                           ;main.c: 268:     {;main.c: 269:         if(count==5)
  1642  003B  3005               	movlw	5
  1643  003C  0657               	xorwf	flashDisplay@count,w
  1644  003D  1D03               	btfss	3,2
  1645  003E  2840               	goto	u1521
  1646  003F  2841               	goto	u1520
  1647  0040                     u1521:
  1648  0040  284E               	goto	l164
  1649  0041                     u1520:
  1650  0041                     l1927:
  1651                           
  1652                           ;main.c: 270:         {;main.c: 271:             state=ON_STATE;
  1653  0041  01DE               	clrf	_state
  1654                           
  1655                           ;main.c: 272:             count=0;
  1656  0042  01D7               	clrf	flashDisplay@count
  1657  0043                     l1929:
  1658                           
  1659                           ;main.c: 273:             EEPROM_Write(0x00,TargetTempreture);
  1660  0043  0850               	movf	_TargetTempreture,w
  1661  0044  00FF               	movwf	btemp+1
  1662  0045  087F               	movf	btemp+1,w
  1663  0046  00B2               	movwf	EEPROM_Write@data
  1664  0047  3000               	movlw	0
  1665  0048  120A  118A  2754  120A  118A  	fcall	_EEPROM_Write
  1666  004D  2953               	goto	l165
  1667  004E                     l164:	
  1668                           ;main.c: 276:         else{
  1669                           
  1670                           
  1671                           ;main.c: 277:             prev_status=PREV_STABLE;
  1672  004E  01D2               	clrf	flashDisplay@prev_status
  1673  004F  0AD2               	incf	flashDisplay@prev_status,f
  1674  0050                     l1935:
  1675                           
  1676                           ;main.c: 278:             count++;
  1677  0050  3001               	movlw	1
  1678  0051  00FF               	movwf	btemp+1
  1679  0052  087F               	movf	btemp+1,w
  1680  0053  07D7               	addwf	flashDisplay@count,f
  1681  0054                     l1937:
  1682                           
  1683                           ;main.c: 282:    for(int i=0;i<25;i++)
  1684  0054  01C1               	clrf	flashDisplay@i
  1685  0055  01C2               	clrf	flashDisplay@i+1
  1686  0056                     l1943:
  1687                           
  1688                           ;main.c: 283:    {;main.c: 284:     displayDeiredTempreture(TargetTempreture);
  1689  0056  1283               	bcf	3,5	;RP0=0, select bank0
  1690  0057  1303               	bcf	3,6	;RP1=0, select bank0
  1691  0058  0851               	movf	_TargetTempreture+1,w
  1692  0059  00BA               	movwf	displayDeiredTempreture@TargetTempreture+1
  1693  005A  0850               	movf	_TargetTempreture,w
  1694  005B  00B9               	movwf	displayDeiredTempreture@TargetTempreture
  1695  005C  120A  118A  245A  120A  118A  	fcall	_displayDeiredTempreture
  1696  0061                     l1945:
  1697                           
  1698                           ;main.c: 285:     if(PORTBbits.RB3==0&&prev_status==PREV_STABLE)
  1699  0061  1283               	bcf	3,5	;RP0=0, select bank0
  1700  0062  1303               	bcf	3,6	;RP1=0, select bank0
  1701  0063  1986               	btfsc	6,3	;volatile
  1702  0064  2866               	goto	u1531
  1703  0065  2867               	goto	u1530
  1704  0066                     u1531:
  1705  0066  288F               	goto	l1955
  1706  0067                     u1530:
  1707  0067                     l1947:
  1708  0067  0352               	decf	flashDisplay@prev_status,w
  1709  0068  1D03               	btfss	3,2
  1710  0069  286B               	goto	u1541
  1711  006A  286C               	goto	u1540
  1712  006B                     u1541:
  1713  006B  288F               	goto	l1955
  1714  006C                     u1540:
  1715  006C                     l1949:
  1716                           
  1717                           ;main.c: 286:        {;main.c: 287:            if(TargetTempreture<75)
  1718  006C  0851               	movf	_TargetTempreture+1,w
  1719  006D  3A80               	xorlw	128
  1720  006E  00FF               	movwf	btemp+1
  1721  006F  3080               	movlw	128
  1722  0070  027F               	subwf	btemp+1,w
  1723  0071  1D03               	skipz
  1724  0072  2875               	goto	u1555
  1725  0073  304B               	movlw	75
  1726  0074  0250               	subwf	_TargetTempreture,w
  1727  0075                     u1555:
  1728  0075  1803               	skipnc
  1729  0076  2878               	goto	u1551
  1730  0077  2879               	goto	u1550
  1731  0078                     u1551:
  1732  0078  288F               	goto	l1955
  1733  0079                     u1550:
  1734  0079                     l1951:
  1735                           
  1736                           ;main.c: 288:            {;main.c: 289:                TargetTempreture += 5;
  1737  0079  3005               	movlw	5
  1738  007A  1283               	bcf	3,5	;RP0=0, select bank0
  1739  007B  1303               	bcf	3,6	;RP1=0, select bank0
  1740  007C  07D0               	addwf	_TargetTempreture,f
  1741  007D  1803               	skipnc
  1742  007E  0AD1               	incf	_TargetTempreture+1,f
  1743  007F  3000               	movlw	0
  1744  0080  07D1               	addwf	_TargetTempreture+1,f
  1745                           
  1746                           ;main.c: 290:            _delay((unsigned long)((10)*(8000000/4000.0)));
  1747  0081  301A               	movlw	26
  1748  0082  1283               	bcf	3,5	;RP0=0, select bank0
  1749  0083  1303               	bcf	3,6	;RP1=0, select bank0
  1750  0084  00C0               	movwf	??_flashDisplay+1
  1751  0085  30F7               	movlw	247
  1752  0086  00BF               	movwf	??_flashDisplay
  1753  0087                     u2037:
  1754  0087  0BBF               	decfsz	??_flashDisplay,f
  1755  0088  2887               	goto	u2037
  1756  0089  0BC0               	decfsz	??_flashDisplay+1,f
  1757  008A  2887               	goto	u2037
  1758  008B  288C               	nop2
  1759  008C                     l1953:
  1760                           
  1761                           ;main.c: 291:            prev_status=PREV_UN_STABLE;
  1762  008C  1283               	bcf	3,5	;RP0=0, select bank0
  1763  008D  1303               	bcf	3,6	;RP1=0, select bank0
  1764  008E  01D2               	clrf	flashDisplay@prev_status
  1765  008F                     l1955:
  1766                           
  1767                           ;main.c: 295:     if(PORTBbits.RB4==0&&prev_status==PREV_STABLE)
  1768  008F  1283               	bcf	3,5	;RP0=0, select bank0
  1769  0090  1303               	bcf	3,6	;RP1=0, select bank0
  1770  0091  1A06               	btfsc	6,4	;volatile
  1771  0092  2894               	goto	u1561
  1772  0093  2895               	goto	u1560
  1773  0094                     u1561:
  1774  0094  28BD               	goto	l1965
  1775  0095                     u1560:
  1776  0095                     l1957:
  1777  0095  0352               	decf	flashDisplay@prev_status,w
  1778  0096  1D03               	btfss	3,2
  1779  0097  2899               	goto	u1571
  1780  0098  289A               	goto	u1570
  1781  0099                     u1571:
  1782  0099  28BD               	goto	l1965
  1783  009A                     u1570:
  1784  009A                     l1959:
  1785                           
  1786                           ;main.c: 296:     {;main.c: 297:         if(TargetTempreture>35)
  1787  009A  0851               	movf	_TargetTempreture+1,w
  1788  009B  3A80               	xorlw	128
  1789  009C  00FF               	movwf	btemp+1
  1790  009D  3080               	movlw	128
  1791  009E  027F               	subwf	btemp+1,w
  1792  009F  1D03               	skipz
  1793  00A0  28A3               	goto	u1585
  1794  00A1  3024               	movlw	36
  1795  00A2  0250               	subwf	_TargetTempreture,w
  1796  00A3                     u1585:
  1797  00A3  1C03               	skipc
  1798  00A4  28A6               	goto	u1581
  1799  00A5  28A7               	goto	u1580
  1800  00A6                     u1581:
  1801  00A6  28BD               	goto	l1965
  1802  00A7                     u1580:
  1803  00A7                     l1961:
  1804                           
  1805                           ;main.c: 298:         {;main.c: 299:          TargetTempreture -= 5;
  1806  00A7  30FB               	movlw	251
  1807  00A8  1283               	bcf	3,5	;RP0=0, select bank0
  1808  00A9  1303               	bcf	3,6	;RP1=0, select bank0
  1809  00AA  07D0               	addwf	_TargetTempreture,f
  1810  00AB  1803               	skipnc
  1811  00AC  0AD1               	incf	_TargetTempreture+1,f
  1812  00AD  30FF               	movlw	255
  1813  00AE  07D1               	addwf	_TargetTempreture+1,f
  1814                           
  1815                           ;main.c: 300:         _delay((unsigned long)((10)*(8000000/4000.0)));
  1816  00AF  301A               	movlw	26
  1817  00B0  1283               	bcf	3,5	;RP0=0, select bank0
  1818  00B1  1303               	bcf	3,6	;RP1=0, select bank0
  1819  00B2  00C0               	movwf	??_flashDisplay+1
  1820  00B3  30F7               	movlw	247
  1821  00B4  00BF               	movwf	??_flashDisplay
  1822  00B5                     u2047:
  1823  00B5  0BBF               	decfsz	??_flashDisplay,f
  1824  00B6  28B5               	goto	u2047
  1825  00B7  0BC0               	decfsz	??_flashDisplay+1,f
  1826  00B8  28B5               	goto	u2047
  1827  00B9  28BA               	nop2
  1828  00BA                     l1963:
  1829                           
  1830                           ;main.c: 301:          prev_status=PREV_UN_STABLE;
  1831  00BA  1283               	bcf	3,5	;RP0=0, select bank0
  1832  00BB  1303               	bcf	3,6	;RP1=0, select bank0
  1833  00BC  01D2               	clrf	flashDisplay@prev_status
  1834  00BD                     l1965:
  1835                           
  1836                           ;main.c: 307:    }
  1837  00BD  3001               	movlw	1
  1838  00BE  1283               	bcf	3,5	;RP0=0, select bank0
  1839  00BF  1303               	bcf	3,6	;RP1=0, select bank0
  1840  00C0  07C1               	addwf	flashDisplay@i,f
  1841  00C1  1803               	skipnc
  1842  00C2  0AC2               	incf	flashDisplay@i+1,f
  1843  00C3  3000               	movlw	0
  1844  00C4  07C2               	addwf	flashDisplay@i+1,f
  1845  00C5                     l1967:
  1846  00C5  0842               	movf	flashDisplay@i+1,w
  1847  00C6  3A80               	xorlw	128
  1848  00C7  00FF               	movwf	btemp+1
  1849  00C8  3080               	movlw	128
  1850  00C9  027F               	subwf	btemp+1,w
  1851  00CA  1D03               	skipz
  1852  00CB  28CE               	goto	u1595
  1853  00CC  3019               	movlw	25
  1854  00CD  0241               	subwf	flashDisplay@i,w
  1855  00CE                     u1595:
  1856  00CE  1C03               	skipc
  1857  00CF  28D1               	goto	u1591
  1858  00D0  28D2               	goto	u1590
  1859  00D1                     u1591:
  1860  00D1  2856               	goto	l1943
  1861  00D2                     u1590:
  1862  00D2                     l168:
  1863                           
  1864                           ;main.c: 308:     PORTAbits.RA4=0;
  1865  00D2  1283               	bcf	3,5	;RP0=0, select bank0
  1866  00D3  1303               	bcf	3,6	;RP1=0, select bank0
  1867  00D4  1205               	bcf	5,4	;volatile
  1868                           
  1869                           ;main.c: 309:     PORTAbits.RA5=0;
  1870  00D5  1285               	bcf	5,5	;volatile
  1871  00D6                     l1969:
  1872                           
  1873                           ;main.c: 312:       for(int i=0;i<25;i++)
  1874  00D6  01C3               	clrf	flashDisplay@i_218
  1875  00D7  01C4               	clrf	flashDisplay@i_218+1
  1876  00D8                     l1975:
  1877                           
  1878                           ;main.c: 313:    {;main.c: 314:        _delay((unsigned long)((20)*(8000000/4000.0)));
  1879  00D8  3034               	movlw	52
  1880  00D9  1283               	bcf	3,5	;RP0=0, select bank0
  1881  00DA  1303               	bcf	3,6	;RP1=0, select bank0
  1882  00DB  00C0               	movwf	??_flashDisplay+1
  1883  00DC  30F1               	movlw	241
  1884  00DD  00BF               	movwf	??_flashDisplay
  1885  00DE                     u2057:
  1886  00DE  0BBF               	decfsz	??_flashDisplay,f
  1887  00DF  28DE               	goto	u2057
  1888  00E0  0BC0               	decfsz	??_flashDisplay+1,f
  1889  00E1  28DE               	goto	u2057
  1890  00E2                     l1977:
  1891                           
  1892                           ;main.c: 315:        if(PORTBbits.RB3==0&&prev_status==PREV_STABLE)
  1893  00E2  1283               	bcf	3,5	;RP0=0, select bank0
  1894  00E3  1303               	bcf	3,6	;RP1=0, select bank0
  1895  00E4  1986               	btfsc	6,3	;volatile
  1896  00E5  28E7               	goto	u1601
  1897  00E6  28E8               	goto	u1600
  1898  00E7                     u1601:
  1899  00E7  2910               	goto	l1987
  1900  00E8                     u1600:
  1901  00E8                     l1979:
  1902  00E8  0352               	decf	flashDisplay@prev_status,w
  1903  00E9  1D03               	btfss	3,2
  1904  00EA  28EC               	goto	u1611
  1905  00EB  28ED               	goto	u1610
  1906  00EC                     u1611:
  1907  00EC  2910               	goto	l1987
  1908  00ED                     u1610:
  1909  00ED                     l1981:
  1910                           
  1911                           ;main.c: 316:        {;main.c: 317:            if(TargetTempreture<75)
  1912  00ED  0851               	movf	_TargetTempreture+1,w
  1913  00EE  3A80               	xorlw	128
  1914  00EF  00FF               	movwf	btemp+1
  1915  00F0  3080               	movlw	128
  1916  00F1  027F               	subwf	btemp+1,w
  1917  00F2  1D03               	skipz
  1918  00F3  28F6               	goto	u1625
  1919  00F4  304B               	movlw	75
  1920  00F5  0250               	subwf	_TargetTempreture,w
  1921  00F6                     u1625:
  1922  00F6  1803               	skipnc
  1923  00F7  28F9               	goto	u1621
  1924  00F8  28FA               	goto	u1620
  1925  00F9                     u1621:
  1926  00F9  2910               	goto	l1987
  1927  00FA                     u1620:
  1928  00FA                     l1983:
  1929                           
  1930                           ;main.c: 318:            {;main.c: 319:                TargetTempreture += 5;
  1931  00FA  3005               	movlw	5
  1932  00FB  1283               	bcf	3,5	;RP0=0, select bank0
  1933  00FC  1303               	bcf	3,6	;RP1=0, select bank0
  1934  00FD  07D0               	addwf	_TargetTempreture,f
  1935  00FE  1803               	skipnc
  1936  00FF  0AD1               	incf	_TargetTempreture+1,f
  1937  0100  3000               	movlw	0
  1938  0101  07D1               	addwf	_TargetTempreture+1,f
  1939                           
  1940                           ;main.c: 320:            _delay((unsigned long)((10)*(8000000/4000.0)));
  1941  0102  301A               	movlw	26
  1942  0103  1283               	bcf	3,5	;RP0=0, select bank0
  1943  0104  1303               	bcf	3,6	;RP1=0, select bank0
  1944  0105  00C0               	movwf	??_flashDisplay+1
  1945  0106  30F7               	movlw	247
  1946  0107  00BF               	movwf	??_flashDisplay
  1947  0108                     u2067:
  1948  0108  0BBF               	decfsz	??_flashDisplay,f
  1949  0109  2908               	goto	u2067
  1950  010A  0BC0               	decfsz	??_flashDisplay+1,f
  1951  010B  2908               	goto	u2067
  1952  010C  290D               	nop2
  1953  010D                     l1985:
  1954                           
  1955                           ;main.c: 321:            prev_status=PREV_UN_STABLE;
  1956  010D  1283               	bcf	3,5	;RP0=0, select bank0
  1957  010E  1303               	bcf	3,6	;RP1=0, select bank0
  1958  010F  01D2               	clrf	flashDisplay@prev_status
  1959  0110                     l1987:
  1960                           
  1961                           ;main.c: 326:      if(PORTBbits.RB4==0&&prev_status==PREV_STABLE)
  1962  0110  1283               	bcf	3,5	;RP0=0, select bank0
  1963  0111  1303               	bcf	3,6	;RP1=0, select bank0
  1964  0112  1A06               	btfsc	6,4	;volatile
  1965  0113  2915               	goto	u1631
  1966  0114  2916               	goto	u1630
  1967  0115                     u1631:
  1968  0115  293E               	goto	l1997
  1969  0116                     u1630:
  1970  0116                     l1989:
  1971  0116  0352               	decf	flashDisplay@prev_status,w
  1972  0117  1D03               	btfss	3,2
  1973  0118  291A               	goto	u1641
  1974  0119  291B               	goto	u1640
  1975  011A                     u1641:
  1976  011A  293E               	goto	l1997
  1977  011B                     u1640:
  1978  011B                     l1991:
  1979                           
  1980                           ;main.c: 327:      {;main.c: 328:         if(TargetTempreture>35)
  1981  011B  0851               	movf	_TargetTempreture+1,w
  1982  011C  3A80               	xorlw	128
  1983  011D  00FF               	movwf	btemp+1
  1984  011E  3080               	movlw	128
  1985  011F  027F               	subwf	btemp+1,w
  1986  0120  1D03               	skipz
  1987  0121  2924               	goto	u1655
  1988  0122  3024               	movlw	36
  1989  0123  0250               	subwf	_TargetTempreture,w
  1990  0124                     u1655:
  1991  0124  1C03               	skipc
  1992  0125  2927               	goto	u1651
  1993  0126  2928               	goto	u1650
  1994  0127                     u1651:
  1995  0127  293E               	goto	l1997
  1996  0128                     u1650:
  1997  0128                     l1993:
  1998                           
  1999                           ;main.c: 329:         {;main.c: 330:          TargetTempreture -= 5;
  2000  0128  30FB               	movlw	251
  2001  0129  1283               	bcf	3,5	;RP0=0, select bank0
  2002  012A  1303               	bcf	3,6	;RP1=0, select bank0
  2003  012B  07D0               	addwf	_TargetTempreture,f
  2004  012C  1803               	skipnc
  2005  012D  0AD1               	incf	_TargetTempreture+1,f
  2006  012E  30FF               	movlw	255
  2007  012F  07D1               	addwf	_TargetTempreture+1,f
  2008                           
  2009                           ;main.c: 331:         _delay((unsigned long)((10)*(8000000/4000.0)));
  2010  0130  301A               	movlw	26
  2011  0131  1283               	bcf	3,5	;RP0=0, select bank0
  2012  0132  1303               	bcf	3,6	;RP1=0, select bank0
  2013  0133  00C0               	movwf	??_flashDisplay+1
  2014  0134  30F7               	movlw	247
  2015  0135  00BF               	movwf	??_flashDisplay
  2016  0136                     u2077:
  2017  0136  0BBF               	decfsz	??_flashDisplay,f
  2018  0137  2936               	goto	u2077
  2019  0138  0BC0               	decfsz	??_flashDisplay+1,f
  2020  0139  2936               	goto	u2077
  2021  013A  293B               	nop2
  2022  013B                     l1995:
  2023                           
  2024                           ;main.c: 332:          prev_status=PREV_UN_STABLE;
  2025  013B  1283               	bcf	3,5	;RP0=0, select bank0
  2026  013C  1303               	bcf	3,6	;RP1=0, select bank0
  2027  013D  01D2               	clrf	flashDisplay@prev_status
  2028  013E                     l1997:
  2029                           
  2030                           ;main.c: 336:    }
  2031  013E  3001               	movlw	1
  2032  013F  1283               	bcf	3,5	;RP0=0, select bank0
  2033  0140  1303               	bcf	3,6	;RP1=0, select bank0
  2034  0141  07C3               	addwf	flashDisplay@i_218,f
  2035  0142  1803               	skipnc
  2036  0143  0AC4               	incf	flashDisplay@i_218+1,f
  2037  0144  3000               	movlw	0
  2038  0145  07C4               	addwf	flashDisplay@i_218+1,f
  2039  0146                     l1999:
  2040  0146  0844               	movf	flashDisplay@i_218+1,w
  2041  0147  3A80               	xorlw	128
  2042  0148  00FF               	movwf	btemp+1
  2043  0149  3080               	movlw	128
  2044  014A  027F               	subwf	btemp+1,w
  2045  014B  1D03               	skipz
  2046  014C  294F               	goto	u1665
  2047  014D  3019               	movlw	25
  2048  014E  0243               	subwf	flashDisplay@i_218,w
  2049  014F                     u1665:
  2050  014F  1C03               	skipc
  2051  0150  2952               	goto	u1661
  2052  0151  2953               	goto	u1660
  2053  0152                     u1661:
  2054  0152  28D8               	goto	l1975
  2055  0153                     u1660:
  2056  0153                     l165:
  2057  0153  0008               	return
  2058  0154                     __end_of_flashDisplay:
  2059                           
  2060                           	psect	text3
  2061  045A                     __ptext3:	
  2062 ;; *************** function _displayDeiredTempreture *****************
  2063 ;; Defined at:
  2064 ;;		line 33 in file "seven_segment.c"
  2065 ;; Parameters:    Size  Location     Type
  2066 ;;  TargetTempre    2   25[BANK0 ] int 
  2067 ;; Auto vars:     Size  Location     Type
  2068 ;;  high            1   30[BANK0 ] unsigned char 
  2069 ;;  low             1   29[BANK0 ] unsigned char 
  2070 ;; Return value:  Size  Location     Type
  2071 ;;                  1    wreg      void 
  2072 ;; Registers used:
  2073 ;;		wreg, fsr0l, fsr0h, status,2, status,0, btemp+1, pclath, cstack
  2074 ;; Tracked objects:
  2075 ;;		On entry : 0/0
  2076 ;;		On exit  : 0/0
  2077 ;;		Unchanged: 0/0
  2078 ;; Data sizes:     COMMON   BANK0   BANK1   BANK3   BANK2
  2079 ;;      Params:         0       2       0       0       0
  2080 ;;      Locals:         0       2       0       0       0
  2081 ;;      Temps:          0       2       0       0       0
  2082 ;;      Totals:         0       6       0       0       0
  2083 ;;Total ram usage:        6 bytes
  2084 ;; Hardware stack levels used:    1
  2085 ;; Hardware stack levels required when called:    5
  2086 ;; This function calls:
  2087 ;;		___awdiv
  2088 ;;		___awmod
  2089 ;;		_lcd_writeNumber
  2090 ;; This function is called by:
  2091 ;;		_flashDisplay
  2092 ;; This function uses a non-reentrant model
  2093 ;;
  2094                           
  2095                           
  2096                           ;psect for function _displayDeiredTempreture
  2097  045A                     _displayDeiredTempreture:
  2098  045A                     l1807:	
  2099                           ;incstack = 0
  2100                           ; Regs used in _displayDeiredTempreture: [wreg-fsr0h+status,2+status,0+btemp+1+pclath+cs
      +                          tack]
  2101                           
  2102                           
  2103                           ;seven_segment.c: 33: void displayDeiredTempreture(int TargetTempreture);seven_segment.c
      +                          : 34: {;seven_segment.c: 35:     unsigned char low=TargetTempreture%10;
  2104  045A  300A               	movlw	10
  2105  045B  1283               	bcf	3,5	;RP0=0, select bank0
  2106  045C  1303               	bcf	3,6	;RP1=0, select bank0
  2107  045D  00B1               	movwf	___awmod@divisor
  2108  045E  3000               	movlw	0
  2109  045F  00B2               	movwf	___awmod@divisor+1
  2110  0460  083A               	movf	displayDeiredTempreture@TargetTempreture+1,w
  2111  0461  00B4               	movwf	___awmod@dividend+1
  2112  0462  0839               	movf	displayDeiredTempreture@TargetTempreture,w
  2113  0463  00B3               	movwf	___awmod@dividend
  2114  0464  120A  118A  2351  120A  118A  	fcall	___awmod
  2115  0469  1283               	bcf	3,5	;RP0=0, select bank0
  2116  046A  1303               	bcf	3,6	;RP1=0, select bank0
  2117  046B  0831               	movf	?___awmod,w
  2118  046C  00FF               	movwf	btemp+1
  2119  046D  087F               	movf	btemp+1,w
  2120  046E  00BD               	movwf	displayDeiredTempreture@low
  2121                           
  2122                           ;seven_segment.c: 36:     unsigned char high=TargetTempreture/10;
  2123  046F  300A               	movlw	10
  2124  0470  00B1               	movwf	___awdiv@divisor
  2125  0471  3000               	movlw	0
  2126  0472  00B2               	movwf	___awdiv@divisor+1
  2127  0473  083A               	movf	displayDeiredTempreture@TargetTempreture+1,w
  2128  0474  00B4               	movwf	___awdiv@dividend+1
  2129  0475  0839               	movf	displayDeiredTempreture@TargetTempreture,w
  2130  0476  00B3               	movwf	___awdiv@dividend
  2131  0477  120A  118A  2280  120A  118A  	fcall	___awdiv
  2132  047C  1283               	bcf	3,5	;RP0=0, select bank0
  2133  047D  1303               	bcf	3,6	;RP1=0, select bank0
  2134  047E  0831               	movf	?___awdiv,w
  2135  047F  00FF               	movwf	btemp+1
  2136  0480  087F               	movf	btemp+1,w
  2137  0481  00BE               	movwf	displayDeiredTempreture@high
  2138  0482                     l1809:
  2139                           
  2140                           ;seven_segment.c: 37:      PORTAbits.RA5=1;
  2141  0482  1685               	bsf	5,5	;volatile
  2142  0483                     l1811:
  2143                           
  2144                           ;seven_segment.c: 38:     lcd_writeNumber(low);
  2145  0483  083D               	movf	displayDeiredTempreture@low,w
  2146  0484  120A  118A  27DC  120A  118A  	fcall	_lcd_writeNumber
  2147  0489                     l1813:
  2148                           
  2149                           ;seven_segment.c: 39:     _delay((unsigned long)((10)*(8000000/4000.0)));
  2150  0489  301A               	movlw	26
  2151  048A  1283               	bcf	3,5	;RP0=0, select bank0
  2152  048B  1303               	bcf	3,6	;RP1=0, select bank0
  2153  048C  00BC               	movwf	??_displayDeiredTempreture+1
  2154  048D  30F7               	movlw	247
  2155  048E  00BB               	movwf	??_displayDeiredTempreture
  2156  048F                     u2087:
  2157  048F  0BBB               	decfsz	??_displayDeiredTempreture,f
  2158  0490  2C8F               	goto	u2087
  2159  0491  0BBC               	decfsz	??_displayDeiredTempreture+1,f
  2160  0492  2C8F               	goto	u2087
  2161  0493  2C94               	nop2
  2162  0494                     l1815:
  2163                           
  2164                           ;seven_segment.c: 40:     PORTAbits.RA5=0;
  2165  0494  1283               	bcf	3,5	;RP0=0, select bank0
  2166  0495  1303               	bcf	3,6	;RP1=0, select bank0
  2167  0496  1285               	bcf	5,5	;volatile
  2168  0497                     l1817:
  2169                           
  2170                           ;seven_segment.c: 41:     lcd_writeNumber(high);
  2171  0497  083E               	movf	displayDeiredTempreture@high,w
  2172  0498  120A  118A  27DC  120A  118A  	fcall	_lcd_writeNumber
  2173  049D                     l1819:
  2174                           
  2175                           ;seven_segment.c: 42:     PORTAbits.RA4=1;
  2176  049D  1283               	bcf	3,5	;RP0=0, select bank0
  2177  049E  1303               	bcf	3,6	;RP1=0, select bank0
  2178  049F  1605               	bsf	5,4	;volatile
  2179  04A0                     l1821:
  2180                           
  2181                           ;seven_segment.c: 43:     _delay((unsigned long)((10)*(8000000/4000.0)));
  2182  04A0  301A               	movlw	26
  2183  04A1  1283               	bcf	3,5	;RP0=0, select bank0
  2184  04A2  1303               	bcf	3,6	;RP1=0, select bank0
  2185  04A3  00BC               	movwf	??_displayDeiredTempreture+1
  2186  04A4  30F7               	movlw	247
  2187  04A5  00BB               	movwf	??_displayDeiredTempreture
  2188  04A6                     u2097:
  2189  04A6  0BBB               	decfsz	??_displayDeiredTempreture,f
  2190  04A7  2CA6               	goto	u2097
  2191  04A8  0BBC               	decfsz	??_displayDeiredTempreture+1,f
  2192  04A9  2CA6               	goto	u2097
  2193  04AA  2CAB               	nop2
  2194  04AB                     l1823:
  2195                           
  2196                           ;seven_segment.c: 44:     PORTAbits.RA4=0;
  2197  04AB  1283               	bcf	3,5	;RP0=0, select bank0
  2198  04AC  1303               	bcf	3,6	;RP1=0, select bank0
  2199  04AD  1205               	bcf	5,4	;volatile
  2200  04AE                     l221:
  2201  04AE  0008               	return
  2202  04AF                     __end_of_displayDeiredTempreture:
  2203                           
  2204                           	psect	text4
  2205  0351                     __ptext4:	
  2206 ;; *************** function ___awmod *****************
  2207 ;; Defined at:
  2208 ;;		line 5 in file "C:\Program Files\Microchip\xc8\v2.20\pic\sources\c90\common\awmod.c"
  2209 ;; Parameters:    Size  Location     Type
  2210 ;;  divisor         2   17[BANK0 ] int 
  2211 ;;  dividend        2   19[BANK0 ] int 
  2212 ;; Auto vars:     Size  Location     Type
  2213 ;;  sign            1   22[BANK0 ] unsigned char 
  2214 ;;  counter         1   21[BANK0 ] unsigned char 
  2215 ;; Return value:  Size  Location     Type
  2216 ;;                  2   17[BANK0 ] int 
  2217 ;; Registers used:
  2218 ;;		wreg, status,2, status,0, btemp+1
  2219 ;; Tracked objects:
  2220 ;;		On entry : 0/0
  2221 ;;		On exit  : 0/0
  2222 ;;		Unchanged: 0/0
  2223 ;; Data sizes:     COMMON   BANK0   BANK1   BANK3   BANK2
  2224 ;;      Params:         0       4       0       0       0
  2225 ;;      Locals:         0       2       0       0       0
  2226 ;;      Temps:          0       0       0       0       0
  2227 ;;      Totals:         0       6       0       0       0
  2228 ;;Total ram usage:        6 bytes
  2229 ;; Hardware stack levels used:    1
  2230 ;; Hardware stack levels required when called:    4
  2231 ;; This function calls:
  2232 ;;		Nothing
  2233 ;; This function is called by:
  2234 ;;		_displayDeiredTempreture
  2235 ;; This function uses a non-reentrant model
  2236 ;;
  2237                           
  2238                           
  2239                           ;psect for function ___awmod
  2240  0351                     ___awmod:
  2241  0351                     l1763:	
  2242                           ;incstack = 0
  2243                           ; Regs used in ___awmod: [wreg+status,2+status,0+btemp+1]
  2244                           
  2245  0351  1283               	bcf	3,5	;RP0=0, select bank0
  2246  0352  1303               	bcf	3,6	;RP1=0, select bank0
  2247  0353  01B6               	clrf	___awmod@sign
  2248  0354                     l1765:
  2249  0354  1FB4               	btfss	___awmod@dividend+1,7
  2250  0355  2B57               	goto	u1141
  2251  0356  2B58               	goto	u1140
  2252  0357                     u1141:
  2253  0357  2B5F               	goto	l1771
  2254  0358                     u1140:
  2255  0358                     l1767:
  2256  0358  09B3               	comf	___awmod@dividend,f
  2257  0359  09B4               	comf	___awmod@dividend+1,f
  2258  035A  0AB3               	incf	___awmod@dividend,f
  2259  035B  1903               	skipnz
  2260  035C  0AB4               	incf	___awmod@dividend+1,f
  2261  035D                     l1769:
  2262  035D  01B6               	clrf	___awmod@sign
  2263  035E  0AB6               	incf	___awmod@sign,f
  2264  035F                     l1771:
  2265  035F  1FB2               	btfss	___awmod@divisor+1,7
  2266  0360  2B62               	goto	u1151
  2267  0361  2B63               	goto	u1150
  2268  0362                     u1151:
  2269  0362  2B68               	goto	l1775
  2270  0363                     u1150:
  2271  0363                     l1773:
  2272  0363  09B1               	comf	___awmod@divisor,f
  2273  0364  09B2               	comf	___awmod@divisor+1,f
  2274  0365  0AB1               	incf	___awmod@divisor,f
  2275  0366  1903               	skipnz
  2276  0367  0AB2               	incf	___awmod@divisor+1,f
  2277  0368                     l1775:
  2278  0368  0831               	movf	___awmod@divisor,w
  2279  0369  0432               	iorwf	___awmod@divisor+1,w
  2280  036A  1903               	btfsc	3,2
  2281  036B  2B6D               	goto	u1161
  2282  036C  2B6E               	goto	u1160
  2283  036D                     u1161:
  2284  036D  2B9D               	goto	l1793
  2285  036E                     u1160:
  2286  036E                     l1777:
  2287  036E  01B5               	clrf	___awmod@counter
  2288  036F  0AB5               	incf	___awmod@counter,f
  2289  0370  2B7C               	goto	l1783
  2290  0371                     l1779:
  2291  0371  3001               	movlw	1
  2292  0372                     u1175:
  2293  0372  1003               	clrc
  2294  0373  0DB1               	rlf	___awmod@divisor,f
  2295  0374  0DB2               	rlf	___awmod@divisor+1,f
  2296  0375  3EFF               	addlw	-1
  2297  0376  1D03               	skipz
  2298  0377  2B72               	goto	u1175
  2299  0378                     l1781:
  2300  0378  3001               	movlw	1
  2301  0379  00FF               	movwf	btemp+1
  2302  037A  087F               	movf	btemp+1,w
  2303  037B  07B5               	addwf	___awmod@counter,f
  2304  037C                     l1783:
  2305  037C  1FB2               	btfss	___awmod@divisor+1,7
  2306  037D  2B7F               	goto	u1181
  2307  037E  2B80               	goto	u1180
  2308  037F                     u1181:
  2309  037F  2B71               	goto	l1779
  2310  0380                     u1180:
  2311  0380                     l1785:
  2312  0380  0832               	movf	___awmod@divisor+1,w
  2313  0381  0234               	subwf	___awmod@dividend+1,w
  2314  0382  1D03               	skipz
  2315  0383  2B86               	goto	u1195
  2316  0384  0831               	movf	___awmod@divisor,w
  2317  0385  0233               	subwf	___awmod@dividend,w
  2318  0386                     u1195:
  2319  0386  1C03               	skipc
  2320  0387  2B89               	goto	u1191
  2321  0388  2B8A               	goto	u1190
  2322  0389                     u1191:
  2323  0389  2B90               	goto	l1789
  2324  038A                     u1190:
  2325  038A                     l1787:
  2326  038A  0831               	movf	___awmod@divisor,w
  2327  038B  02B3               	subwf	___awmod@dividend,f
  2328  038C  0832               	movf	___awmod@divisor+1,w
  2329  038D  1C03               	skipc
  2330  038E  03B4               	decf	___awmod@dividend+1,f
  2331  038F  02B4               	subwf	___awmod@dividend+1,f
  2332  0390                     l1789:
  2333  0390  3001               	movlw	1
  2334  0391                     u1205:
  2335  0391  1003               	clrc
  2336  0392  0CB2               	rrf	___awmod@divisor+1,f
  2337  0393  0CB1               	rrf	___awmod@divisor,f
  2338  0394  3EFF               	addlw	-1
  2339  0395  1D03               	skipz
  2340  0396  2B91               	goto	u1205
  2341  0397                     l1791:
  2342  0397  3001               	movlw	1
  2343  0398  02B5               	subwf	___awmod@counter,f
  2344  0399  1D03               	btfss	3,2
  2345  039A  2B9C               	goto	u1211
  2346  039B  2B9D               	goto	u1210
  2347  039C                     u1211:
  2348  039C  2B80               	goto	l1785
  2349  039D                     u1210:
  2350  039D                     l1793:
  2351  039D  0836               	movf	___awmod@sign,w
  2352  039E  1903               	btfsc	3,2
  2353  039F  2BA1               	goto	u1221
  2354  03A0  2BA2               	goto	u1220
  2355  03A1                     u1221:
  2356  03A1  2BA7               	goto	l1797
  2357  03A2                     u1220:
  2358  03A2                     l1795:
  2359  03A2  09B3               	comf	___awmod@dividend,f
  2360  03A3  09B4               	comf	___awmod@dividend+1,f
  2361  03A4  0AB3               	incf	___awmod@dividend,f
  2362  03A5  1903               	skipnz
  2363  03A6  0AB4               	incf	___awmod@dividend+1,f
  2364  03A7                     l1797:
  2365  03A7  0834               	movf	___awmod@dividend+1,w
  2366  03A8  00B2               	movwf	?___awmod+1
  2367  03A9  0833               	movf	___awmod@dividend,w
  2368  03AA  00B1               	movwf	?___awmod
  2369  03AB                     l601:
  2370  03AB  0008               	return
  2371  03AC                     __end_of___awmod:
  2372                           
  2373                           	psect	text5
  2374  0280                     __ptext5:	
  2375 ;; *************** function ___awdiv *****************
  2376 ;; Defined at:
  2377 ;;		line 5 in file "C:\Program Files\Microchip\xc8\v2.20\pic\sources\c90\common\awdiv.c"
  2378 ;; Parameters:    Size  Location     Type
  2379 ;;  divisor         2   17[BANK0 ] int 
  2380 ;;  dividend        2   19[BANK0 ] int 
  2381 ;; Auto vars:     Size  Location     Type
  2382 ;;  quotient        2   23[BANK0 ] int 
  2383 ;;  sign            1   22[BANK0 ] unsigned char 
  2384 ;;  counter         1   21[BANK0 ] unsigned char 
  2385 ;; Return value:  Size  Location     Type
  2386 ;;                  2   17[BANK0 ] int 
  2387 ;; Registers used:
  2388 ;;		wreg, status,2, status,0, btemp+1
  2389 ;; Tracked objects:
  2390 ;;		On entry : 0/0
  2391 ;;		On exit  : 0/0
  2392 ;;		Unchanged: 0/0
  2393 ;; Data sizes:     COMMON   BANK0   BANK1   BANK3   BANK2
  2394 ;;      Params:         0       4       0       0       0
  2395 ;;      Locals:         0       4       0       0       0
  2396 ;;      Temps:          0       0       0       0       0
  2397 ;;      Totals:         0       8       0       0       0
  2398 ;;Total ram usage:        8 bytes
  2399 ;; Hardware stack levels used:    1
  2400 ;; Hardware stack levels required when called:    4
  2401 ;; This function calls:
  2402 ;;		Nothing
  2403 ;; This function is called by:
  2404 ;;		_displayDeiredTempreture
  2405 ;; This function uses a non-reentrant model
  2406 ;;
  2407                           
  2408                           
  2409                           ;psect for function ___awdiv
  2410  0280                     ___awdiv:
  2411  0280                     l1719:	
  2412                           ;incstack = 0
  2413                           ; Regs used in ___awdiv: [wreg+status,2+status,0+btemp+1]
  2414                           
  2415  0280  1283               	bcf	3,5	;RP0=0, select bank0
  2416  0281  1303               	bcf	3,6	;RP1=0, select bank0
  2417  0282  01B6               	clrf	___awdiv@sign
  2418  0283                     l1721:
  2419  0283  1FB2               	btfss	___awdiv@divisor+1,7
  2420  0284  2A86               	goto	u1041
  2421  0285  2A87               	goto	u1040
  2422  0286                     u1041:
  2423  0286  2A8E               	goto	l1727
  2424  0287                     u1040:
  2425  0287                     l1723:
  2426  0287  09B1               	comf	___awdiv@divisor,f
  2427  0288  09B2               	comf	___awdiv@divisor+1,f
  2428  0289  0AB1               	incf	___awdiv@divisor,f
  2429  028A  1903               	skipnz
  2430  028B  0AB2               	incf	___awdiv@divisor+1,f
  2431  028C                     l1725:
  2432  028C  01B6               	clrf	___awdiv@sign
  2433  028D  0AB6               	incf	___awdiv@sign,f
  2434  028E                     l1727:
  2435  028E  1FB4               	btfss	___awdiv@dividend+1,7
  2436  028F  2A91               	goto	u1051
  2437  0290  2A92               	goto	u1050
  2438  0291                     u1051:
  2439  0291  2A9B               	goto	l1733
  2440  0292                     u1050:
  2441  0292                     l1729:
  2442  0292  09B3               	comf	___awdiv@dividend,f
  2443  0293  09B4               	comf	___awdiv@dividend+1,f
  2444  0294  0AB3               	incf	___awdiv@dividend,f
  2445  0295  1903               	skipnz
  2446  0296  0AB4               	incf	___awdiv@dividend+1,f
  2447  0297                     l1731:
  2448  0297  3001               	movlw	1
  2449  0298  00FF               	movwf	btemp+1
  2450  0299  087F               	movf	btemp+1,w
  2451  029A  06B6               	xorwf	___awdiv@sign,f
  2452  029B                     l1733:
  2453  029B  01B7               	clrf	___awdiv@quotient
  2454  029C  01B8               	clrf	___awdiv@quotient+1
  2455  029D                     l1735:
  2456  029D  0831               	movf	___awdiv@divisor,w
  2457  029E  0432               	iorwf	___awdiv@divisor+1,w
  2458  029F  1903               	btfsc	3,2
  2459  02A0  2AA2               	goto	u1061
  2460  02A1  2AA3               	goto	u1060
  2461  02A2                     u1061:
  2462  02A2  2ADA               	goto	l1755
  2463  02A3                     u1060:
  2464  02A3                     l1737:
  2465  02A3  01B5               	clrf	___awdiv@counter
  2466  02A4  0AB5               	incf	___awdiv@counter,f
  2467  02A5  2AB1               	goto	l1743
  2468  02A6                     l1739:
  2469  02A6  3001               	movlw	1
  2470  02A7                     u1075:
  2471  02A7  1003               	clrc
  2472  02A8  0DB1               	rlf	___awdiv@divisor,f
  2473  02A9  0DB2               	rlf	___awdiv@divisor+1,f
  2474  02AA  3EFF               	addlw	-1
  2475  02AB  1D03               	skipz
  2476  02AC  2AA7               	goto	u1075
  2477  02AD                     l1741:
  2478  02AD  3001               	movlw	1
  2479  02AE  00FF               	movwf	btemp+1
  2480  02AF  087F               	movf	btemp+1,w
  2481  02B0  07B5               	addwf	___awdiv@counter,f
  2482  02B1                     l1743:
  2483  02B1  1FB2               	btfss	___awdiv@divisor+1,7
  2484  02B2  2AB4               	goto	u1081
  2485  02B3  2AB5               	goto	u1080
  2486  02B4                     u1081:
  2487  02B4  2AA6               	goto	l1739
  2488  02B5                     u1080:
  2489  02B5                     l1745:
  2490  02B5  3001               	movlw	1
  2491  02B6                     u1095:
  2492  02B6  1003               	clrc
  2493  02B7  0DB7               	rlf	___awdiv@quotient,f
  2494  02B8  0DB8               	rlf	___awdiv@quotient+1,f
  2495  02B9  3EFF               	addlw	-1
  2496  02BA  1D03               	skipz
  2497  02BB  2AB6               	goto	u1095
  2498  02BC  0832               	movf	___awdiv@divisor+1,w
  2499  02BD  0234               	subwf	___awdiv@dividend+1,w
  2500  02BE  1D03               	skipz
  2501  02BF  2AC2               	goto	u1105
  2502  02C0  0831               	movf	___awdiv@divisor,w
  2503  02C1  0233               	subwf	___awdiv@dividend,w
  2504  02C2                     u1105:
  2505  02C2  1C03               	skipc
  2506  02C3  2AC5               	goto	u1101
  2507  02C4  2AC6               	goto	u1100
  2508  02C5                     u1101:
  2509  02C5  2ACD               	goto	l1751
  2510  02C6                     u1100:
  2511  02C6                     l1747:
  2512  02C6  0831               	movf	___awdiv@divisor,w
  2513  02C7  02B3               	subwf	___awdiv@dividend,f
  2514  02C8  0832               	movf	___awdiv@divisor+1,w
  2515  02C9  1C03               	skipc
  2516  02CA  03B4               	decf	___awdiv@dividend+1,f
  2517  02CB  02B4               	subwf	___awdiv@dividend+1,f
  2518  02CC                     l1749:
  2519  02CC  1437               	bsf	___awdiv@quotient,0
  2520  02CD                     l1751:
  2521  02CD  3001               	movlw	1
  2522  02CE                     u1115:
  2523  02CE  1003               	clrc
  2524  02CF  0CB2               	rrf	___awdiv@divisor+1,f
  2525  02D0  0CB1               	rrf	___awdiv@divisor,f
  2526  02D1  3EFF               	addlw	-1
  2527  02D2  1D03               	skipz
  2528  02D3  2ACE               	goto	u1115
  2529  02D4                     l1753:
  2530  02D4  3001               	movlw	1
  2531  02D5  02B5               	subwf	___awdiv@counter,f
  2532  02D6  1D03               	btfss	3,2
  2533  02D7  2AD9               	goto	u1121
  2534  02D8  2ADA               	goto	u1120
  2535  02D9                     u1121:
  2536  02D9  2AB5               	goto	l1745
  2537  02DA                     u1120:
  2538  02DA                     l1755:
  2539  02DA  0836               	movf	___awdiv@sign,w
  2540  02DB  1903               	btfsc	3,2
  2541  02DC  2ADE               	goto	u1131
  2542  02DD  2ADF               	goto	u1130
  2543  02DE                     u1131:
  2544  02DE  2AE4               	goto	l1759
  2545  02DF                     u1130:
  2546  02DF                     l1757:
  2547  02DF  09B7               	comf	___awdiv@quotient,f
  2548  02E0  09B8               	comf	___awdiv@quotient+1,f
  2549  02E1  0AB7               	incf	___awdiv@quotient,f
  2550  02E2  1903               	skipnz
  2551  02E3  0AB8               	incf	___awdiv@quotient+1,f
  2552  02E4                     l1759:
  2553  02E4  0838               	movf	___awdiv@quotient+1,w
  2554  02E5  00B2               	movwf	?___awdiv+1
  2555  02E6  0837               	movf	___awdiv@quotient,w
  2556  02E7  00B1               	movwf	?___awdiv
  2557  02E8                     l588:
  2558  02E8  0008               	return
  2559  02E9                     __end_of___awdiv:
  2560                           
  2561                           	psect	text6
  2562  0754                     __ptext6:	
  2563 ;; *************** function _EEPROM_Write *****************
  2564 ;; Defined at:
  2565 ;;		line 72 in file "ext_eeprom.c"
  2566 ;; Parameters:    Size  Location     Type
  2567 ;;  add             1    wreg     unsigned char 
  2568 ;;  data            1   18[BANK0 ] unsigned char 
  2569 ;; Auto vars:     Size  Location     Type
  2570 ;;  add             1   19[BANK0 ] unsigned char 
  2571 ;; Return value:  Size  Location     Type
  2572 ;;                  1    wreg      void 
  2573 ;; Registers used:
  2574 ;;		wreg, status,2, status,0, pclath, cstack
  2575 ;; Tracked objects:
  2576 ;;		On entry : 0/0
  2577 ;;		On exit  : 0/0
  2578 ;;		Unchanged: 0/0
  2579 ;; Data sizes:     COMMON   BANK0   BANK1   BANK3   BANK2
  2580 ;;      Params:         0       1       0       0       0
  2581 ;;      Locals:         0       1       0       0       0
  2582 ;;      Temps:          0       0       0       0       0
  2583 ;;      Totals:         0       2       0       0       0
  2584 ;;Total ram usage:        2 bytes
  2585 ;; Hardware stack levels used:    1
  2586 ;; Hardware stack levels required when called:    6
  2587 ;; This function calls:
  2588 ;;		_I2C_Master_RepeatedStart
  2589 ;;		_I2C_Master_Start
  2590 ;;		_I2C_Master_Stop
  2591 ;;		_I2C_Master_Write
  2592 ;; This function is called by:
  2593 ;;		_main
  2594 ;;		_flashDisplay
  2595 ;; This function uses a non-reentrant model
  2596 ;;
  2597                           
  2598                           
  2599                           ;psect for function _EEPROM_Write
  2600  0754                     _EEPROM_Write:
  2601                           
  2602                           ;incstack = 0
  2603 ;; hardware stack exceeded
  2604                           ; Regs used in _EEPROM_Write: [wreg+status,2+status,0+pclath+cstack]
  2605                           ;EEPROM_Write@add stored from wreg
  2606  0754  1283               	bcf	3,5	;RP0=0, select bank0
  2607  0755  1303               	bcf	3,6	;RP1=0, select bank0
  2608  0756  00B3               	movwf	EEPROM_Write@add
  2609  0757                     l1801:
  2610                           
  2611                           ;ext_eeprom.c: 72: void EEPROM_Write(unsigned char add, unsigned char data);ext_eeprom.c
      +                          : 73: {;ext_eeprom.c: 74:   I2C_Master_Start();
  2612  0757  120A  158A  2794  120A  118A  	fcall	_I2C_Master_Start
  2613                           
  2614                           ;ext_eeprom.c: 76:   while(I2C_Master_Write(0xA0))
  2615  075C  2F62               	goto	l290
  2616  075D                     l1803:
  2617                           
  2618                           ;ext_eeprom.c: 77:     I2C_Master_RepeatedStart();
  2619  075D  120A  158A  27AF  120A  118A  	fcall	_I2C_Master_RepeatedStart
  2620  0762                     l290:
  2621                           
  2622                           ;ext_eeprom.c: 76:   while(I2C_Master_Write(0xA0))
  2623  0762  30A0               	movlw	160
  2624  0763  120A  118A  27C5  120A  118A  	fcall	_I2C_Master_Write
  2625  0768  3A00               	xorlw	0
  2626  0769  1D03               	skipz
  2627  076A  2F6C               	goto	u1231
  2628  076B  2F6D               	goto	u1230
  2629  076C                     u1231:
  2630  076C  2F5D               	goto	l1803
  2631  076D                     u1230:
  2632  076D                     l1805:
  2633                           
  2634                           ;ext_eeprom.c: 78:   I2C_Master_Write(add);
  2635  076D  1283               	bcf	3,5	;RP0=0, select bank0
  2636  076E  1303               	bcf	3,6	;RP1=0, select bank0
  2637  076F  0833               	movf	EEPROM_Write@add,w
  2638  0770  120A  118A  27C5  120A  118A  	fcall	_I2C_Master_Write
  2639                           
  2640                           ;ext_eeprom.c: 79:   I2C_Master_Write(data);
  2641  0775  1283               	bcf	3,5	;RP0=0, select bank0
  2642  0776  1303               	bcf	3,6	;RP1=0, select bank0
  2643  0777  0832               	movf	EEPROM_Write@data,w
  2644  0778  120A  118A  27C5  120A  118A  	fcall	_I2C_Master_Write
  2645                           
  2646                           ;ext_eeprom.c: 80:   I2C_Master_Stop();
  2647  077D  120A  158A  279D  120A  118A  	fcall	_I2C_Master_Stop
  2648  0782                     l293:
  2649  0782  0008               	return
  2650  0783                     __end_of_EEPROM_Write:
  2651                           
  2652                           	psect	text7
  2653  0FAF                     __ptext7:	
  2654 ;; *************** function _I2C_Master_RepeatedStart *****************
  2655 ;; Defined at:
  2656 ;;		line 27 in file "ext_eeprom.c"
  2657 ;; Parameters:    Size  Location     Type
  2658 ;;		None
  2659 ;; Auto vars:     Size  Location     Type
  2660 ;;		None
  2661 ;; Return value:  Size  Location     Type
  2662 ;;                  1    wreg      void 
  2663 ;; Registers used:
  2664 ;;		wreg, status,2, status,0, pclath, cstack
  2665 ;; Tracked objects:
  2666 ;;		On entry : 0/0
  2667 ;;		On exit  : 0/0
  2668 ;;		Unchanged: 0/0
  2669 ;; Data sizes:     COMMON   BANK0   BANK1   BANK3   BANK2
  2670 ;;      Params:         0       0       0       0       0
  2671 ;;      Locals:         0       0       0       0       0
  2672 ;;      Temps:          0       0       0       0       0
  2673 ;;      Totals:         0       0       0       0       0
  2674 ;;Total ram usage:        0 bytes
  2675 ;; Hardware stack levels used:    1
  2676 ;; Hardware stack levels required when called:    5
  2677 ;; This function calls:
  2678 ;;		_I2C_Master_Wait
  2679 ;; This function is called by:
  2680 ;;		_EEPROM_Write
  2681 ;;		_EEPROM_Write_Page
  2682 ;;		_EEPROM_Read_Page
  2683 ;; This function uses a non-reentrant model
  2684 ;;
  2685                           
  2686                           
  2687                           ;psect for function _I2C_Master_RepeatedStart
  2688  0FAF                     _I2C_Master_RepeatedStart:
  2689  0FAF                     l1703:	
  2690                           ;incstack = 0
  2691 ;; hardware stack exceeded
  2692                           ; Regs used in _I2C_Master_RepeatedStart: [wreg+status,2+status,0+pclath+cstack]
  2693                           
  2694                           
  2695                           ;ext_eeprom.c: 29:   I2C_Master_Wait();
  2696  0FAF  120A  158A  27CF  120A  158A  	fcall	_I2C_Master_Wait
  2697  0FB4                     l1705:
  2698                           
  2699                           ;ext_eeprom.c: 30:   RSEN = 1;
  2700  0FB4  1683               	bsf	3,5	;RP0=1, select bank1
  2701  0FB5  1303               	bcf	3,6	;RP1=0, select bank1
  2702  0FB6  1491               	bsf	17,1	;volatile
  2703  0FB7                     l266:
  2704  0FB7  0008               	return
  2705  0FB8                     __end_of_I2C_Master_RepeatedStart:
  2706                           
  2707                           	psect	text8
  2708  0630                     __ptext8:	
  2709 ;; *************** function _on_state *****************
  2710 ;; Defined at:
  2711 ;;		line 148 in file "main.c"
  2712 ;; Parameters:    Size  Location     Type
  2713 ;;		None
  2714 ;; Auto vars:     Size  Location     Type
  2715 ;;		None
  2716 ;; Return value:  Size  Location     Type
  2717 ;;                  1    wreg      void 
  2718 ;; Registers used:
  2719 ;;		wreg, fsr0l, fsr0h, status,2, status,0, btemp+1, pclath, cstack
  2720 ;; Tracked objects:
  2721 ;;		On entry : 0/0
  2722 ;;		On exit  : 0/0
  2723 ;;		Unchanged: 0/0
  2724 ;; Data sizes:     COMMON   BANK0   BANK1   BANK3   BANK2
  2725 ;;      Params:         0       0       0       0       0
  2726 ;;      Locals:         0       0       0       0       0
  2727 ;;      Temps:          0       2       0       0       0
  2728 ;;      Totals:         0       2       0       0       0
  2729 ;;Total ram usage:        2 bytes
  2730 ;; Hardware stack levels used:    1
  2731 ;; Hardware stack levels required when called:    6
  2732 ;; This function calls:
  2733 ;;		_changeStatus
  2734 ;;		_coolerOn
  2735 ;;		_displayTempreture
  2736 ;;		_heaterOn
  2737 ;; This function is called by:
  2738 ;;		_main
  2739 ;; This function uses a non-reentrant model
  2740 ;;
  2741                           
  2742                           
  2743                           ;psect for function _on_state
  2744  0630                     _on_state:
  2745  0630                     l2155:	
  2746                           ;incstack = 0
  2747                           ; Regs used in _on_state: [wreg-fsr0h+status,2+status,0+btemp+1+pclath+cstack]
  2748                           
  2749                           
  2750                           ;main.c: 150:     TMR1ON = 1;
  2751  0630  1283               	bcf	3,5	;RP0=0, select bank0
  2752  0631  1303               	bcf	3,6	;RP1=0, select bank0
  2753  0632  1410               	bsf	16,0	;volatile
  2754                           
  2755                           ;main.c: 151:     if(PORTBbits.RB3==0||PORTBbits.RB4==0)
  2756  0633  1D86               	btfss	6,3	;volatile
  2757  0634  2E36               	goto	u1871
  2758  0635  2E37               	goto	u1870
  2759  0636                     u1871:
  2760  0636  2E3B               	goto	l2159
  2761  0637                     u1870:
  2762  0637                     l2157:
  2763  0637  1A06               	btfsc	6,4	;volatile
  2764  0638  2E3A               	goto	u1881
  2765  0639  2E3B               	goto	u1880
  2766  063A                     u1881:
  2767  063A  2E40               	goto	l2163
  2768  063B                     u1880:
  2769  063B                     l2159:
  2770                           
  2771                           ;main.c: 152:     {;main.c: 153:         state=SETTING_STATE;
  2772  063B  3002               	movlw	2
  2773  063C  00FF               	movwf	btemp+1
  2774  063D  087F               	movf	btemp+1,w
  2775  063E  00DE               	movwf	_state
  2776  063F  2E70               	goto	l118
  2777  0640                     l2163:
  2778                           
  2779                           ;main.c: 156:     displayTempreture(TEMPRETURE);
  2780  0640  0856               	movf	_TEMPRETURE+1,w
  2781  0641  00B9               	movwf	displayTempreture@TEMPRETURE+1
  2782  0642  0855               	movf	_TEMPRETURE,w
  2783  0643  00B8               	movwf	displayTempreture@TEMPRETURE
  2784  0644  120A  118A  24AF  120A  118A  	fcall	_displayTempreture
  2785  0649                     l2165:
  2786                           
  2787                           ;main.c: 157:     changeStatus();
  2788  0649  120A  118A  26E7  120A  118A  	fcall	_changeStatus
  2789                           
  2790                           ;main.c: 158:     switch (temp_state)
  2791  064E  2E5B               	goto	l2173
  2792  064F                     l2167:
  2793                           
  2794                           ;main.c: 163:             heaterOn();
  2795  064F  120A  158A  2789  120A  118A  	fcall	_heaterOn
  2796                           
  2797                           ;main.c: 164:             break;
  2798  0654  2E70               	goto	l118
  2799  0655                     l2169:
  2800                           
  2801                           ;main.c: 166:             coolerOn();
  2802  0655  120A  158A  2784  120A  118A  	fcall	_coolerOn
  2803                           
  2804                           ;main.c: 167:             break;
  2805  065A  2E70               	goto	l118
  2806  065B                     l2173:
  2807  065B  1283               	bcf	3,5	;RP0=0, select bank0
  2808  065C  1303               	bcf	3,6	;RP1=0, select bank0
  2809  065D  085A               	movf	_temp_state,w
  2810  065E  00BE               	movwf	??_on_state
  2811  065F  01BF               	clrf	??_on_state+1
  2812                           
  2813                           ; Switch on 2 bytes has been partitioned into a top level switch of size 1, and 1 sub-sw
      +                          itches
  2814                           ; Switch size 1, requested type "simple"
  2815                           ; Number of cases is 1, Range of values is 0 to 0
  2816                           ; switch strategies available:
  2817                           ; Name         Instructions Cycles
  2818                           ; simple_byte            4     3 (average)
  2819                           ; direct_byte           11     8 (fixed)
  2820                           ; jumptable            260     6 (fixed)
  2821                           ;	Chosen strategy is simple_byte
  2822  0660  083F               	movf	??_on_state+1,w
  2823  0661  3A00               	xorlw	0	; case 0
  2824  0662  1903               	skipnz
  2825  0663  2E65               	goto	l2613
  2826  0664  2E70               	goto	l118
  2827  0665                     l2613:
  2828                           
  2829                           ; Switch size 1, requested type "simple"
  2830                           ; Number of cases is 3, Range of values is 0 to 2
  2831                           ; switch strategies available:
  2832                           ; Name         Instructions Cycles
  2833                           ; simple_byte           10     6 (average)
  2834                           ; direct_byte           17     8 (fixed)
  2835                           ; jumptable            260     6 (fixed)
  2836                           ;	Chosen strategy is simple_byte
  2837  0665  083E               	movf	??_on_state,w
  2838  0666  3A00               	xorlw	0	; case 0
  2839  0667  1903               	skipnz
  2840  0668  2E70               	goto	l118
  2841  0669  3A01               	xorlw	1	; case 1
  2842  066A  1903               	skipnz
  2843  066B  2E4F               	goto	l2167
  2844  066C  3A03               	xorlw	3	; case 2
  2845  066D  1903               	skipnz
  2846  066E  2E55               	goto	l2169
  2847  066F  2E70               	goto	l118
  2848  0670                     l118:
  2849  0670  0008               	return
  2850  0671                     __end_of_on_state:
  2851                           
  2852                           	psect	text9
  2853  0F89                     __ptext9:	
  2854 ;; *************** function _heaterOn *****************
  2855 ;; Defined at:
  2856 ;;		line 3 in file "heater.c"
  2857 ;; Parameters:    Size  Location     Type
  2858 ;;		None
  2859 ;; Auto vars:     Size  Location     Type
  2860 ;;		None
  2861 ;; Return value:  Size  Location     Type
  2862 ;;                  1    wreg      void 
  2863 ;; Registers used:
  2864 ;;		None
  2865 ;; Tracked objects:
  2866 ;;		On entry : 0/0
  2867 ;;		On exit  : 0/0
  2868 ;;		Unchanged: 0/0
  2869 ;; Data sizes:     COMMON   BANK0   BANK1   BANK3   BANK2
  2870 ;;      Params:         0       0       0       0       0
  2871 ;;      Locals:         0       0       0       0       0
  2872 ;;      Temps:          0       0       0       0       0
  2873 ;;      Totals:         0       0       0       0       0
  2874 ;;Total ram usage:        0 bytes
  2875 ;; Hardware stack levels used:    1
  2876 ;; Hardware stack levels required when called:    4
  2877 ;; This function calls:
  2878 ;;		Nothing
  2879 ;; This function is called by:
  2880 ;;		_on_state
  2881 ;; This function uses a non-reentrant model
  2882 ;;
  2883                           
  2884                           
  2885                           ;psect for function _heaterOn
  2886  0F89                     _heaterOn:
  2887  0F89                     l2039:	
  2888                           ;incstack = 0
  2889                           ; Regs used in _heaterOn: []
  2890                           
  2891                           
  2892                           ;heater.c: 5:     RC2=0;
  2893  0F89  1283               	bcf	3,5	;RP0=0, select bank0
  2894  0F8A  1303               	bcf	3,6	;RP1=0, select bank0
  2895  0F8B  1107               	bcf	7,2	;volatile
  2896                           
  2897                           ;heater.c: 6:     RC5=1;
  2898  0F8C  1687               	bsf	7,5	;volatile
  2899  0F8D                     l338:
  2900  0F8D  0008               	return
  2901  0F8E                     __end_of_heaterOn:
  2902                           
  2903                           	psect	text10
  2904  04AF                     __ptext10:	
  2905 ;; *************** function _displayTempreture *****************
  2906 ;; Defined at:
  2907 ;;		line 19 in file "seven_segment.c"
  2908 ;; Parameters:    Size  Location     Type
  2909 ;;  TEMPRETURE      2   24[BANK0 ] unsigned int 
  2910 ;; Auto vars:     Size  Location     Type
  2911 ;;  high            1   29[BANK0 ] unsigned char 
  2912 ;;  low             1   28[BANK0 ] unsigned char 
  2913 ;; Return value:  Size  Location     Type
  2914 ;;                  1    wreg      void 
  2915 ;; Registers used:
  2916 ;;		wreg, fsr0l, fsr0h, status,2, status,0, btemp+1, pclath, cstack
  2917 ;; Tracked objects:
  2918 ;;		On entry : 0/0
  2919 ;;		On exit  : 0/0
  2920 ;;		Unchanged: 0/0
  2921 ;; Data sizes:     COMMON   BANK0   BANK1   BANK3   BANK2
  2922 ;;      Params:         0       2       0       0       0
  2923 ;;      Locals:         0       2       0       0       0
  2924 ;;      Temps:          0       2       0       0       0
  2925 ;;      Totals:         0       6       0       0       0
  2926 ;;Total ram usage:        6 bytes
  2927 ;; Hardware stack levels used:    1
  2928 ;; Hardware stack levels required when called:    5
  2929 ;; This function calls:
  2930 ;;		___lwdiv
  2931 ;;		___lwmod
  2932 ;;		_lcd_writeNumber
  2933 ;; This function is called by:
  2934 ;;		_on_state
  2935 ;; This function uses a non-reentrant model
  2936 ;;
  2937                           
  2938                           
  2939                           ;psect for function _displayTempreture
  2940  04AF                     _displayTempreture:
  2941  04AF                     l2001:	
  2942                           ;incstack = 0
  2943                           ; Regs used in _displayTempreture: [wreg-fsr0h+status,2+status,0+btemp+1+pclath+cstack]
  2944                           
  2945                           
  2946                           ;seven_segment.c: 19: void displayTempreture(unsigned int TEMPRETURE);seven_segment.c: 2
      +                          0: {;seven_segment.c: 21:     unsigned char low=TEMPRETURE%10;
  2947  04AF  300A               	movlw	10
  2948  04B0  1283               	bcf	3,5	;RP0=0, select bank0
  2949  04B1  1303               	bcf	3,6	;RP1=0, select bank0
  2950  04B2  00B1               	movwf	___lwmod@divisor
  2951  04B3  3000               	movlw	0
  2952  04B4  00B2               	movwf	___lwmod@divisor+1
  2953  04B5  0839               	movf	displayTempreture@TEMPRETURE+1,w
  2954  04B6  00B4               	movwf	___lwmod@dividend+1
  2955  04B7  0838               	movf	displayTempreture@TEMPRETURE,w
  2956  04B8  00B3               	movwf	___lwmod@dividend
  2957  04B9  120A  118A  2671  120A  118A  	fcall	___lwmod
  2958  04BE  1283               	bcf	3,5	;RP0=0, select bank0
  2959  04BF  1303               	bcf	3,6	;RP1=0, select bank0
  2960  04C0  0831               	movf	?___lwmod,w
  2961  04C1  00FF               	movwf	btemp+1
  2962  04C2  087F               	movf	btemp+1,w
  2963  04C3  00BC               	movwf	displayTempreture@low
  2964                           
  2965                           ;seven_segment.c: 22:     unsigned char high=TEMPRETURE/10;
  2966  04C4  300A               	movlw	10
  2967  04C5  00B1               	movwf	___lwdiv@divisor
  2968  04C6  3000               	movlw	0
  2969  04C7  00B2               	movwf	___lwdiv@divisor+1
  2970  04C8  0839               	movf	displayTempreture@TEMPRETURE+1,w
  2971  04C9  00B4               	movwf	___lwdiv@dividend+1
  2972  04CA  0838               	movf	displayTempreture@TEMPRETURE,w
  2973  04CB  00B3               	movwf	___lwdiv@dividend
  2974  04CC  120A  118A  25A6  120A  118A  	fcall	___lwdiv
  2975  04D1  1283               	bcf	3,5	;RP0=0, select bank0
  2976  04D2  1303               	bcf	3,6	;RP1=0, select bank0
  2977  04D3  0831               	movf	?___lwdiv,w
  2978  04D4  00FF               	movwf	btemp+1
  2979  04D5  087F               	movf	btemp+1,w
  2980  04D6  00BD               	movwf	displayTempreture@high
  2981  04D7                     l2003:
  2982                           
  2983                           ;seven_segment.c: 23:      PORTAbits.RA5=1;
  2984  04D7  1685               	bsf	5,5	;volatile
  2985  04D8                     l2005:
  2986                           
  2987                           ;seven_segment.c: 24:     lcd_writeNumber(low);
  2988  04D8  083C               	movf	displayTempreture@low,w
  2989  04D9  120A  118A  27DC  120A  118A  	fcall	_lcd_writeNumber
  2990  04DE                     l2007:
  2991                           
  2992                           ;seven_segment.c: 25:     _delay((unsigned long)((10)*(8000000/4000.0)));
  2993  04DE  301A               	movlw	26
  2994  04DF  1283               	bcf	3,5	;RP0=0, select bank0
  2995  04E0  1303               	bcf	3,6	;RP1=0, select bank0
  2996  04E1  00BB               	movwf	??_displayTempreture+1
  2997  04E2  30F7               	movlw	247
  2998  04E3  00BA               	movwf	??_displayTempreture
  2999  04E4                     u2107:
  3000  04E4  0BBA               	decfsz	??_displayTempreture,f
  3001  04E5  2CE4               	goto	u2107
  3002  04E6  0BBB               	decfsz	??_displayTempreture+1,f
  3003  04E7  2CE4               	goto	u2107
  3004  04E8  2CE9               	nop2
  3005  04E9                     l2009:
  3006                           
  3007                           ;seven_segment.c: 26:     PORTAbits.RA5=0;
  3008  04E9  1283               	bcf	3,5	;RP0=0, select bank0
  3009  04EA  1303               	bcf	3,6	;RP1=0, select bank0
  3010  04EB  1285               	bcf	5,5	;volatile
  3011  04EC                     l2011:
  3012                           
  3013                           ;seven_segment.c: 27:     lcd_writeNumber(high);
  3014  04EC  083D               	movf	displayTempreture@high,w
  3015  04ED  120A  118A  27DC  120A  118A  	fcall	_lcd_writeNumber
  3016  04F2                     l2013:
  3017                           
  3018                           ;seven_segment.c: 28:     PORTAbits.RA4=1;
  3019  04F2  1283               	bcf	3,5	;RP0=0, select bank0
  3020  04F3  1303               	bcf	3,6	;RP1=0, select bank0
  3021  04F4  1605               	bsf	5,4	;volatile
  3022  04F5                     l2015:
  3023                           
  3024                           ;seven_segment.c: 29:     _delay((unsigned long)((10)*(8000000/4000.0)));
  3025  04F5  301A               	movlw	26
  3026  04F6  1283               	bcf	3,5	;RP0=0, select bank0
  3027  04F7  1303               	bcf	3,6	;RP1=0, select bank0
  3028  04F8  00BB               	movwf	??_displayTempreture+1
  3029  04F9  30F7               	movlw	247
  3030  04FA  00BA               	movwf	??_displayTempreture
  3031  04FB                     u2117:
  3032  04FB  0BBA               	decfsz	??_displayTempreture,f
  3033  04FC  2CFB               	goto	u2117
  3034  04FD  0BBB               	decfsz	??_displayTempreture+1,f
  3035  04FE  2CFB               	goto	u2117
  3036  04FF  2D00               	nop2
  3037  0500                     l2017:
  3038                           
  3039                           ;seven_segment.c: 30:     PORTAbits.RA4=0;
  3040  0500  1283               	bcf	3,5	;RP0=0, select bank0
  3041  0501  1303               	bcf	3,6	;RP1=0, select bank0
  3042  0502  1205               	bcf	5,4	;volatile
  3043  0503                     l218:
  3044  0503  0008               	return
  3045  0504                     __end_of_displayTempreture:
  3046                           
  3047                           	psect	text11
  3048  07DC                     __ptext11:	
  3049 ;; *************** function _lcd_writeNumber *****************
  3050 ;; Defined at:
  3051 ;;		line 7 in file "seven_segment.c"
  3052 ;; Parameters:    Size  Location     Type
  3053 ;;  number          1    wreg     unsigned char 
  3054 ;; Auto vars:     Size  Location     Type
  3055 ;;  number          1   18[BANK0 ] unsigned char 
  3056 ;;  code            1   17[BANK0 ] unsigned char 
  3057 ;; Return value:  Size  Location     Type
  3058 ;;                  1    wreg      void 
  3059 ;; Registers used:
  3060 ;;		wreg, fsr0l, fsr0h, status,2, status,0, btemp+1
  3061 ;; Tracked objects:
  3062 ;;		On entry : 0/0
  3063 ;;		On exit  : 0/0
  3064 ;;		Unchanged: 0/0
  3065 ;; Data sizes:     COMMON   BANK0   BANK1   BANK3   BANK2
  3066 ;;      Params:         0       0       0       0       0
  3067 ;;      Locals:         0       2       0       0       0
  3068 ;;      Temps:          0       0       0       0       0
  3069 ;;      Totals:         0       2       0       0       0
  3070 ;;Total ram usage:        2 bytes
  3071 ;; Hardware stack levels used:    1
  3072 ;; Hardware stack levels required when called:    4
  3073 ;; This function calls:
  3074 ;;		Nothing
  3075 ;; This function is called by:
  3076 ;;		_displayTempreture
  3077 ;;		_displayDeiredTempreture
  3078 ;; This function uses a non-reentrant model
  3079 ;;
  3080                           
  3081                           
  3082                           ;psect for function _lcd_writeNumber
  3083  07DC                     _lcd_writeNumber:
  3084                           
  3085                           ;incstack = 0
  3086                           ; Regs used in _lcd_writeNumber: [wreg-fsr0h+status,2+status,0+btemp+1]
  3087                           ;lcd_writeNumber@number stored from wreg
  3088  07DC  1283               	bcf	3,5	;RP0=0, select bank0
  3089  07DD  1303               	bcf	3,6	;RP1=0, select bank0
  3090  07DE  00B2               	movwf	lcd_writeNumber@number
  3091  07DF                     l1691:
  3092                           
  3093                           ;seven_segment.c: 7: void lcd_writeNumber(unsigned char number);seven_segment.c: 8: {;se
      +                          ven_segment.c: 9:     if(number>=0 && number<10 )
  3094  07DF  300A               	movlw	10
  3095  07E0  0232               	subwf	lcd_writeNumber@number,w
  3096  07E1  1803               	skipnc
  3097  07E2  2FE4               	goto	u1021
  3098  07E3  2FE5               	goto	u1020
  3099  07E4                     u1021:
  3100  07E4  2FF0               	goto	l1697
  3101  07E5                     u1020:
  3102  07E5                     l1693:
  3103                           
  3104                           ;seven_segment.c: 10:     {;seven_segment.c: 11:         unsigned char code=segments_cod
      +                          e[number];
  3105  07E5  0832               	movf	lcd_writeNumber@number,w
  3106  07E6  3E46               	addlw	(low (_segments_code| 0))& (0+255)
  3107  07E7  0084               	movwf	4
  3108  07E8  1383               	bcf	3,7	;select IRP bank0
  3109  07E9  0800               	movf	0,w
  3110  07EA  00FF               	movwf	btemp+1
  3111  07EB  087F               	movf	btemp+1,w
  3112  07EC  00B1               	movwf	lcd_writeNumber@code
  3113  07ED                     l1695:
  3114                           
  3115                           ;seven_segment.c: 12:         PORTD=code;
  3116  07ED  0831               	movf	lcd_writeNumber@code,w
  3117  07EE  0088               	movwf	8	;volatile
  3118                           
  3119                           ;seven_segment.c: 13:     }
  3120  07EF  2FF1               	goto	l215
  3121  07F0                     l1697:
  3122                           
  3123                           ;seven_segment.c: 15:         PORTD=0;
  3124  07F0  0188               	clrf	8	;volatile
  3125  07F1                     l215:
  3126  07F1  0008               	return
  3127  07F2                     __end_of_lcd_writeNumber:
  3128                           
  3129                           	psect	text12
  3130  0671                     __ptext12:	
  3131 ;; *************** function ___lwmod *****************
  3132 ;; Defined at:
  3133 ;;		line 5 in file "C:\Program Files\Microchip\xc8\v2.20\pic\sources\c90\common\lwmod.c"
  3134 ;; Parameters:    Size  Location     Type
  3135 ;;  divisor         2   17[BANK0 ] unsigned int 
  3136 ;;  dividend        2   19[BANK0 ] unsigned int 
  3137 ;; Auto vars:     Size  Location     Type
  3138 ;;  counter         1   21[BANK0 ] unsigned char 
  3139 ;; Return value:  Size  Location     Type
  3140 ;;                  2   17[BANK0 ] unsigned int 
  3141 ;; Registers used:
  3142 ;;		wreg, status,2, status,0, btemp+1
  3143 ;; Tracked objects:
  3144 ;;		On entry : 0/0
  3145 ;;		On exit  : 0/0
  3146 ;;		Unchanged: 0/0
  3147 ;; Data sizes:     COMMON   BANK0   BANK1   BANK3   BANK2
  3148 ;;      Params:         0       4       0       0       0
  3149 ;;      Locals:         0       1       0       0       0
  3150 ;;      Temps:          0       0       0       0       0
  3151 ;;      Totals:         0       5       0       0       0
  3152 ;;Total ram usage:        5 bytes
  3153 ;; Hardware stack levels used:    1
  3154 ;; Hardware stack levels required when called:    4
  3155 ;; This function calls:
  3156 ;;		Nothing
  3157 ;; This function is called by:
  3158 ;;		_displayTempreture
  3159 ;; This function uses a non-reentrant model
  3160 ;;
  3161                           
  3162                           
  3163                           ;psect for function ___lwmod
  3164  0671                     ___lwmod:
  3165  0671                     l1851:	
  3166                           ;incstack = 0
  3167                           ; Regs used in ___lwmod: [wreg+status,2+status,0+btemp+1]
  3168                           
  3169  0671  1283               	bcf	3,5	;RP0=0, select bank0
  3170  0672  1303               	bcf	3,6	;RP1=0, select bank0
  3171  0673  0831               	movf	___lwmod@divisor,w
  3172  0674  0432               	iorwf	___lwmod@divisor+1,w
  3173  0675  1903               	btfsc	3,2
  3174  0676  2E78               	goto	u1311
  3175  0677  2E79               	goto	u1310
  3176  0678                     u1311:
  3177  0678  2EA8               	goto	l1869
  3178  0679                     u1310:
  3179  0679                     l1853:
  3180  0679  01B5               	clrf	___lwmod@counter
  3181  067A  0AB5               	incf	___lwmod@counter,f
  3182  067B  2E87               	goto	l1859
  3183  067C                     l1855:
  3184  067C  3001               	movlw	1
  3185  067D                     u1325:
  3186  067D  1003               	clrc
  3187  067E  0DB1               	rlf	___lwmod@divisor,f
  3188  067F  0DB2               	rlf	___lwmod@divisor+1,f
  3189  0680  3EFF               	addlw	-1
  3190  0681  1D03               	skipz
  3191  0682  2E7D               	goto	u1325
  3192  0683                     l1857:
  3193  0683  3001               	movlw	1
  3194  0684  00FF               	movwf	btemp+1
  3195  0685  087F               	movf	btemp+1,w
  3196  0686  07B5               	addwf	___lwmod@counter,f
  3197  0687                     l1859:
  3198  0687  1FB2               	btfss	___lwmod@divisor+1,7
  3199  0688  2E8A               	goto	u1331
  3200  0689  2E8B               	goto	u1330
  3201  068A                     u1331:
  3202  068A  2E7C               	goto	l1855
  3203  068B                     u1330:
  3204  068B                     l1861:
  3205  068B  0832               	movf	___lwmod@divisor+1,w
  3206  068C  0234               	subwf	___lwmod@dividend+1,w
  3207  068D  1D03               	skipz
  3208  068E  2E91               	goto	u1345
  3209  068F  0831               	movf	___lwmod@divisor,w
  3210  0690  0233               	subwf	___lwmod@dividend,w
  3211  0691                     u1345:
  3212  0691  1C03               	skipc
  3213  0692  2E94               	goto	u1341
  3214  0693  2E95               	goto	u1340
  3215  0694                     u1341:
  3216  0694  2E9B               	goto	l1865
  3217  0695                     u1340:
  3218  0695                     l1863:
  3219  0695  0831               	movf	___lwmod@divisor,w
  3220  0696  02B3               	subwf	___lwmod@dividend,f
  3221  0697  0832               	movf	___lwmod@divisor+1,w
  3222  0698  1C03               	skipc
  3223  0699  03B4               	decf	___lwmod@dividend+1,f
  3224  069A  02B4               	subwf	___lwmod@dividend+1,f
  3225  069B                     l1865:
  3226  069B  3001               	movlw	1
  3227  069C                     u1355:
  3228  069C  1003               	clrc
  3229  069D  0CB2               	rrf	___lwmod@divisor+1,f
  3230  069E  0CB1               	rrf	___lwmod@divisor,f
  3231  069F  3EFF               	addlw	-1
  3232  06A0  1D03               	skipz
  3233  06A1  2E9C               	goto	u1355
  3234  06A2                     l1867:
  3235  06A2  3001               	movlw	1
  3236  06A3  02B5               	subwf	___lwmod@counter,f
  3237  06A4  1D03               	btfss	3,2
  3238  06A5  2EA7               	goto	u1361
  3239  06A6  2EA8               	goto	u1360
  3240  06A7                     u1361:
  3241  06A7  2E8B               	goto	l1861
  3242  06A8                     u1360:
  3243  06A8                     l1869:
  3244  06A8  0834               	movf	___lwmod@dividend+1,w
  3245  06A9  00B2               	movwf	?___lwmod+1
  3246  06AA  0833               	movf	___lwmod@dividend,w
  3247  06AB  00B1               	movwf	?___lwmod
  3248  06AC                     l717:
  3249  06AC  0008               	return
  3250  06AD                     __end_of___lwmod:
  3251                           
  3252                           	psect	text13
  3253  05A6                     __ptext13:	
  3254 ;; *************** function ___lwdiv *****************
  3255 ;; Defined at:
  3256 ;;		line 5 in file "C:\Program Files\Microchip\xc8\v2.20\pic\sources\c90\common\lwdiv.c"
  3257 ;; Parameters:    Size  Location     Type
  3258 ;;  divisor         2   17[BANK0 ] unsigned int 
  3259 ;;  dividend        2   19[BANK0 ] unsigned int 
  3260 ;; Auto vars:     Size  Location     Type
  3261 ;;  quotient        2   21[BANK0 ] unsigned int 
  3262 ;;  counter         1   23[BANK0 ] unsigned char 
  3263 ;; Return value:  Size  Location     Type
  3264 ;;                  2   17[BANK0 ] unsigned int 
  3265 ;; Registers used:
  3266 ;;		wreg, status,2, status,0, btemp+1
  3267 ;; Tracked objects:
  3268 ;;		On entry : 0/0
  3269 ;;		On exit  : 0/0
  3270 ;;		Unchanged: 0/0
  3271 ;; Data sizes:     COMMON   BANK0   BANK1   BANK3   BANK2
  3272 ;;      Params:         0       4       0       0       0
  3273 ;;      Locals:         0       3       0       0       0
  3274 ;;      Temps:          0       0       0       0       0
  3275 ;;      Totals:         0       7       0       0       0
  3276 ;;Total ram usage:        7 bytes
  3277 ;; Hardware stack levels used:    1
  3278 ;; Hardware stack levels required when called:    4
  3279 ;; This function calls:
  3280 ;;		Nothing
  3281 ;; This function is called by:
  3282 ;;		_displayTempreture
  3283 ;; This function uses a non-reentrant model
  3284 ;;
  3285                           
  3286                           
  3287                           ;psect for function ___lwdiv
  3288  05A6                     ___lwdiv:
  3289  05A6                     l1825:	
  3290                           ;incstack = 0
  3291                           ; Regs used in ___lwdiv: [wreg+status,2+status,0+btemp+1]
  3292                           
  3293  05A6  1283               	bcf	3,5	;RP0=0, select bank0
  3294  05A7  1303               	bcf	3,6	;RP1=0, select bank0
  3295  05A8  01B5               	clrf	___lwdiv@quotient
  3296  05A9  01B6               	clrf	___lwdiv@quotient+1
  3297  05AA                     l1827:
  3298  05AA  0831               	movf	___lwdiv@divisor,w
  3299  05AB  0432               	iorwf	___lwdiv@divisor+1,w
  3300  05AC  1903               	btfsc	3,2
  3301  05AD  2DAF               	goto	u1241
  3302  05AE  2DB0               	goto	u1240
  3303  05AF                     u1241:
  3304  05AF  2DE7               	goto	l1847
  3305  05B0                     u1240:
  3306  05B0                     l1829:
  3307  05B0  01B7               	clrf	___lwdiv@counter
  3308  05B1  0AB7               	incf	___lwdiv@counter,f
  3309  05B2  2DBE               	goto	l1835
  3310  05B3                     l1831:
  3311  05B3  3001               	movlw	1
  3312  05B4                     u1255:
  3313  05B4  1003               	clrc
  3314  05B5  0DB1               	rlf	___lwdiv@divisor,f
  3315  05B6  0DB2               	rlf	___lwdiv@divisor+1,f
  3316  05B7  3EFF               	addlw	-1
  3317  05B8  1D03               	skipz
  3318  05B9  2DB4               	goto	u1255
  3319  05BA                     l1833:
  3320  05BA  3001               	movlw	1
  3321  05BB  00FF               	movwf	btemp+1
  3322  05BC  087F               	movf	btemp+1,w
  3323  05BD  07B7               	addwf	___lwdiv@counter,f
  3324  05BE                     l1835:
  3325  05BE  1FB2               	btfss	___lwdiv@divisor+1,7
  3326  05BF  2DC1               	goto	u1261
  3327  05C0  2DC2               	goto	u1260
  3328  05C1                     u1261:
  3329  05C1  2DB3               	goto	l1831
  3330  05C2                     u1260:
  3331  05C2                     l1837:
  3332  05C2  3001               	movlw	1
  3333  05C3                     u1275:
  3334  05C3  1003               	clrc
  3335  05C4  0DB5               	rlf	___lwdiv@quotient,f
  3336  05C5  0DB6               	rlf	___lwdiv@quotient+1,f
  3337  05C6  3EFF               	addlw	-1
  3338  05C7  1D03               	skipz
  3339  05C8  2DC3               	goto	u1275
  3340  05C9  0832               	movf	___lwdiv@divisor+1,w
  3341  05CA  0234               	subwf	___lwdiv@dividend+1,w
  3342  05CB  1D03               	skipz
  3343  05CC  2DCF               	goto	u1285
  3344  05CD  0831               	movf	___lwdiv@divisor,w
  3345  05CE  0233               	subwf	___lwdiv@dividend,w
  3346  05CF                     u1285:
  3347  05CF  1C03               	skipc
  3348  05D0  2DD2               	goto	u1281
  3349  05D1  2DD3               	goto	u1280
  3350  05D2                     u1281:
  3351  05D2  2DDA               	goto	l1843
  3352  05D3                     u1280:
  3353  05D3                     l1839:
  3354  05D3  0831               	movf	___lwdiv@divisor,w
  3355  05D4  02B3               	subwf	___lwdiv@dividend,f
  3356  05D5  0832               	movf	___lwdiv@divisor+1,w
  3357  05D6  1C03               	skipc
  3358  05D7  03B4               	decf	___lwdiv@dividend+1,f
  3359  05D8  02B4               	subwf	___lwdiv@dividend+1,f
  3360  05D9                     l1841:
  3361  05D9  1435               	bsf	___lwdiv@quotient,0
  3362  05DA                     l1843:
  3363  05DA  3001               	movlw	1
  3364  05DB                     u1295:
  3365  05DB  1003               	clrc
  3366  05DC  0CB2               	rrf	___lwdiv@divisor+1,f
  3367  05DD  0CB1               	rrf	___lwdiv@divisor,f
  3368  05DE  3EFF               	addlw	-1
  3369  05DF  1D03               	skipz
  3370  05E0  2DDB               	goto	u1295
  3371  05E1                     l1845:
  3372  05E1  3001               	movlw	1
  3373  05E2  02B7               	subwf	___lwdiv@counter,f
  3374  05E3  1D03               	btfss	3,2
  3375  05E4  2DE6               	goto	u1301
  3376  05E5  2DE7               	goto	u1300
  3377  05E6                     u1301:
  3378  05E6  2DC2               	goto	l1837
  3379  05E7                     u1300:
  3380  05E7                     l1847:
  3381  05E7  0836               	movf	___lwdiv@quotient+1,w
  3382  05E8  00B2               	movwf	?___lwdiv+1
  3383  05E9  0835               	movf	___lwdiv@quotient,w
  3384  05EA  00B1               	movwf	?___lwdiv
  3385  05EB                     l707:
  3386  05EB  0008               	return
  3387  05EC                     __end_of___lwdiv:
  3388                           
  3389                           	psect	text14
  3390  0F84                     __ptext14:	
  3391 ;; *************** function _coolerOn *****************
  3392 ;; Defined at:
  3393 ;;		line 3 in file "cooler.c"
  3394 ;; Parameters:    Size  Location     Type
  3395 ;;		None
  3396 ;; Auto vars:     Size  Location     Type
  3397 ;;		None
  3398 ;; Return value:  Size  Location     Type
  3399 ;;                  1    wreg      void 
  3400 ;; Registers used:
  3401 ;;		None
  3402 ;; Tracked objects:
  3403 ;;		On entry : 0/0
  3404 ;;		On exit  : 0/0
  3405 ;;		Unchanged: 0/0
  3406 ;; Data sizes:     COMMON   BANK0   BANK1   BANK3   BANK2
  3407 ;;      Params:         0       0       0       0       0
  3408 ;;      Locals:         0       0       0       0       0
  3409 ;;      Temps:          0       0       0       0       0
  3410 ;;      Totals:         0       0       0       0       0
  3411 ;;Total ram usage:        0 bytes
  3412 ;; Hardware stack levels used:    1
  3413 ;; Hardware stack levels required when called:    4
  3414 ;; This function calls:
  3415 ;;		Nothing
  3416 ;; This function is called by:
  3417 ;;		_on_state
  3418 ;; This function uses a non-reentrant model
  3419 ;;
  3420                           
  3421                           
  3422                           ;psect for function _coolerOn
  3423  0F84                     _coolerOn:
  3424  0F84                     l2041:	
  3425                           ;incstack = 0
  3426                           ; Regs used in _coolerOn: []
  3427                           
  3428                           
  3429                           ;cooler.c: 5:     RC5 = 0;
  3430  0F84  1283               	bcf	3,5	;RP0=0, select bank0
  3431  0F85  1303               	bcf	3,6	;RP1=0, select bank0
  3432  0F86  1287               	bcf	7,5	;volatile
  3433                           
  3434                           ;cooler.c: 6:     RC2=1;
  3435  0F87  1507               	bsf	7,2	;volatile
  3436  0F88                     l345:
  3437  0F88  0008               	return
  3438  0F89                     __end_of_coolerOn:
  3439                           
  3440                           	psect	text15
  3441  06E7                     __ptext15:	
  3442 ;; *************** function _changeStatus *****************
  3443 ;; Defined at:
  3444 ;;		line 172 in file "main.c"
  3445 ;; Parameters:    Size  Location     Type
  3446 ;;		None
  3447 ;; Auto vars:     Size  Location     Type
  3448 ;;		None
  3449 ;; Return value:  Size  Location     Type
  3450 ;;                  1    wreg      void 
  3451 ;; Registers used:
  3452 ;;		wreg, status,2, status,0, btemp+1
  3453 ;; Tracked objects:
  3454 ;;		On entry : 0/0
  3455 ;;		On exit  : 0/0
  3456 ;;		Unchanged: 0/0
  3457 ;; Data sizes:     COMMON   BANK0   BANK1   BANK3   BANK2
  3458 ;;      Params:         0       0       0       0       0
  3459 ;;      Locals:         0       0       0       0       0
  3460 ;;      Temps:          0       2       0       0       0
  3461 ;;      Totals:         0       2       0       0       0
  3462 ;;Total ram usage:        2 bytes
  3463 ;; Hardware stack levels used:    1
  3464 ;; Hardware stack levels required when called:    4
  3465 ;; This function calls:
  3466 ;;		Nothing
  3467 ;; This function is called by:
  3468 ;;		_on_state
  3469 ;; This function uses a non-reentrant model
  3470 ;;
  3471                           
  3472                           
  3473                           ;psect for function _changeStatus
  3474  06E7                     _changeStatus:
  3475  06E7                     l2019:	
  3476                           ;incstack = 0
  3477                           ; Regs used in _changeStatus: [wreg+status,2+status,0+btemp+1]
  3478                           
  3479                           
  3480                           ;main.c: 174:     if(TEMPRETURE<TargetTempreture+5 && canuse == 1)
  3481  06E7  1283               	bcf	3,5	;RP0=0, select bank0
  3482  06E8  1303               	bcf	3,6	;RP1=0, select bank0
  3483  06E9  0850               	movf	_TargetTempreture,w
  3484  06EA  3E05               	addlw	5
  3485  06EB  00B1               	movwf	??_changeStatus
  3486  06EC  0851               	movf	_TargetTempreture+1,w
  3487  06ED  1803               	skipnc
  3488  06EE  3E01               	addlw	1
  3489  06EF  3E00               	addlw	0
  3490  06F0  00B2               	movwf	??_changeStatus+1
  3491  06F1  0832               	movf	??_changeStatus+1,w
  3492  06F2  0256               	subwf	_TEMPRETURE+1,w
  3493  06F3  1D03               	skipz
  3494  06F4  2EF7               	goto	u1675
  3495  06F5  0831               	movf	??_changeStatus,w
  3496  06F6  0255               	subwf	_TEMPRETURE,w
  3497  06F7                     u1675:
  3498  06F7  1803               	skipnc
  3499  06F8  2EFA               	goto	u1671
  3500  06F9  2EFB               	goto	u1670
  3501  06FA                     u1671:
  3502  06FA  2F03               	goto	l2025
  3503  06FB                     u1670:
  3504  06FB                     l2021:
  3505  06FB  035D               	decf	_canuse,w
  3506  06FC  1D03               	btfss	3,2
  3507  06FD  2EFF               	goto	u1681
  3508  06FE  2F00               	goto	u1680
  3509  06FF                     u1681:
  3510  06FF  2F03               	goto	l2025
  3511  0700                     u1680:
  3512  0700                     l2023:
  3513                           
  3514                           ;main.c: 175:     {;main.c: 176:         temp_state=UPOVE_state;
  3515  0700  01DA               	clrf	_temp_state
  3516  0701  0ADA               	incf	_temp_state,f
  3517                           
  3518                           ;main.c: 178:     }else{
  3519  0702  2F1D               	goto	l131
  3520  0703                     l2025:
  3521                           
  3522                           ;main.c: 179:         canuse= 0;
  3523  0703  01DD               	clrf	_canuse
  3524  0704                     l2027:
  3525                           
  3526                           ;main.c: 180:         if(TEMPRETURE>TargetTempreture && canuse == 0)
  3527  0704  0856               	movf	_TEMPRETURE+1,w
  3528  0705  0251               	subwf	_TargetTempreture+1,w
  3529  0706  1D03               	skipz
  3530  0707  2F0A               	goto	u1695
  3531  0708  0855               	movf	_TEMPRETURE,w
  3532  0709  0250               	subwf	_TargetTempreture,w
  3533  070A                     u1695:
  3534  070A  1803               	skipnc
  3535  070B  2F0D               	goto	u1691
  3536  070C  2F0E               	goto	u1690
  3537  070D                     u1691:
  3538  070D  2F18               	goto	l129
  3539  070E                     u1690:
  3540  070E                     l2029:
  3541  070E  085D               	movf	_canuse,w
  3542  070F  1D03               	btfss	3,2
  3543  0710  2F12               	goto	u1701
  3544  0711  2F13               	goto	u1700
  3545  0712                     u1701:
  3546  0712  2F18               	goto	l129
  3547  0713                     u1700:
  3548  0713                     l2031:
  3549                           
  3550                           ;main.c: 181:         {;main.c: 182:             temp_state=DOWN_state;
  3551  0713  3002               	movlw	2
  3552  0714  00FF               	movwf	btemp+1
  3553  0715  087F               	movf	btemp+1,w
  3554  0716  00DA               	movwf	_temp_state
  3555                           
  3556                           ;main.c: 183:         }
  3557  0717  2F1D               	goto	l131
  3558  0718                     l129:	
  3559                           ;main.c: 184:         else{
  3560                           
  3561                           
  3562                           ;main.c: 185:             canuse= 1;
  3563  0718  01DD               	clrf	_canuse
  3564  0719  0ADD               	incf	_canuse,f
  3565  071A                     l2033:
  3566                           
  3567                           ;main.c: 186:             temp_state=OK_state;
  3568  071A  01DA               	clrf	_temp_state
  3569  071B                     l2035:
  3570                           
  3571                           ;main.c: 187:             RC2=0;
  3572  071B  1107               	bcf	7,2	;volatile
  3573  071C                     l2037:
  3574                           
  3575                           ;main.c: 188:             RC5=0;
  3576  071C  1287               	bcf	7,5	;volatile
  3577  071D                     l131:
  3578  071D  0008               	return
  3579  071E                     __end_of_changeStatus:
  3580                           
  3581                           	psect	text16
  3582  0F7F                     __ptext16:	
  3583 ;; *************** function _off_state *****************
  3584 ;; Defined at:
  3585 ;;		line 143 in file "main.c"
  3586 ;; Parameters:    Size  Location     Type
  3587 ;;		None
  3588 ;; Auto vars:     Size  Location     Type
  3589 ;;		None
  3590 ;; Return value:  Size  Location     Type
  3591 ;;                  1    wreg      void 
  3592 ;; Registers used:
  3593 ;;		None
  3594 ;; Tracked objects:
  3595 ;;		On entry : 0/0
  3596 ;;		On exit  : 0/0
  3597 ;;		Unchanged: 0/0
  3598 ;; Data sizes:     COMMON   BANK0   BANK1   BANK3   BANK2
  3599 ;;      Params:         0       0       0       0       0
  3600 ;;      Locals:         0       0       0       0       0
  3601 ;;      Temps:          0       0       0       0       0
  3602 ;;      Totals:         0       0       0       0       0
  3603 ;;Total ram usage:        0 bytes
  3604 ;; Hardware stack levels used:    1
  3605 ;; Hardware stack levels required when called:    4
  3606 ;; This function calls:
  3607 ;;		Nothing
  3608 ;; This function is called by:
  3609 ;;		_main
  3610 ;; This function uses a non-reentrant model
  3611 ;;
  3612                           
  3613                           
  3614                           ;psect for function _off_state
  3615  0F7F                     _off_state:
  3616  0F7F                     l2179:	
  3617                           ;incstack = 0
  3618                           ; Regs used in _off_state: []
  3619                           
  3620                           
  3621                           ;main.c: 145:     RC2=0;
  3622  0F7F  1283               	bcf	3,5	;RP0=0, select bank0
  3623  0F80  1303               	bcf	3,6	;RP1=0, select bank0
  3624  0F81  1107               	bcf	7,2	;volatile
  3625                           
  3626                           ;main.c: 146:     RC5=0;
  3627  0F82  1287               	bcf	7,5	;volatile
  3628  0F83                     l112:
  3629  0F83  0008               	return
  3630  0F84                     __end_of_off_state:
  3631                           
  3632                           	psect	text17
  3633  0FA6                     __ptext17:	
  3634 ;; *************** function _adc_init *****************
  3635 ;; Defined at:
  3636 ;;		line 6 in file "adc.c"
  3637 ;; Parameters:    Size  Location     Type
  3638 ;;		None
  3639 ;; Auto vars:     Size  Location     Type
  3640 ;;		None
  3641 ;; Return value:  Size  Location     Type
  3642 ;;                  1    wreg      void 
  3643 ;; Registers used:
  3644 ;;		wreg
  3645 ;; Tracked objects:
  3646 ;;		On entry : 0/0
  3647 ;;		On exit  : 0/0
  3648 ;;		Unchanged: 0/0
  3649 ;; Data sizes:     COMMON   BANK0   BANK1   BANK3   BANK2
  3650 ;;      Params:         0       0       0       0       0
  3651 ;;      Locals:         0       0       0       0       0
  3652 ;;      Temps:          0       0       0       0       0
  3653 ;;      Totals:         0       0       0       0       0
  3654 ;;Total ram usage:        0 bytes
  3655 ;; Hardware stack levels used:    1
  3656 ;; Hardware stack levels required when called:    4
  3657 ;; This function calls:
  3658 ;;		Nothing
  3659 ;; This function is called by:
  3660 ;;		_main
  3661 ;; This function uses a non-reentrant model
  3662 ;;
  3663                           
  3664                           
  3665                           ;psect for function _adc_init
  3666  0FA6                     _adc_init:
  3667  0FA6                     l2141:	
  3668                           ;incstack = 0
  3669                           ; Regs used in _adc_init: [wreg]
  3670                           
  3671                           
  3672                           ;adc.c: 9:   ADCON1=0x02;
  3673  0FA6  3002               	movlw	2
  3674  0FA7  1683               	bsf	3,5	;RP0=1, select bank1
  3675  0FA8  1303               	bcf	3,6	;RP1=0, select bank1
  3676  0FA9  009F               	movwf	31	;volatile
  3677                           
  3678                           ;adc.c: 10:   ADCON0=0x41;
  3679  0FAA  3041               	movlw	65
  3680  0FAB  1283               	bcf	3,5	;RP0=0, select bank0
  3681  0FAC  1303               	bcf	3,6	;RP1=0, select bank0
  3682  0FAD  009F               	movwf	31	;volatile
  3683  0FAE                     l191:
  3684  0FAE  0008               	return
  3685  0FAF                     __end_of_adc_init:
  3686                           
  3687                           	psect	text18
  3688  0FDC                     __ptext18:	
  3689 ;; *************** function _TIMER1_init *****************
  3690 ;; Defined at:
  3691 ;;		line 3 in file "timer.c"
  3692 ;; Parameters:    Size  Location     Type
  3693 ;;		None
  3694 ;; Auto vars:     Size  Location     Type
  3695 ;;		None
  3696 ;; Return value:  Size  Location     Type
  3697 ;;                  1    wreg      void 
  3698 ;; Registers used:
  3699 ;;		None
  3700 ;; Tracked objects:
  3701 ;;		On entry : 0/0
  3702 ;;		On exit  : 0/0
  3703 ;;		Unchanged: 0/0
  3704 ;; Data sizes:     COMMON   BANK0   BANK1   BANK3   BANK2
  3705 ;;      Params:         0       0       0       0       0
  3706 ;;      Locals:         0       0       0       0       0
  3707 ;;      Temps:          0       0       0       0       0
  3708 ;;      Totals:         0       0       0       0       0
  3709 ;;Total ram usage:        0 bytes
  3710 ;; Hardware stack levels used:    1
  3711 ;; Hardware stack levels required when called:    4
  3712 ;; This function calls:
  3713 ;;		Nothing
  3714 ;; This function is called by:
  3715 ;;		_main
  3716 ;; This function uses a non-reentrant model
  3717 ;;
  3718                           
  3719                           
  3720                           ;psect for function _TIMER1_init
  3721  0FDC                     _TIMER1_init:
  3722  0FDC                     l2125:	
  3723                           ;incstack = 0
  3724                           ; Regs used in _TIMER1_init: []
  3725                           
  3726                           
  3727                           ;timer.c: 6:     TMR1 = 15535;
  3728  0FDC  303C               	movlw	60
  3729  0FDD  1283               	bcf	3,5	;RP0=0, select bank0
  3730  0FDE  1303               	bcf	3,6	;RP1=0, select bank0
  3731  0FDF  008F               	movwf	15	;volatile
  3732  0FE0  30AF               	movlw	175
  3733  0FE1  008E               	movwf	14	;volatile
  3734                           
  3735                           ;timer.c: 8:     TMR1CS = 0;
  3736  0FE2  1090               	bcf	16,1	;volatile
  3737                           
  3738                           ;timer.c: 10:     T1CKPS0 = 0;
  3739  0FE3  1210               	bcf	16,4	;volatile
  3740                           
  3741                           ;timer.c: 11:     T1CKPS1 = 0;
  3742  0FE4  1290               	bcf	16,5	;volatile
  3743                           
  3744                           ;timer.c: 13:     TMR1IE = 1;
  3745  0FE5  1683               	bsf	3,5	;RP0=1, select bank1
  3746  0FE6  1303               	bcf	3,6	;RP1=0, select bank1
  3747  0FE7  140C               	bsf	12,0	;volatile
  3748                           
  3749                           ;timer.c: 14:     TMR1IF = 0;
  3750  0FE8  1283               	bcf	3,5	;RP0=0, select bank0
  3751  0FE9  1303               	bcf	3,6	;RP1=0, select bank0
  3752  0FEA  100C               	bcf	12,0	;volatile
  3753                           
  3754                           ;timer.c: 15:     PEIE = 1;
  3755  0FEB  170B               	bsf	11,6	;volatile
  3756  0FEC                     l331:
  3757  0FEC  0008               	return
  3758  0FED                     __end_of_TIMER1_init:
  3759                           
  3760                           	psect	text19
  3761  0F8E                     __ptext19:	
  3762 ;; *************** function _IRQ_RB0_init *****************
  3763 ;; Defined at:
  3764 ;;		line 254 in file "main.c"
  3765 ;; Parameters:    Size  Location     Type
  3766 ;;		None
  3767 ;; Auto vars:     Size  Location     Type
  3768 ;;		None
  3769 ;; Return value:  Size  Location     Type
  3770 ;;                  1    wreg      void 
  3771 ;; Registers used:
  3772 ;;		None
  3773 ;; Tracked objects:
  3774 ;;		On entry : 0/0
  3775 ;;		On exit  : 0/0
  3776 ;;		Unchanged: 0/0
  3777 ;; Data sizes:     COMMON   BANK0   BANK1   BANK3   BANK2
  3778 ;;      Params:         0       0       0       0       0
  3779 ;;      Locals:         0       0       0       0       0
  3780 ;;      Temps:          0       0       0       0       0
  3781 ;;      Totals:         0       0       0       0       0
  3782 ;;Total ram usage:        0 bytes
  3783 ;; Hardware stack levels used:    1
  3784 ;; Hardware stack levels required when called:    4
  3785 ;; This function calls:
  3786 ;;		Nothing
  3787 ;; This function is called by:
  3788 ;;		_main
  3789 ;; This function uses a non-reentrant model
  3790 ;;
  3791                           
  3792                           
  3793                           ;psect for function _IRQ_RB0_init
  3794  0F8E                     _IRQ_RB0_init:
  3795  0F8E                     l2127:	
  3796                           ;incstack = 0
  3797                           ; Regs used in _IRQ_RB0_init: []
  3798                           
  3799                           
  3800                           ;main.c: 256:     INTE = 1;
  3801  0F8E  160B               	bsf	11,4	;volatile
  3802                           
  3803                           ;main.c: 258:     INTEDG = 0;
  3804  0F8F  1683               	bsf	3,5	;RP0=1, select bank1
  3805  0F90  1303               	bcf	3,6	;RP1=0, select bank1
  3806  0F91  1301               	bcf	1,6	;volatile
  3807                           
  3808                           ;main.c: 260:     GIE = 1;
  3809  0F92  178B               	bsf	11,7	;volatile
  3810  0F93                     l156:
  3811  0F93  0008               	return
  3812  0F94                     __end_of_IRQ_RB0_init:
  3813                           
  3814                           	psect	text20
  3815  0404                     __ptext20:	
  3816 ;; *************** function _I2C_Master_Init *****************
  3817 ;; Defined at:
  3818 ;;		line 9 in file "ext_eeprom.c"
  3819 ;; Parameters:    Size  Location     Type
  3820 ;;  baud            4   31[BANK0 ] const unsigned long 
  3821 ;; Auto vars:     Size  Location     Type
  3822 ;;		None
  3823 ;; Return value:  Size  Location     Type
  3824 ;;                  1    wreg      void 
  3825 ;; Registers used:
  3826 ;;		wreg, status,2, status,0, btemp+1, pclath, cstack
  3827 ;; Tracked objects:
  3828 ;;		On entry : 0/0
  3829 ;;		On exit  : 0/0
  3830 ;;		Unchanged: 0/0
  3831 ;; Data sizes:     COMMON   BANK0   BANK1   BANK3   BANK2
  3832 ;;      Params:         0       4       0       0       0
  3833 ;;      Locals:         0       0       0       0       0
  3834 ;;      Temps:          0       0       4       0       0
  3835 ;;      Totals:         0       4       4       0       0
  3836 ;;Total ram usage:        8 bytes
  3837 ;; Hardware stack levels used:    1
  3838 ;; Hardware stack levels required when called:    5
  3839 ;; This function calls:
  3840 ;;		___lldiv
  3841 ;; This function is called by:
  3842 ;;		_main
  3843 ;; This function uses a non-reentrant model
  3844 ;;
  3845                           
  3846                           
  3847                           ;psect for function _I2C_Master_Init
  3848  0404                     _I2C_Master_Init:
  3849  0404                     l2433:	
  3850                           ;incstack = 0
  3851                           ; Regs used in _I2C_Master_Init: [wreg+status,2+status,0+btemp+1+pclath+cstack]
  3852                           
  3853                           
  3854                           ;ext_eeprom.c: 9: void I2C_Master_Init(const unsigned long baud);ext_eeprom.c: 10: {;ext
      +                          _eeprom.c: 11:   SSPCON = 0b00101000;
  3855  0404  3028               	movlw	40
  3856  0405  1283               	bcf	3,5	;RP0=0, select bank0
  3857  0406  1303               	bcf	3,6	;RP1=0, select bank0
  3858  0407  0094               	movwf	20	;volatile
  3859  0408                     l2435:
  3860                           
  3861                           ;ext_eeprom.c: 12:   SSPCON2 = 0;
  3862  0408  1683               	bsf	3,5	;RP0=1, select bank1
  3863  0409  1303               	bcf	3,6	;RP1=0, select bank1
  3864  040A  0191               	clrf	17	;volatile
  3865  040B                     l2437:
  3866                           
  3867                           ;ext_eeprom.c: 13:   SSPADD = (8000000/(4*baud))-1;
  3868  040B  1283               	bcf	3,5	;RP0=0, select bank0
  3869  040C  1303               	bcf	3,6	;RP1=0, select bank0
  3870  040D  083F               	movf	I2C_Master_Init@baud,w
  3871  040E  1683               	bsf	3,5	;RP0=1, select bank1
  3872  040F  1303               	bcf	3,6	;RP1=0, select bank1
  3873  0410  00A0               	movwf	??_I2C_Master_Init^(0+128)
  3874  0411  1283               	bcf	3,5	;RP0=0, select bank0
  3875  0412  1303               	bcf	3,6	;RP1=0, select bank0
  3876  0413  0840               	movf	I2C_Master_Init@baud+1,w
  3877  0414  1683               	bsf	3,5	;RP0=1, select bank1
  3878  0415  1303               	bcf	3,6	;RP1=0, select bank1
  3879  0416  00A1               	movwf	(??_I2C_Master_Init^(0+128)+1)
  3880  0417  1283               	bcf	3,5	;RP0=0, select bank0
  3881  0418  1303               	bcf	3,6	;RP1=0, select bank0
  3882  0419  0841               	movf	I2C_Master_Init@baud+2,w
  3883  041A  1683               	bsf	3,5	;RP0=1, select bank1
  3884  041B  1303               	bcf	3,6	;RP1=0, select bank1
  3885  041C  00A2               	movwf	(??_I2C_Master_Init^(0+128)+2)
  3886  041D  1283               	bcf	3,5	;RP0=0, select bank0
  3887  041E  1303               	bcf	3,6	;RP1=0, select bank0
  3888  041F  0842               	movf	I2C_Master_Init@baud+3,w
  3889  0420  1683               	bsf	3,5	;RP0=1, select bank1
  3890  0421  1303               	bcf	3,6	;RP1=0, select bank1
  3891  0422  00A3               	movwf	(??_I2C_Master_Init^(0+128)+3)
  3892  0423  3002               	movlw	2
  3893  0424                     u2005:
  3894  0424  1003               	clrc
  3895  0425  0DA0               	rlf	??_I2C_Master_Init^(0+128),f
  3896  0426  0DA1               	rlf	(??_I2C_Master_Init^(0+128)+1),f
  3897  0427  0DA2               	rlf	(??_I2C_Master_Init^(0+128)+2),f
  3898  0428  0DA3               	rlf	(??_I2C_Master_Init^(0+128)+3),f
  3899  0429                     u2000:
  3900  0429  3EFF               	addlw	-1
  3901  042A  1D03               	skipz
  3902  042B  2C24               	goto	u2005
  3903  042C  0823               	movf	(??_I2C_Master_Init+3)^(0+128),w
  3904  042D  1283               	bcf	3,5	;RP0=0, select bank0
  3905  042E  1303               	bcf	3,6	;RP1=0, select bank0
  3906  042F  00B4               	movwf	___lldiv@divisor+3
  3907  0430  1683               	bsf	3,5	;RP0=1, select bank1
  3908  0431  1303               	bcf	3,6	;RP1=0, select bank1
  3909  0432  0822               	movf	(??_I2C_Master_Init+2)^(0+128),w
  3910  0433  1283               	bcf	3,5	;RP0=0, select bank0
  3911  0434  1303               	bcf	3,6	;RP1=0, select bank0
  3912  0435  00B3               	movwf	___lldiv@divisor+2
  3913  0436  1683               	bsf	3,5	;RP0=1, select bank1
  3914  0437  1303               	bcf	3,6	;RP1=0, select bank1
  3915  0438  0821               	movf	(??_I2C_Master_Init+1)^(0+128),w
  3916  0439  1283               	bcf	3,5	;RP0=0, select bank0
  3917  043A  1303               	bcf	3,6	;RP1=0, select bank0
  3918  043B  00B2               	movwf	___lldiv@divisor+1
  3919  043C  1683               	bsf	3,5	;RP0=1, select bank1
  3920  043D  1303               	bcf	3,6	;RP1=0, select bank1
  3921  043E  0820               	movf	??_I2C_Master_Init^(0+128),w
  3922  043F  1283               	bcf	3,5	;RP0=0, select bank0
  3923  0440  1303               	bcf	3,6	;RP1=0, select bank0
  3924  0441  00B1               	movwf	___lldiv@divisor
  3925  0442  3000               	movlw	0
  3926  0443  00B8               	movwf	___lldiv@dividend+3
  3927  0444  307A               	movlw	122
  3928  0445  00B7               	movwf	___lldiv@dividend+2
  3929  0446  3012               	movlw	18
  3930  0447  00B6               	movwf	___lldiv@dividend+1
  3931  0448  3000               	movlw	0
  3932  0449  00B5               	movwf	___lldiv@dividend
  3933  044A  120A  118A  22E9  120A  118A  	fcall	___lldiv
  3934  044F  1283               	bcf	3,5	;RP0=0, select bank0
  3935  0450  1303               	bcf	3,6	;RP1=0, select bank0
  3936  0451  0831               	movf	?___lldiv,w
  3937  0452  3EFF               	addlw	255
  3938  0453  1683               	bsf	3,5	;RP0=1, select bank1
  3939  0454  1303               	bcf	3,6	;RP1=0, select bank1
  3940  0455  0093               	movwf	19	;volatile
  3941  0456                     l2439:
  3942                           
  3943                           ;ext_eeprom.c: 14:   SSPSTAT = 0;
  3944  0456  0194               	clrf	20	;volatile
  3945  0457                     l2441:
  3946                           
  3947                           ;ext_eeprom.c: 15:   TRISC3 = 1;
  3948  0457  1587               	bsf	7,3	;volatile
  3949  0458                     l2443:
  3950                           
  3951                           ;ext_eeprom.c: 16:   TRISC4 = 1;
  3952  0458  1607               	bsf	7,4	;volatile
  3953  0459                     l254:
  3954  0459  0008               	return
  3955  045A                     __end_of_I2C_Master_Init:
  3956                           
  3957                           	psect	text21
  3958  02E9                     __ptext21:	
  3959 ;; *************** function ___lldiv *****************
  3960 ;; Defined at:
  3961 ;;		line 5 in file "C:\Program Files\Microchip\xc8\v2.20\pic\sources\c90\common\__lldiv.c"
  3962 ;; Parameters:    Size  Location     Type
  3963 ;;  divisor         4   17[BANK0 ] unsigned long 
  3964 ;;  dividend        4   21[BANK0 ] unsigned long 
  3965 ;; Auto vars:     Size  Location     Type
  3966 ;;  quotient        4   26[BANK0 ] unsigned long 
  3967 ;;  counter         1   30[BANK0 ] unsigned char 
  3968 ;; Return value:  Size  Location     Type
  3969 ;;                  4   17[BANK0 ] unsigned long 
  3970 ;; Registers used:
  3971 ;;		wreg, status,2, status,0, btemp+1
  3972 ;; Tracked objects:
  3973 ;;		On entry : 0/0
  3974 ;;		On exit  : 0/0
  3975 ;;		Unchanged: 0/0
  3976 ;; Data sizes:     COMMON   BANK0   BANK1   BANK3   BANK2
  3977 ;;      Params:         0       8       0       0       0
  3978 ;;      Locals:         0       5       0       0       0
  3979 ;;      Temps:          0       1       0       0       0
  3980 ;;      Totals:         0      14       0       0       0
  3981 ;;Total ram usage:       14 bytes
  3982 ;; Hardware stack levels used:    1
  3983 ;; Hardware stack levels required when called:    4
  3984 ;; This function calls:
  3985 ;;		Nothing
  3986 ;; This function is called by:
  3987 ;;		_I2C_Master_Init
  3988 ;; This function uses a non-reentrant model
  3989 ;;
  3990                           
  3991                           
  3992                           ;psect for function ___lldiv
  3993  02E9                     ___lldiv:
  3994  02E9                     l2099:	
  3995                           ;incstack = 0
  3996                           ; Regs used in ___lldiv: [wreg+status,2+status,0+btemp+1]
  3997                           
  3998  02E9  3000               	movlw	0
  3999  02EA  1283               	bcf	3,5	;RP0=0, select bank0
  4000  02EB  1303               	bcf	3,6	;RP1=0, select bank0
  4001  02EC  00BD               	movwf	___lldiv@quotient+3
  4002  02ED  3000               	movlw	0
  4003  02EE  00BC               	movwf	___lldiv@quotient+2
  4004  02EF  3000               	movlw	0
  4005  02F0  00BB               	movwf	___lldiv@quotient+1
  4006  02F1  3000               	movlw	0
  4007  02F2  00BA               	movwf	___lldiv@quotient
  4008  02F3  0834               	movf	___lldiv@divisor+3,w
  4009  02F4  0433               	iorwf	___lldiv@divisor+2,w
  4010  02F5  0432               	iorwf	___lldiv@divisor+1,w
  4011  02F6  0431               	iorwf	___lldiv@divisor,w
  4012  02F7  1903               	skipnz
  4013  02F8  2AFA               	goto	u1791
  4014  02F9  2AFB               	goto	u1790
  4015  02FA                     u1791:
  4016  02FA  2B48               	goto	l2121
  4017  02FB                     u1790:
  4018  02FB                     l2101:
  4019  02FB  01BE               	clrf	___lldiv@counter
  4020  02FC  0ABE               	incf	___lldiv@counter,f
  4021  02FD  2B0B               	goto	l2107
  4022  02FE                     l2103:
  4023  02FE  3001               	movlw	1
  4024  02FF  00B9               	movwf	??___lldiv
  4025  0300                     u1805:
  4026  0300  1003               	clrc
  4027  0301  0DB1               	rlf	___lldiv@divisor,f
  4028  0302  0DB2               	rlf	___lldiv@divisor+1,f
  4029  0303  0DB3               	rlf	___lldiv@divisor+2,f
  4030  0304  0DB4               	rlf	___lldiv@divisor+3,f
  4031  0305  0BB9               	decfsz	??___lldiv,f
  4032  0306  2B00               	goto	u1805
  4033  0307                     l2105:
  4034  0307  3001               	movlw	1
  4035  0308  00FF               	movwf	btemp+1
  4036  0309  087F               	movf	btemp+1,w
  4037  030A  07BE               	addwf	___lldiv@counter,f
  4038  030B                     l2107:
  4039  030B  1FB4               	btfss	___lldiv@divisor+3,7
  4040  030C  2B0E               	goto	u1811
  4041  030D  2B0F               	goto	u1810
  4042  030E                     u1811:
  4043  030E  2AFE               	goto	l2103
  4044  030F                     u1810:
  4045  030F                     l2109:
  4046  030F  3001               	movlw	1
  4047  0310  00B9               	movwf	??___lldiv
  4048  0311                     u1825:
  4049  0311  1003               	clrc
  4050  0312  0DBA               	rlf	___lldiv@quotient,f
  4051  0313  0DBB               	rlf	___lldiv@quotient+1,f
  4052  0314  0DBC               	rlf	___lldiv@quotient+2,f
  4053  0315  0DBD               	rlf	___lldiv@quotient+3,f
  4054  0316  0BB9               	decfsz	??___lldiv,f
  4055  0317  2B11               	goto	u1825
  4056  0318                     l2111:
  4057  0318  0834               	movf	___lldiv@divisor+3,w
  4058  0319  0238               	subwf	___lldiv@dividend+3,w
  4059  031A  1D03               	skipz
  4060  031B  2B26               	goto	u1835
  4061  031C  0833               	movf	___lldiv@divisor+2,w
  4062  031D  0237               	subwf	___lldiv@dividend+2,w
  4063  031E  1D03               	skipz
  4064  031F  2B26               	goto	u1835
  4065  0320  0832               	movf	___lldiv@divisor+1,w
  4066  0321  0236               	subwf	___lldiv@dividend+1,w
  4067  0322  1D03               	skipz
  4068  0323  2B26               	goto	u1835
  4069  0324  0831               	movf	___lldiv@divisor,w
  4070  0325  0235               	subwf	___lldiv@dividend,w
  4071  0326                     u1835:
  4072  0326  1C03               	skipc
  4073  0327  2B29               	goto	u1831
  4074  0328  2B2A               	goto	u1830
  4075  0329                     u1831:
  4076  0329  2B39               	goto	l2117
  4077  032A                     u1830:
  4078  032A                     l2113:
  4079  032A  0831               	movf	___lldiv@divisor,w
  4080  032B  02B5               	subwf	___lldiv@dividend,f
  4081  032C  0832               	movf	___lldiv@divisor+1,w
  4082  032D  1C03               	skipc
  4083  032E  0F32               	incfsz	___lldiv@divisor+1,w
  4084  032F  02B6               	subwf	___lldiv@dividend+1,f
  4085  0330  0833               	movf	___lldiv@divisor+2,w
  4086  0331  1C03               	skipc
  4087  0332  0F33               	incfsz	___lldiv@divisor+2,w
  4088  0333  02B7               	subwf	___lldiv@dividend+2,f
  4089  0334  0834               	movf	___lldiv@divisor+3,w
  4090  0335  1C03               	skipc
  4091  0336  0F34               	incfsz	___lldiv@divisor+3,w
  4092  0337  02B8               	subwf	___lldiv@dividend+3,f
  4093  0338                     l2115:
  4094  0338  143A               	bsf	___lldiv@quotient,0
  4095  0339                     l2117:
  4096  0339  3001               	movlw	1
  4097  033A                     u1845:
  4098  033A  1003               	clrc
  4099  033B  0CB4               	rrf	___lldiv@divisor+3,f
  4100  033C  0CB3               	rrf	___lldiv@divisor+2,f
  4101  033D  0CB2               	rrf	___lldiv@divisor+1,f
  4102  033E  0CB1               	rrf	___lldiv@divisor,f
  4103  033F  3EFF               	addlw	-1
  4104  0340  1D03               	skipz
  4105  0341  2B3A               	goto	u1845
  4106  0342                     l2119:
  4107  0342  3001               	movlw	1
  4108  0343  02BE               	subwf	___lldiv@counter,f
  4109  0344  1D03               	btfss	3,2
  4110  0345  2B47               	goto	u1851
  4111  0346  2B48               	goto	u1850
  4112  0347                     u1851:
  4113  0347  2B0F               	goto	l2109
  4114  0348                     u1850:
  4115  0348                     l2121:
  4116  0348  083D               	movf	___lldiv@quotient+3,w
  4117  0349  00B4               	movwf	?___lldiv+3
  4118  034A  083C               	movf	___lldiv@quotient+2,w
  4119  034B  00B3               	movwf	?___lldiv+2
  4120  034C  083B               	movf	___lldiv@quotient+1,w
  4121  034D  00B2               	movwf	?___lldiv+1
  4122  034E  083A               	movf	___lldiv@quotient,w
  4123  034F  00B1               	movwf	?___lldiv
  4124  0350                     l471:
  4125  0350  0008               	return
  4126  0351                     __end_of___lldiv:
  4127                           
  4128                           	psect	text22
  4129  071E                     __ptext22:	
  4130 ;; *************** function _EEPROM_Read *****************
  4131 ;; Defined at:
  4132 ;;		line 98 in file "ext_eeprom.c"
  4133 ;; Parameters:    Size  Location     Type
  4134 ;;  add             2   18[BANK0 ] unsigned int 
  4135 ;; Auto vars:     Size  Location     Type
  4136 ;;  Data            1   20[BANK0 ] unsigned char 
  4137 ;; Return value:  Size  Location     Type
  4138 ;;                  1    wreg      unsigned char 
  4139 ;; Registers used:
  4140 ;;		wreg, status,2, status,0, btemp+1, pclath, cstack
  4141 ;; Tracked objects:
  4142 ;;		On entry : 0/0
  4143 ;;		On exit  : 0/0
  4144 ;;		Unchanged: 0/0
  4145 ;; Data sizes:     COMMON   BANK0   BANK1   BANK3   BANK2
  4146 ;;      Params:         0       2       0       0       0
  4147 ;;      Locals:         0       1       0       0       0
  4148 ;;      Temps:          0       0       0       0       0
  4149 ;;      Totals:         0       3       0       0       0
  4150 ;;Total ram usage:        3 bytes
  4151 ;; Hardware stack levels used:    1
  4152 ;; Hardware stack levels required when called:    6
  4153 ;; This function calls:
  4154 ;;		_I2C_Master_Start
  4155 ;;		_I2C_Master_Stop
  4156 ;;		_I2C_Master_Write
  4157 ;;		_I2C_NACK
  4158 ;;		_I2C_Read_Byte
  4159 ;; This function is called by:
  4160 ;;		_main
  4161 ;; This function uses a non-reentrant model
  4162 ;;
  4163                           
  4164                           
  4165                           ;psect for function _EEPROM_Read
  4166  071E                     _EEPROM_Read:
  4167  071E                     l2143:	
  4168                           ;incstack = 0
  4169                           ; Regs used in _EEPROM_Read: [wreg+status,2+status,0+btemp+1+pclath+cstack]
  4170                           
  4171                           
  4172                           ;ext_eeprom.c: 98: unsigned char EEPROM_Read(unsigned int add);ext_eeprom.c: 99: {;ext_e
      +                          eprom.c: 100:   unsigned char Data;;ext_eeprom.c: 101:   I2C_Master_Start();
  4173  071E  120A  158A  2794  120A  118A  	fcall	_I2C_Master_Start
  4174                           
  4175                           ;ext_eeprom.c: 103:   I2C_Master_Write(0xA0);
  4176  0723  30A0               	movlw	160
  4177  0724  120A  118A  27C5  120A  118A  	fcall	_I2C_Master_Write
  4178                           
  4179                           ;ext_eeprom.c: 104:   I2C_Master_Write(add);
  4180  0729  1283               	bcf	3,5	;RP0=0, select bank0
  4181  072A  1303               	bcf	3,6	;RP1=0, select bank0
  4182  072B  0832               	movf	EEPROM_Read@add,w
  4183  072C  120A  118A  27C5  120A  118A  	fcall	_I2C_Master_Write
  4184                           
  4185                           ;ext_eeprom.c: 105:   I2C_Master_Start();
  4186  0731  120A  158A  2794  120A  118A  	fcall	_I2C_Master_Start
  4187                           
  4188                           ;ext_eeprom.c: 106:   I2C_Master_Write(0xA1);
  4189  0736  30A1               	movlw	161
  4190  0737  120A  118A  27C5  120A  118A  	fcall	_I2C_Master_Write
  4191  073C                     l2145:
  4192                           
  4193                           ;ext_eeprom.c: 107:   Data = I2C_Read_Byte();
  4194  073C  120A  118A  27AE  120A  118A  	fcall	_I2C_Read_Byte
  4195  0741  00FF               	movwf	btemp+1
  4196  0742  087F               	movf	btemp+1,w
  4197  0743  1283               	bcf	3,5	;RP0=0, select bank0
  4198  0744  1303               	bcf	3,6	;RP1=0, select bank0
  4199  0745  00B4               	movwf	EEPROM_Read@Data
  4200  0746                     l2147:
  4201                           
  4202                           ;ext_eeprom.c: 108:   I2C_NACK();
  4203  0746  120A  158A  27C3  120A  118A  	fcall	_I2C_NACK
  4204  074B                     l2149:
  4205                           
  4206                           ;ext_eeprom.c: 109:   I2C_Master_Stop();
  4207  074B  120A  158A  279D  120A  118A  	fcall	_I2C_Master_Stop
  4208  0750                     l2151:
  4209                           
  4210                           ;ext_eeprom.c: 110:   return Data;
  4211  0750  1283               	bcf	3,5	;RP0=0, select bank0
  4212  0751  1303               	bcf	3,6	;RP1=0, select bank0
  4213  0752  0834               	movf	EEPROM_Read@Data,w
  4214  0753                     l305:
  4215  0753  0008               	return
  4216  0754                     __end_of_EEPROM_Read:
  4217                           
  4218                           	psect	text23
  4219  07AE                     __ptext23:	
  4220 ;; *************** function _I2C_Read_Byte *****************
  4221 ;; Defined at:
  4222 ;;		line 45 in file "ext_eeprom.c"
  4223 ;; Parameters:    Size  Location     Type
  4224 ;;		None
  4225 ;; Auto vars:     Size  Location     Type
  4226 ;;		None
  4227 ;; Return value:  Size  Location     Type
  4228 ;;                  1    wreg      unsigned char 
  4229 ;; Registers used:
  4230 ;;		wreg, status,2, status,0, pclath, cstack
  4231 ;; Tracked objects:
  4232 ;;		On entry : 0/0
  4233 ;;		On exit  : 0/0
  4234 ;;		Unchanged: 0/0
  4235 ;; Data sizes:     COMMON   BANK0   BANK1   BANK3   BANK2
  4236 ;;      Params:         0       0       0       0       0
  4237 ;;      Locals:         0       0       0       0       0
  4238 ;;      Temps:          0       0       0       0       0
  4239 ;;      Totals:         0       0       0       0       0
  4240 ;;Total ram usage:        0 bytes
  4241 ;; Hardware stack levels used:    1
  4242 ;; Hardware stack levels required when called:    5
  4243 ;; This function calls:
  4244 ;;		_I2C_Master_Wait
  4245 ;; This function is called by:
  4246 ;;		_EEPROM_Read
  4247 ;;		_EEPROM_Read_Page
  4248 ;; This function uses a non-reentrant model
  4249 ;;
  4250                           
  4251                           
  4252                           ;psect for function _I2C_Read_Byte
  4253  07AE                     _I2C_Read_Byte:
  4254  07AE                     l2069:	
  4255                           ;incstack = 0
  4256                           ; Regs used in _I2C_Read_Byte: [wreg+status,2+status,0+pclath+cstack]
  4257                           
  4258                           
  4259                           ;ext_eeprom.c: 48:   I2C_Master_Wait();
  4260  07AE  120A  158A  27CF  120A  118A  	fcall	_I2C_Master_Wait
  4261  07B3                     l2071:
  4262                           
  4263                           ;ext_eeprom.c: 49:   RCEN = 1;
  4264  07B3  1683               	bsf	3,5	;RP0=1, select bank1
  4265  07B4  1303               	bcf	3,6	;RP1=0, select bank1
  4266  07B5  1591               	bsf	17,3	;volatile
  4267  07B6                     l278:	
  4268                           ;ext_eeprom.c: 50:   while(!SSPIF);
  4269                           
  4270  07B6  1283               	bcf	3,5	;RP0=0, select bank0
  4271  07B7  1D8C               	btfss	12,3	;volatile
  4272  07B8  2FBA               	goto	u1741
  4273  07B9  2FBB               	goto	u1740
  4274  07BA                     u1741:
  4275  07BA  2FB6               	goto	l278
  4276  07BB                     u1740:
  4277  07BB                     l280:
  4278                           
  4279                           ;ext_eeprom.c: 51:   SSPIF = 0;
  4280  07BB  118C               	bcf	12,3	;volatile
  4281  07BC                     l2073:
  4282                           
  4283                           ;ext_eeprom.c: 52:   I2C_Master_Wait();
  4284  07BC  120A  158A  27CF  120A  118A  	fcall	_I2C_Master_Wait
  4285  07C1                     l2075:
  4286                           
  4287                           ;ext_eeprom.c: 53:   return SSPBUF;
  4288  07C1  1283               	bcf	3,5	;RP0=0, select bank0
  4289  07C2  1303               	bcf	3,6	;RP1=0, select bank0
  4290  07C3  0813               	movf	19,w	;volatile
  4291  07C4                     l281:
  4292  07C4  0008               	return
  4293  07C5                     __end_of_I2C_Read_Byte:
  4294                           
  4295                           	psect	text24
  4296  0FC3                     __ptext24:	
  4297 ;; *************** function _I2C_NACK *****************
  4298 ;; Defined at:
  4299 ;;		line 61 in file "ext_eeprom.c"
  4300 ;; Parameters:    Size  Location     Type
  4301 ;;		None
  4302 ;; Auto vars:     Size  Location     Type
  4303 ;;		None
  4304 ;; Return value:  Size  Location     Type
  4305 ;;                  1    wreg      void 
  4306 ;; Registers used:
  4307 ;;		wreg, status,2, status,0, pclath, cstack
  4308 ;; Tracked objects:
  4309 ;;		On entry : 0/0
  4310 ;;		On exit  : 0/0
  4311 ;;		Unchanged: 0/0
  4312 ;; Data sizes:     COMMON   BANK0   BANK1   BANK3   BANK2
  4313 ;;      Params:         0       0       0       0       0
  4314 ;;      Locals:         0       0       0       0       0
  4315 ;;      Temps:          0       0       0       0       0
  4316 ;;      Totals:         0       0       0       0       0
  4317 ;;Total ram usage:        0 bytes
  4318 ;; Hardware stack levels used:    1
  4319 ;; Hardware stack levels required when called:    5
  4320 ;; This function calls:
  4321 ;;		_I2C_Master_Wait
  4322 ;; This function is called by:
  4323 ;;		_EEPROM_Read
  4324 ;; This function uses a non-reentrant model
  4325 ;;
  4326                           
  4327                           
  4328                           ;psect for function _I2C_NACK
  4329  0FC3                     _I2C_NACK:
  4330  0FC3                     l2079:	
  4331                           ;incstack = 0
  4332                           ; Regs used in _I2C_NACK: [wreg+status,2+status,0+pclath+cstack]
  4333                           
  4334                           
  4335                           ;ext_eeprom.c: 63:   ACKDT = 1;
  4336  0FC3  1683               	bsf	3,5	;RP0=1, select bank1
  4337  0FC4  1303               	bcf	3,6	;RP1=0, select bank1
  4338  0FC5  1691               	bsf	17,5	;volatile
  4339  0FC6                     l2081:
  4340                           
  4341                           ;ext_eeprom.c: 64:   I2C_Master_Wait();
  4342  0FC6  120A  158A  27CF  120A  158A  	fcall	_I2C_Master_Wait
  4343  0FCB                     l2083:
  4344                           
  4345                           ;ext_eeprom.c: 65:   ACKEN = 1;
  4346  0FCB  1683               	bsf	3,5	;RP0=1, select bank1
  4347  0FCC  1303               	bcf	3,6	;RP1=0, select bank1
  4348  0FCD  1611               	bsf	17,4	;volatile
  4349  0FCE                     l287:
  4350  0FCE  0008               	return
  4351  0FCF                     __end_of_I2C_NACK:
  4352                           
  4353                           	psect	text25
  4354  07C5                     __ptext25:	
  4355 ;; *************** function _I2C_Master_Write *****************
  4356 ;; Defined at:
  4357 ;;		line 37 in file "ext_eeprom.c"
  4358 ;; Parameters:    Size  Location     Type
  4359 ;;  data            1    wreg     unsigned char 
  4360 ;; Auto vars:     Size  Location     Type
  4361 ;;  data            1   17[BANK0 ] unsigned char 
  4362 ;; Return value:  Size  Location     Type
  4363 ;;                  1    wreg      unsigned char 
  4364 ;; Registers used:
  4365 ;;		wreg, status,2, status,0, pclath, cstack
  4366 ;; Tracked objects:
  4367 ;;		On entry : 0/0
  4368 ;;		On exit  : 0/0
  4369 ;;		Unchanged: 0/0
  4370 ;; Data sizes:     COMMON   BANK0   BANK1   BANK3   BANK2
  4371 ;;      Params:         0       0       0       0       0
  4372 ;;      Locals:         0       1       0       0       0
  4373 ;;      Temps:          0       0       0       0       0
  4374 ;;      Totals:         0       1       0       0       0
  4375 ;;Total ram usage:        1 bytes
  4376 ;; Hardware stack levels used:    1
  4377 ;; Hardware stack levels required when called:    5
  4378 ;; This function calls:
  4379 ;;		_I2C_Master_Wait
  4380 ;; This function is called by:
  4381 ;;		_EEPROM_Write
  4382 ;;		_EEPROM_Read
  4383 ;;		_EEPROM_Write_Page
  4384 ;;		_EEPROM_Read_Page
  4385 ;; This function uses a non-reentrant model
  4386 ;;
  4387                           
  4388                           
  4389                           ;psect for function _I2C_Master_Write
  4390  07C5                     _I2C_Master_Write:
  4391                           
  4392                           ;incstack = 0
  4393 ;; hardware stack exceeded
  4394                           ; Regs used in _I2C_Master_Write: [wreg+status,2+status,0+pclath+cstack]
  4395                           ;I2C_Master_Write@data stored from wreg
  4396  07C5  1283               	bcf	3,5	;RP0=0, select bank0
  4397  07C6  1303               	bcf	3,6	;RP1=0, select bank0
  4398  07C7  00B1               	movwf	I2C_Master_Write@data
  4399  07C8                     l1711:
  4400                           
  4401                           ;ext_eeprom.c: 37: unsigned char I2C_Master_Write(unsigned char data);ext_eeprom.c: 38: 
      +                          {;ext_eeprom.c: 39:   I2C_Master_Wait();
  4402  07C8  120A  158A  27CF  120A  118A  	fcall	_I2C_Master_Wait
  4403  07CD                     l1713:
  4404                           
  4405                           ;ext_eeprom.c: 40:   SSPBUF = data;
  4406  07CD  1283               	bcf	3,5	;RP0=0, select bank0
  4407  07CE  1303               	bcf	3,6	;RP1=0, select bank0
  4408  07CF  0831               	movf	I2C_Master_Write@data,w
  4409  07D0  0093               	movwf	19	;volatile
  4410  07D1                     l272:	
  4411                           ;ext_eeprom.c: 41:   while(!SSPIF);
  4412                           
  4413  07D1  1D8C               	btfss	12,3	;volatile
  4414  07D2  2FD4               	goto	u1031
  4415  07D3  2FD5               	goto	u1030
  4416  07D4                     u1031:
  4417  07D4  2FD1               	goto	l272
  4418  07D5                     u1030:
  4419  07D5                     l274:
  4420                           
  4421                           ;ext_eeprom.c: 42:   SSPIF = 0;
  4422  07D5  118C               	bcf	12,3	;volatile
  4423  07D6                     l1715:
  4424                           
  4425                           ;ext_eeprom.c: 43:   return ACKSTAT;
  4426  07D6  3000               	movlw	0
  4427  07D7  1683               	bsf	3,5	;RP0=1, select bank1
  4428  07D8  1303               	bcf	3,6	;RP1=0, select bank1
  4429  07D9  1B11               	btfsc	17,6	;volatile
  4430  07DA  3001               	movlw	1
  4431  07DB                     l275:
  4432  07DB  0008               	return
  4433  07DC                     __end_of_I2C_Master_Write:
  4434                           
  4435                           	psect	text26
  4436  0F9D                     __ptext26:	
  4437 ;; *************** function _I2C_Master_Stop *****************
  4438 ;; Defined at:
  4439 ;;		line 32 in file "ext_eeprom.c"
  4440 ;; Parameters:    Size  Location     Type
  4441 ;;		None
  4442 ;; Auto vars:     Size  Location     Type
  4443 ;;		None
  4444 ;; Return value:  Size  Location     Type
  4445 ;;                  1    wreg      void 
  4446 ;; Registers used:
  4447 ;;		wreg, status,2, status,0, pclath, cstack
  4448 ;; Tracked objects:
  4449 ;;		On entry : 0/0
  4450 ;;		On exit  : 0/0
  4451 ;;		Unchanged: 0/0
  4452 ;; Data sizes:     COMMON   BANK0   BANK1   BANK3   BANK2
  4453 ;;      Params:         0       0       0       0       0
  4454 ;;      Locals:         0       0       0       0       0
  4455 ;;      Temps:          0       0       0       0       0
  4456 ;;      Totals:         0       0       0       0       0
  4457 ;;Total ram usage:        0 bytes
  4458 ;; Hardware stack levels used:    1
  4459 ;; Hardware stack levels required when called:    5
  4460 ;; This function calls:
  4461 ;;		_I2C_Master_Wait
  4462 ;; This function is called by:
  4463 ;;		_EEPROM_Write
  4464 ;;		_EEPROM_Read
  4465 ;;		_EEPROM_Write_Page
  4466 ;;		_EEPROM_Read_Page
  4467 ;; This function uses a non-reentrant model
  4468 ;;
  4469                           
  4470                           
  4471                           ;psect for function _I2C_Master_Stop
  4472  0F9D                     _I2C_Master_Stop:
  4473  0F9D                     l1707:	
  4474                           ;incstack = 0
  4475 ;; hardware stack exceeded
  4476                           ; Regs used in _I2C_Master_Stop: [wreg+status,2+status,0+pclath+cstack]
  4477                           
  4478                           
  4479                           ;ext_eeprom.c: 34:   I2C_Master_Wait();
  4480  0F9D  120A  158A  27CF  120A  158A  	fcall	_I2C_Master_Wait
  4481  0FA2                     l1709:
  4482                           
  4483                           ;ext_eeprom.c: 35:   PEN = 1;
  4484  0FA2  1683               	bsf	3,5	;RP0=1, select bank1
  4485  0FA3  1303               	bcf	3,6	;RP1=0, select bank1
  4486  0FA4  1511               	bsf	17,2	;volatile
  4487  0FA5                     l269:
  4488  0FA5  0008               	return
  4489  0FA6                     __end_of_I2C_Master_Stop:
  4490                           
  4491                           	psect	text27
  4492  0F94                     __ptext27:	
  4493 ;; *************** function _I2C_Master_Start *****************
  4494 ;; Defined at:
  4495 ;;		line 22 in file "ext_eeprom.c"
  4496 ;; Parameters:    Size  Location     Type
  4497 ;;		None
  4498 ;; Auto vars:     Size  Location     Type
  4499 ;;		None
  4500 ;; Return value:  Size  Location     Type
  4501 ;;                  1    wreg      void 
  4502 ;; Registers used:
  4503 ;;		wreg, status,2, status,0, pclath, cstack
  4504 ;; Tracked objects:
  4505 ;;		On entry : 0/0
  4506 ;;		On exit  : 0/0
  4507 ;;		Unchanged: 0/0
  4508 ;; Data sizes:     COMMON   BANK0   BANK1   BANK3   BANK2
  4509 ;;      Params:         0       0       0       0       0
  4510 ;;      Locals:         0       0       0       0       0
  4511 ;;      Temps:          0       0       0       0       0
  4512 ;;      Totals:         0       0       0       0       0
  4513 ;;Total ram usage:        0 bytes
  4514 ;; Hardware stack levels used:    1
  4515 ;; Hardware stack levels required when called:    5
  4516 ;; This function calls:
  4517 ;;		_I2C_Master_Wait
  4518 ;; This function is called by:
  4519 ;;		_EEPROM_Write
  4520 ;;		_EEPROM_Read
  4521 ;;		_EEPROM_Write_Page
  4522 ;;		_EEPROM_Read_Page
  4523 ;; This function uses a non-reentrant model
  4524 ;;
  4525                           
  4526                           
  4527                           ;psect for function _I2C_Master_Start
  4528  0F94                     _I2C_Master_Start:
  4529  0F94                     l1699:	
  4530                           ;incstack = 0
  4531 ;; hardware stack exceeded
  4532                           ; Regs used in _I2C_Master_Start: [wreg+status,2+status,0+pclath+cstack]
  4533                           
  4534                           
  4535                           ;ext_eeprom.c: 24:   I2C_Master_Wait();
  4536  0F94  120A  158A  27CF  120A  158A  	fcall	_I2C_Master_Wait
  4537  0F99                     l1701:
  4538                           
  4539                           ;ext_eeprom.c: 25:   SEN = 1;
  4540  0F99  1683               	bsf	3,5	;RP0=1, select bank1
  4541  0F9A  1303               	bcf	3,6	;RP1=0, select bank1
  4542  0F9B  1411               	bsf	17,0	;volatile
  4543  0F9C                     l263:
  4544  0F9C  0008               	return
  4545  0F9D                     __end_of_I2C_Master_Start:
  4546                           
  4547                           	psect	text28
  4548  0FCF                     __ptext28:	
  4549 ;; *************** function _I2C_Master_Wait *****************
  4550 ;; Defined at:
  4551 ;;		line 18 in file "ext_eeprom.c"
  4552 ;; Parameters:    Size  Location     Type
  4553 ;;		None
  4554 ;; Auto vars:     Size  Location     Type
  4555 ;;		None
  4556 ;; Return value:  Size  Location     Type
  4557 ;;                  1    wreg      void 
  4558 ;; Registers used:
  4559 ;;		wreg, status,2
  4560 ;; Tracked objects:
  4561 ;;		On entry : 0/0
  4562 ;;		On exit  : 0/0
  4563 ;;		Unchanged: 0/0
  4564 ;; Data sizes:     COMMON   BANK0   BANK1   BANK3   BANK2
  4565 ;;      Params:         0       0       0       0       0
  4566 ;;      Locals:         0       0       0       0       0
  4567 ;;      Temps:          0       0       0       0       0
  4568 ;;      Totals:         0       0       0       0       0
  4569 ;;Total ram usage:        0 bytes
  4570 ;; Hardware stack levels used:    1
  4571 ;; Hardware stack levels required when called:    4
  4572 ;; This function calls:
  4573 ;;		Nothing
  4574 ;; This function is called by:
  4575 ;;		_I2C_Master_Start
  4576 ;;		_I2C_Master_RepeatedStart
  4577 ;;		_I2C_Master_Stop
  4578 ;;		_I2C_Master_Write
  4579 ;;		_I2C_Read_Byte
  4580 ;;		_I2C_NACK
  4581 ;;		_I2C_ACK
  4582 ;; This function uses a non-reentrant model
  4583 ;;
  4584                           
  4585                           
  4586                           ;psect for function _I2C_Master_Wait
  4587  0FCF                     _I2C_Master_Wait:
  4588  0FCF                     l1687:	
  4589                           ;incstack = 0
  4590 ;; hardware stack exceeded
  4591                           ; Regs used in _I2C_Master_Wait: [wreg+status,2]
  4592                           
  4593  0FCF                     l257:	
  4594                           ;ext_eeprom.c: 20:   while ((SSPSTAT & 0x04) || (SSPCON2 & 0x1F));
  4595                           
  4596  0FCF  1683               	bsf	3,5	;RP0=1, select bank1
  4597  0FD0  1303               	bcf	3,6	;RP1=0, select bank1
  4598  0FD1  1914               	btfsc	20,2	;volatile
  4599  0FD2  2FD4               	goto	u1001
  4600  0FD3  2FD5               	goto	u1000
  4601  0FD4                     u1001:
  4602  0FD4  2FCF               	goto	l257
  4603  0FD5                     u1000:
  4604  0FD5                     l1689:
  4605  0FD5  0811               	movf	17,w	;volatile
  4606  0FD6  391F               	andlw	31
  4607  0FD7  1D03               	btfss	3,2
  4608  0FD8  2FDA               	goto	u1011
  4609  0FD9  2FDB               	goto	u1010
  4610  0FDA                     u1011:
  4611  0FDA  2FCF               	goto	l257
  4612  0FDB                     u1010:
  4613  0FDB                     l260:
  4614  0FDB  0008               	return
  4615  0FDC                     __end_of_I2C_Master_Wait:
  4616                           
  4617                           	psect	text29
  4618  020C                     __ptext29:	
  4619 ;; *************** function _ISR *****************
  4620 ;; Defined at:
  4621 ;;		line 201 in file "main.c"
  4622 ;; Parameters:    Size  Location     Type
  4623 ;;		None
  4624 ;; Auto vars:     Size  Location     Type
  4625 ;;		None
  4626 ;; Return value:  Size  Location     Type
  4627 ;;                  1    wreg      void 
  4628 ;; Registers used:
  4629 ;;		wreg, fsr0l, fsr0h, status,2, status,0, btemp+1, pclath, cstack
  4630 ;; Tracked objects:
  4631 ;;		On entry : 0/0
  4632 ;;		On exit  : 0/0
  4633 ;;		Unchanged: 0/0
  4634 ;; Data sizes:     COMMON   BANK0   BANK1   BANK3   BANK2
  4635 ;;      Params:         0       0       0       0       0
  4636 ;;      Locals:         0       0       0       0       0
  4637 ;;      Temps:          0       6       0       0       0
  4638 ;;      Totals:         0       6       0       0       0
  4639 ;;Total ram usage:        6 bytes
  4640 ;; Hardware stack levels used:    1
  4641 ;; Hardware stack levels required when called:    3
  4642 ;; This function calls:
  4643 ;;		_update_tempreture
  4644 ;;		i1___lwdiv
  4645 ;; This function is called by:
  4646 ;;		Interrupt level 1
  4647 ;; This function uses a non-reentrant model
  4648 ;;
  4649                           
  4650                           
  4651                           ;psect for function _ISR
  4652  020C                     _ISR:
  4653  020C                     i1l2267:
  4654                           
  4655                           ;main.c: 203:   if (INTF)
  4656  020C  1C8B               	btfss	11,1	;volatile
  4657  020D  2A0F               	goto	u190_21
  4658  020E  2A10               	goto	u190_20
  4659  020F                     u190_21:
  4660  020F  2A2D               	goto	i1l139
  4661  0210                     u190_20:
  4662  0210                     i1l2269:
  4663                           
  4664                           ;main.c: 204:   {;main.c: 205:         INTF = 0;
  4665  0210  108B               	bcf	11,1	;volatile
  4666                           
  4667                           ;main.c: 206:         switch(state)
  4668  0211  2A1A               	goto	i1l2275
  4669  0212                     i1l141:	
  4670                           ;main.c: 207:         {;main.c: 208:             case ON_STATE:
  4671                           
  4672                           
  4673                           ;main.c: 209:                 TMR1ON = 0;
  4674  0212  1010               	bcf	16,0	;volatile
  4675                           
  4676                           ;main.c: 210:                 TMR1IF = 0;
  4677  0213  100C               	bcf	12,0	;volatile
  4678                           
  4679                           ;main.c: 211:                 state=OFF_STATE;
  4680  0214  01DE               	clrf	_state
  4681  0215  0ADE               	incf	_state,f
  4682                           
  4683                           ;main.c: 212:                 break;
  4684  0216  2A2D               	goto	i1l139
  4685  0217                     i1l143:	
  4686                           ;main.c: 213:             case OFF_STATE:
  4687                           
  4688                           
  4689                           ;main.c: 214:                 TMR1ON = 1;
  4690  0217  1410               	bsf	16,0	;volatile
  4691  0218                     i1l2271:
  4692                           
  4693                           ;main.c: 215:                 state=ON_STATE;
  4694  0218  01DE               	clrf	_state
  4695                           
  4696                           ;main.c: 216:                 break;
  4697  0219  2A2D               	goto	i1l139
  4698  021A                     i1l2275:
  4699  021A  085E               	movf	_state,w
  4700  021B  00AB               	movwf	??_ISR
  4701  021C  01AC               	clrf	??_ISR+1
  4702                           
  4703                           ; Switch on 2 bytes has been partitioned into a top level switch of size 1, and 1 sub-sw
      +                          itches
  4704                           ; Switch size 1, requested type "simple"
  4705                           ; Number of cases is 1, Range of values is 0 to 0
  4706                           ; switch strategies available:
  4707                           ; Name         Instructions Cycles
  4708                           ; simple_byte            4     3 (average)
  4709                           ; direct_byte           11     8 (fixed)
  4710                           ; jumptable            260     6 (fixed)
  4711                           ;	Chosen strategy is simple_byte
  4712  021D  082C               	movf	??_ISR+1,w
  4713  021E  3A00               	xorlw	0	; case 0
  4714  021F  1903               	skipnz
  4715  0220  2A22               	goto	i1l2615
  4716  0221  2A2D               	goto	i1l139
  4717  0222                     i1l2615:
  4718                           
  4719                           ; Switch size 1, requested type "simple"
  4720                           ; Number of cases is 3, Range of values is 0 to 2
  4721                           ; switch strategies available:
  4722                           ; Name         Instructions Cycles
  4723                           ; simple_byte           10     6 (average)
  4724                           ; direct_byte           17     8 (fixed)
  4725                           ; jumptable            260     6 (fixed)
  4726                           ;	Chosen strategy is simple_byte
  4727  0222  082B               	movf	??_ISR,w
  4728  0223  3A00               	xorlw	0	; case 0
  4729  0224  1903               	skipnz
  4730  0225  2A12               	goto	i1l141
  4731  0226  3A01               	xorlw	1	; case 1
  4732  0227  1903               	skipnz
  4733  0228  2A17               	goto	i1l143
  4734  0229  3A03               	xorlw	3	; case 2
  4735  022A  1903               	skipnz
  4736  022B  2A12               	goto	i1l141
  4737  022C  2A2D               	goto	i1l139
  4738  022D                     i1l139:	
  4739                           ;main.c: 225:     }
  4740                           
  4741                           
  4742                           ;main.c: 227:    if (TMR1IF)
  4743  022D  1C0C               	btfss	12,0	;volatile
  4744  022E  2A30               	goto	u191_21
  4745  022F  2A31               	goto	u191_20
  4746  0230                     u191_21:
  4747  0230  2A75               	goto	i1l153
  4748  0231                     u191_20:
  4749  0231                     i1l2277:
  4750                           
  4751                           ;main.c: 228:    {;main.c: 229:         TMR1IF = 0;
  4752  0231  100C               	bcf	12,0	;volatile
  4753  0232                     i1l2279:
  4754                           
  4755                           ;main.c: 230:         timer1counter++;
  4756  0232  3001               	movlw	1
  4757  0233  00FF               	movwf	btemp+1
  4758  0234  087F               	movf	btemp+1,w
  4759  0235  07D8               	addwf	_timer1counter,f
  4760  0236                     i1l2281:
  4761                           
  4762                           ;main.c: 232:         if (timer1counter == 4){
  4763  0236  3004               	movlw	4
  4764  0237  0658               	xorwf	_timer1counter,w
  4765  0238  1D03               	btfss	3,2
  4766  0239  2A3B               	goto	u192_21
  4767  023A  2A3C               	goto	u192_20
  4768  023B                     u192_21:
  4769  023B  2A46               	goto	i1l2289
  4770  023C                     u192_20:
  4771  023C                     i1l2283:
  4772                           
  4773                           ;main.c: 234:              Number_Tempreture++;
  4774  023C  3001               	movlw	1
  4775  023D  00FF               	movwf	btemp+1
  4776  023E  087F               	movf	btemp+1,w
  4777  023F  07D9               	addwf	_Number_Tempreture,f
  4778  0240                     i1l2285:
  4779                           
  4780                           ;main.c: 235:              timer1counter = 0;
  4781  0240  01D8               	clrf	_timer1counter
  4782  0241                     i1l2287:
  4783                           
  4784                           ;main.c: 236:              update_tempreture();
  4785  0241  120A  118A  23AC  120A  118A  	fcall	_update_tempreture
  4786  0246                     i1l2289:
  4787                           
  4788                           ;main.c: 238:          if(Number_Tempreture==10)
  4789  0246  300A               	movlw	10
  4790  0247  1283               	bcf	3,5	;RP0=0, select bank0
  4791  0248  1303               	bcf	3,6	;RP1=0, select bank0
  4792  0249  0659               	xorwf	_Number_Tempreture,w
  4793  024A  1D03               	btfss	3,2
  4794  024B  2A4D               	goto	u193_21
  4795  024C  2A4E               	goto	u193_20
  4796  024D                     u193_21:
  4797  024D  2A75               	goto	i1l153
  4798  024E                     u193_20:
  4799  024E                     i1l2291:
  4800                           
  4801                           ;main.c: 239:          {;main.c: 240:             TEMPRETURE=accumilated_tmeperature/10;
  4802  024E  300A               	movlw	10
  4803  024F  00F5               	movwf	i1___lwdiv@divisor
  4804  0250  3000               	movlw	0
  4805  0251  00F6               	movwf	i1___lwdiv@divisor+1
  4806  0252  0854               	movf	_accumilated_tmeperature+1,w
  4807  0253  00F8               	movwf	i1___lwdiv@dividend+1
  4808  0254  0853               	movf	_accumilated_tmeperature,w
  4809  0255  00F7               	movwf	i1___lwdiv@dividend
  4810  0256  120A  118A  25EC  120A  118A  	fcall	i1___lwdiv
  4811  025B  0876               	movf	?i1___lwdiv+1,w
  4812  025C  1283               	bcf	3,5	;RP0=0, select bank0
  4813  025D  1303               	bcf	3,6	;RP1=0, select bank0
  4814  025E  00D6               	movwf	_TEMPRETURE+1
  4815  025F  0875               	movf	?i1___lwdiv,w
  4816  0260  00D5               	movwf	_TEMPRETURE
  4817  0261                     i1l2293:
  4818                           
  4819                           ;main.c: 241:             if (temp_state == UPOVE_state){
  4820  0261  035A               	decf	_temp_state,w
  4821  0262  1D03               	btfss	3,2
  4822  0263  2A65               	goto	u194_21
  4823  0264  2A66               	goto	u194_20
  4824  0265                     u194_21:
  4825  0265  2A69               	goto	i1l2297
  4826  0266                     u194_20:
  4827  0266                     i1l2295:
  4828                           
  4829                           ;main.c: 243:                 RB5 = ~RB5;
  4830  0266  3020               	movlw	32
  4831  0267  0686               	xorwf	6,f
  4832                           
  4833                           ;main.c: 244:             }else if (temp_state == DOWN_state){
  4834  0268  2A72               	goto	i1l2301
  4835  0269                     i1l2297:
  4836  0269  3002               	movlw	2
  4837  026A  065A               	xorwf	_temp_state,w
  4838  026B  1D03               	btfss	3,2
  4839  026C  2A6E               	goto	u195_21
  4840  026D  2A6F               	goto	u195_20
  4841  026E                     u195_21:
  4842  026E  2A71               	goto	i1l151
  4843  026F                     u195_20:
  4844  026F                     i1l2299:
  4845                           
  4846                           ;main.c: 246:                 RB5 = 1;
  4847  026F  1686               	bsf	6,5	;volatile
  4848                           
  4849                           ;main.c: 247:             }else{RB5 = 0;}
  4850  0270  2A72               	goto	i1l2301
  4851  0271                     i1l151:
  4852  0271  1286               	bcf	6,5	;volatile
  4853  0272                     i1l2301:
  4854                           
  4855                           ;main.c: 249:              Number_Tempreture = 0;
  4856  0272  01D9               	clrf	_Number_Tempreture
  4857                           
  4858                           ;main.c: 250:              accumilated_tmeperature= 0;
  4859  0273  01D3               	clrf	_accumilated_tmeperature
  4860  0274  01D4               	clrf	_accumilated_tmeperature+1
  4861  0275                     i1l153:
  4862  0275  0830               	movf	??_ISR+5,w
  4863  0276  00FF               	movwf	btemp+1
  4864  0277  082F               	movf	??_ISR+4,w
  4865  0278  008A               	movwf	10
  4866  0279  082E               	movf	??_ISR+3,w
  4867  027A  0084               	movwf	4
  4868  027B  0E2D               	swapf	(??_ISR+2)^0,w
  4869  027C  0083               	movwf	3
  4870  027D  0EFE               	swapf	btemp,f
  4871  027E  0E7E               	swapf	btemp,w
  4872  027F  0009               	retfie
  4873  0280                     __end_of_ISR:
  4874                           
  4875                           	psect	intentry
  4876  0004                     __pintentry:	
  4877                           ;incstack = 0
  4878 ;; hardware stack exceeded
  4879                           ; Regs used in _ISR: [wreg-fsr0h+status,2+status,0+btemp+1+pclath+cstack]
  4880                           
  4881  0004                     interrupt_function:
  4882  007E                     saved_w	set	btemp
  4883  0004  00FE               	movwf	btemp
  4884  0005  0E03               	swapf	3,w
  4885  0006  1283               	bcf	3,5	;RP0=0, select bank0
  4886  0007  1303               	bcf	3,6	;RP1=0, select bank0
  4887  0008  00AD               	movwf	??_ISR+2
  4888  0009  0804               	movf	4,w
  4889  000A  00AE               	movwf	??_ISR+3
  4890  000B  080A               	movf	10,w
  4891  000C  00AF               	movwf	??_ISR+4
  4892  000D  087F               	movf	btemp+1,w
  4893  000E  00B0               	movwf	??_ISR+5
  4894  000F  120A  118A  2A0C   	ljmp	_ISR
  4895                           
  4896                           	psect	text30
  4897  03AC                     __ptext30:	
  4898 ;; *************** function _update_tempreture *****************
  4899 ;; Defined at:
  4900 ;;		line 192 in file "main.c"
  4901 ;; Parameters:    Size  Location     Type
  4902 ;;		None
  4903 ;; Auto vars:     Size  Location     Type
  4904 ;;  temp            2    7[BANK0 ] unsigned int 
  4905 ;;  x               1   10[BANK0 ] unsigned char 
  4906 ;;  y               1    9[BANK0 ] unsigned char 
  4907 ;; Return value:  Size  Location     Type
  4908 ;;                  1    wreg      void 
  4909 ;; Registers used:
  4910 ;;		wreg, fsr0l, fsr0h, status,2, status,0, btemp+1, pclath, cstack
  4911 ;; Tracked objects:
  4912 ;;		On entry : 0/0
  4913 ;;		On exit  : 0/0
  4914 ;;		Unchanged: 0/0
  4915 ;; Data sizes:     COMMON   BANK0   BANK1   BANK3   BANK2
  4916 ;;      Params:         0       0       0       0       0
  4917 ;;      Locals:         0       4       0       0       0
  4918 ;;      Temps:          0       4       0       0       0
  4919 ;;      Totals:         0       8       0       0       0
  4920 ;;Total ram usage:        8 bytes
  4921 ;; Hardware stack levels used:    1
  4922 ;; Hardware stack levels required when called:    2
  4923 ;; This function calls:
  4924 ;;		___wmul
  4925 ;;		_adc_amostra
  4926 ;;		_convertADCReadings
  4927 ;; This function is called by:
  4928 ;;		_ISR
  4929 ;; This function uses a non-reentrant model
  4930 ;;
  4931                           
  4932                           
  4933                           ;psect for function _update_tempreture
  4934  03AC                     _update_tempreture:
  4935  03AC                     i1l2185:	
  4936                           ;incstack = 0
  4937 ;; hardware stack exceeded
  4938                           ; Regs used in _update_tempreture: [wreg-fsr0h+status,2+status,0+btemp+1+pclath+cstack]
  4939                           
  4940                           
  4941                           ;main.c: 194:     unsigned int temp=(adc_amostra(2)*10)/2;
  4942  03AC  3002               	movlw	2
  4943  03AD  120A  118A  2558  120A  118A  	fcall	_adc_amostra
  4944  03B2  0871               	movf	?_adc_amostra+1,w
  4945  03B3  00FB               	movwf	___wmul@multiplier+1
  4946  03B4  0870               	movf	?_adc_amostra,w
  4947  03B5  00FA               	movwf	___wmul@multiplier
  4948  03B6  300A               	movlw	10
  4949  03B7  00FC               	movwf	___wmul@multiplicand
  4950  03B8  3000               	movlw	0
  4951  03B9  00FD               	movwf	___wmul@multiplicand+1
  4952  03BA  120A  118A  2783  120A  118A  	fcall	___wmul
  4953  03BF  087A               	movf	?___wmul,w
  4954  03C0  1283               	bcf	3,5	;RP0=0, select bank0
  4955  03C1  1303               	bcf	3,6	;RP1=0, select bank0
  4956  03C2  00A3               	movwf	??_update_tempreture
  4957  03C3  087B               	movf	?___wmul+1,w
  4958  03C4  00A4               	movwf	??_update_tempreture+1
  4959  03C5  1003               	clrc
  4960  03C6  0CA4               	rrf	??_update_tempreture+1,f
  4961  03C7  0CA3               	rrf	??_update_tempreture,f
  4962  03C8  0823               	movf	??_update_tempreture,w
  4963  03C9  00A7               	movwf	update_tempreture@temp
  4964  03CA  0824               	movf	??_update_tempreture+1,w
  4965  03CB  00A8               	movwf	update_tempreture@temp+1
  4966  03CC                     i1l2187:
  4967                           
  4968                           ;main.c: 195:     convertADCReadings(temp,str);
  4969  03CC  0828               	movf	update_tempreture@temp+1,w
  4970  03CD  00A1               	movwf	convertADCReadings@val+1
  4971  03CE  0827               	movf	update_tempreture@temp,w
  4972  03CF  00A0               	movwf	convertADCReadings@val
  4973  03D0  305B               	movlw	(low (_str| 0))& (0+255)
  4974  03D1  00FF               	movwf	btemp+1
  4975  03D2  087F               	movf	btemp+1,w
  4976  03D3  00A2               	movwf	convertADCReadings@str
  4977  03D4  120A  118A  2504  120A  118A  	fcall	_convertADCReadings
  4978  03D9                     i1l2189:
  4979                           
  4980                           ;main.c: 196:     unsigned char y= str[0];
  4981  03D9  1283               	bcf	3,5	;RP0=0, select bank0
  4982  03DA  1303               	bcf	3,6	;RP1=0, select bank0
  4983  03DB  085B               	movf	_str,w
  4984  03DC  00FF               	movwf	btemp+1
  4985  03DD  087F               	movf	btemp+1,w
  4986  03DE  00A9               	movwf	update_tempreture@y
  4987  03DF                     i1l2191:
  4988                           
  4989                           ;main.c: 197:     unsigned char x= str[1];
  4990  03DF  085C               	movf	_str+1,w
  4991  03E0  00FF               	movwf	btemp+1
  4992  03E1  087F               	movf	btemp+1,w
  4993  03E2  00AA               	movwf	update_tempreture@x
  4994  03E3                     i1l2193:
  4995                           
  4996                           ;main.c: 198:     accumilated_tmeperature += (y*10)+x;
  4997  03E3  0829               	movf	update_tempreture@y,w
  4998  03E4  00A3               	movwf	??_update_tempreture
  4999  03E5  01A4               	clrf	??_update_tempreture+1
  5000  03E6  0823               	movf	??_update_tempreture,w
  5001  03E7  00FA               	movwf	___wmul@multiplier
  5002  03E8  0824               	movf	??_update_tempreture+1,w
  5003  03E9  00FB               	movwf	___wmul@multiplier+1
  5004  03EA  300A               	movlw	10
  5005  03EB  00FC               	movwf	___wmul@multiplicand
  5006  03EC  3000               	movlw	0
  5007  03ED  00FD               	movwf	___wmul@multiplicand+1
  5008  03EE  120A  118A  2783  120A  118A  	fcall	___wmul
  5009  03F3  1283               	bcf	3,5	;RP0=0, select bank0
  5010  03F4  1303               	bcf	3,6	;RP1=0, select bank0
  5011  03F5  082A               	movf	update_tempreture@x,w
  5012  03F6  077A               	addwf	?___wmul,w
  5013  03F7  00A5               	movwf	??_update_tempreture+2
  5014  03F8  3000               	movlw	0
  5015  03F9  1803               	skipnc
  5016  03FA  3001               	movlw	1
  5017  03FB  077B               	addwf	?___wmul+1,w
  5018  03FC  00A6               	movwf	??_update_tempreture+3
  5019  03FD  0825               	movf	??_update_tempreture+2,w
  5020  03FE  07D3               	addwf	_accumilated_tmeperature,f
  5021  03FF  1803               	skipnc
  5022  0400  0AD4               	incf	_accumilated_tmeperature+1,f
  5023  0401  0826               	movf	??_update_tempreture+3,w
  5024  0402  07D4               	addwf	_accumilated_tmeperature+1,f
  5025  0403                     i1l134:
  5026  0403  0008               	return
  5027  0404                     __end_of_update_tempreture:
  5028                           
  5029                           	psect	text31
  5030  0504                     __ptext31:	
  5031 ;; *************** function _convertADCReadings *****************
  5032 ;; Defined at:
  5033 ;;		line 3 in file "read_converter.c"
  5034 ;; Parameters:    Size  Location     Type
  5035 ;;  val             2    0[BANK0 ] unsigned int 
  5036 ;;  str             1    2[BANK0 ] PTR unsigned char 
  5037 ;;		 -> str(2), 
  5038 ;; Auto vars:     Size  Location     Type
  5039 ;;		None
  5040 ;; Return value:  Size  Location     Type
  5041 ;;                  1    wreg      void 
  5042 ;; Registers used:
  5043 ;;		wreg, fsr0l, fsr0h, status,2, status,0, btemp+1, pclath, cstack
  5044 ;; Tracked objects:
  5045 ;;		On entry : 0/0
  5046 ;;		On exit  : 0/0
  5047 ;;		Unchanged: 0/0
  5048 ;; Data sizes:     COMMON   BANK0   BANK1   BANK3   BANK2
  5049 ;;      Params:         0       3       0       0       0
  5050 ;;      Locals:         0       0       0       0       0
  5051 ;;      Temps:          0       0       0       0       0
  5052 ;;      Totals:         0       3       0       0       0
  5053 ;;Total ram usage:        3 bytes
  5054 ;; Hardware stack levels used:    1
  5055 ;; Hardware stack levels required when called:    1
  5056 ;; This function calls:
  5057 ;;		i1___lwdiv
  5058 ;;		i1___lwmod
  5059 ;; This function is called by:
  5060 ;;		_update_tempreture
  5061 ;; This function uses a non-reentrant model
  5062 ;;
  5063                           
  5064                           
  5065                           ;psect for function _convertADCReadings
  5066  0504                     _convertADCReadings:
  5067  0504                     i1l2063:	
  5068                           ;incstack = 0
  5069 ;; hardware stack exceeded
  5070                           ; Regs used in _convertADCReadings: [wreg-fsr0h+status,2+status,0+btemp+1+pclath+cstack]
  5071                           
  5072                           
  5073                           ;read_converter.c: 3: void convertADCReadings(unsigned int val, unsigned char* str );rea
      +                          d_converter.c: 4: {;read_converter.c: 5:   str[0]=((val%1000)/100);
  5074  0504  3064               	movlw	100
  5075  0505  00F5               	movwf	i1___lwdiv@divisor
  5076  0506  3000               	movlw	0
  5077  0507  00F6               	movwf	i1___lwdiv@divisor+1
  5078  0508  1283               	bcf	3,5	;RP0=0, select bank0
  5079  0509  1303               	bcf	3,6	;RP1=0, select bank0
  5080  050A  0821               	movf	convertADCReadings@val+1,w
  5081  050B  00F3               	movwf	i1___lwmod@dividend+1
  5082  050C  0820               	movf	convertADCReadings@val,w
  5083  050D  00F2               	movwf	i1___lwmod@dividend
  5084  050E  30E8               	movlw	232
  5085  050F  00F0               	movwf	i1___lwmod@divisor
  5086  0510  3003               	movlw	3
  5087  0511  00F1               	movwf	i1___lwmod@divisor+1
  5088  0512  120A  118A  26AD  120A  118A  	fcall	i1___lwmod
  5089  0517  0871               	movf	?i1___lwmod+1,w
  5090  0518  00F8               	movwf	i1___lwdiv@dividend+1
  5091  0519  0870               	movf	?i1___lwmod,w
  5092  051A  00F7               	movwf	i1___lwdiv@dividend
  5093  051B  120A  118A  25EC  120A  118A  	fcall	i1___lwdiv
  5094  0520  0875               	movf	?i1___lwdiv,w
  5095  0521  00FF               	movwf	btemp+1
  5096  0522  1283               	bcf	3,5	;RP0=0, select bank0
  5097  0523  1303               	bcf	3,6	;RP1=0, select bank0
  5098  0524  0822               	movf	convertADCReadings@str,w
  5099  0525  0084               	movwf	4
  5100  0526  087F               	movf	btemp+1,w
  5101  0527  1383               	bcf	3,7	;select IRP bank0
  5102  0528  0080               	movwf	0
  5103                           
  5104                           ;read_converter.c: 6:   str[1]=((val%100)/10);
  5105  0529  300A               	movlw	10
  5106  052A  00F5               	movwf	i1___lwdiv@divisor
  5107  052B  3000               	movlw	0
  5108  052C  00F6               	movwf	i1___lwdiv@divisor+1
  5109  052D  0821               	movf	convertADCReadings@val+1,w
  5110  052E  00F3               	movwf	i1___lwmod@dividend+1
  5111  052F  0820               	movf	convertADCReadings@val,w
  5112  0530  00F2               	movwf	i1___lwmod@dividend
  5113  0531  3064               	movlw	100
  5114  0532  00F0               	movwf	i1___lwmod@divisor
  5115  0533  3000               	movlw	0
  5116  0534  00F1               	movwf	i1___lwmod@divisor+1
  5117  0535  120A  118A  26AD  120A  118A  	fcall	i1___lwmod
  5118  053A  0871               	movf	?i1___lwmod+1,w
  5119  053B  00F8               	movwf	i1___lwdiv@dividend+1
  5120  053C  0870               	movf	?i1___lwmod,w
  5121  053D  00F7               	movwf	i1___lwdiv@dividend
  5122  053E  120A  118A  25EC  120A  118A  	fcall	i1___lwdiv
  5123  0543  0875               	movf	?i1___lwdiv,w
  5124  0544  00FF               	movwf	btemp+1
  5125  0545  1283               	bcf	3,5	;RP0=0, select bank0
  5126  0546  1303               	bcf	3,6	;RP1=0, select bank0
  5127  0547  0A22               	incf	convertADCReadings@str,w
  5128  0548  0084               	movwf	4
  5129  0549  087F               	movf	btemp+1,w
  5130  054A  1383               	bcf	3,7	;select IRP bank0
  5131  054B  0080               	movwf	0
  5132  054C                     i1l2065:
  5133                           
  5134                           ;read_converter.c: 7:   if (str[1] != 0)
  5135  054C  0A22               	incf	convertADCReadings@str,w
  5136  054D  0084               	movwf	4
  5137  054E  0800               	movf	0,w
  5138  054F  1903               	btfsc	3,2
  5139  0550  2D52               	goto	u173_21
  5140  0551  2D53               	goto	u173_20
  5141  0552                     u173_21:
  5142  0552  2D57               	goto	i1l349
  5143  0553                     u173_20:
  5144  0553                     i1l2067:
  5145                           
  5146                           ;read_converter.c: 8:       str[1]-=1;
  5147  0553  0A22               	incf	convertADCReadings@str,w
  5148  0554  0084               	movwf	4
  5149  0555  3001               	movlw	1
  5150  0556  0280               	subwf	0,f
  5151  0557                     i1l349:
  5152  0557  0008               	return
  5153  0558                     __end_of_convertADCReadings:
  5154                           
  5155                           	psect	text32
  5156  06AD                     __ptext32:	
  5157 ;; *************** function i1___lwmod *****************
  5158 ;; Defined at:
  5159 ;;		line 5 in file "C:\Program Files\Microchip\xc8\v2.20\pic\sources\c90\common\lwmod.c"
  5160 ;; Parameters:    Size  Location     Type
  5161 ;;  divisor         2    0[COMMON] unsigned int 
  5162 ;;  dividend        2    2[COMMON] unsigned int 
  5163 ;; Auto vars:     Size  Location     Type
  5164 ;;  counter         1    4[COMMON] unsigned char 
  5165 ;; Return value:  Size  Location     Type
  5166 ;;                  2    0[COMMON] unsigned int 
  5167 ;; Registers used:
  5168 ;;		wreg, status,2, status,0, btemp+1
  5169 ;; Tracked objects:
  5170 ;;		On entry : 0/0
  5171 ;;		On exit  : 0/0
  5172 ;;		Unchanged: 0/0
  5173 ;; Data sizes:     COMMON   BANK0   BANK1   BANK3   BANK2
  5174 ;;      Params:         4       0       0       0       0
  5175 ;;      Locals:         1       0       0       0       0
  5176 ;;      Temps:          0       0       0       0       0
  5177 ;;      Totals:         5       0       0       0       0
  5178 ;;Total ram usage:        5 bytes
  5179 ;; Hardware stack levels used:    1
  5180 ;; This function calls:
  5181 ;;		Nothing
  5182 ;; This function is called by:
  5183 ;;		_convertADCReadings
  5184 ;; This function uses a non-reentrant model
  5185 ;;
  5186                           
  5187                           
  5188                           ;psect for function i1___lwmod
  5189  06AD                     i1___lwmod:
  5190  06AD                     i1l1899:	
  5191                           ;incstack = 0
  5192 ;; hardware stack exceeded
  5193                           ; Regs used in i1___lwmod: [wreg+status,2+status,0+btemp+1]
  5194                           
  5195  06AD  0870               	movf	i1___lwmod@divisor,w
  5196  06AE  0471               	iorwf	i1___lwmod@divisor+1,w
  5197  06AF  1903               	btfsc	3,2
  5198  06B0  2EB2               	goto	u144_21
  5199  06B1  2EB3               	goto	u144_20
  5200  06B2                     u144_21:
  5201  06B2  2EE2               	goto	i1l1917
  5202  06B3                     u144_20:
  5203  06B3                     i1l1901:
  5204  06B3  01F4               	clrf	i1___lwmod@counter
  5205  06B4  0AF4               	incf	i1___lwmod@counter,f
  5206  06B5  2EC1               	goto	i1l1907
  5207  06B6                     i1l1903:
  5208  06B6  3001               	movlw	1
  5209  06B7                     u145_25:
  5210  06B7  1003               	clrc
  5211  06B8  0DF0               	rlf	i1___lwmod@divisor,f
  5212  06B9  0DF1               	rlf	i1___lwmod@divisor+1,f
  5213  06BA  3EFF               	addlw	-1
  5214  06BB  1D03               	skipz
  5215  06BC  2EB7               	goto	u145_25
  5216  06BD                     i1l1905:
  5217  06BD  3001               	movlw	1
  5218  06BE  00FF               	movwf	btemp+1
  5219  06BF  087F               	movf	btemp+1,w
  5220  06C0  07F4               	addwf	i1___lwmod@counter,f
  5221  06C1                     i1l1907:
  5222  06C1  1FF1               	btfss	i1___lwmod@divisor+1,7
  5223  06C2  2EC4               	goto	u146_21
  5224  06C3  2EC5               	goto	u146_20
  5225  06C4                     u146_21:
  5226  06C4  2EB6               	goto	i1l1903
  5227  06C5                     u146_20:
  5228  06C5                     i1l1909:
  5229  06C5  0871               	movf	i1___lwmod@divisor+1,w
  5230  06C6  0273               	subwf	i1___lwmod@dividend+1,w
  5231  06C7  1D03               	skipz
  5232  06C8  2ECB               	goto	u147_25
  5233  06C9  0870               	movf	i1___lwmod@divisor,w
  5234  06CA  0272               	subwf	i1___lwmod@dividend,w
  5235  06CB                     u147_25:
  5236  06CB  1C03               	skipc
  5237  06CC  2ECE               	goto	u147_21
  5238  06CD  2ECF               	goto	u147_20
  5239  06CE                     u147_21:
  5240  06CE  2ED5               	goto	i1l1913
  5241  06CF                     u147_20:
  5242  06CF                     i1l1911:
  5243  06CF  0870               	movf	i1___lwmod@divisor,w
  5244  06D0  02F2               	subwf	i1___lwmod@dividend,f
  5245  06D1  0871               	movf	i1___lwmod@divisor+1,w
  5246  06D2  1C03               	skipc
  5247  06D3  03F3               	decf	i1___lwmod@dividend+1,f
  5248  06D4  02F3               	subwf	i1___lwmod@dividend+1,f
  5249  06D5                     i1l1913:
  5250  06D5  3001               	movlw	1
  5251  06D6                     u148_25:
  5252  06D6  1003               	clrc
  5253  06D7  0CF1               	rrf	i1___lwmod@divisor+1,f
  5254  06D8  0CF0               	rrf	i1___lwmod@divisor,f
  5255  06D9  3EFF               	addlw	-1
  5256  06DA  1D03               	skipz
  5257  06DB  2ED6               	goto	u148_25
  5258  06DC                     i1l1915:
  5259  06DC  3001               	movlw	1
  5260  06DD  02F4               	subwf	i1___lwmod@counter,f
  5261  06DE  1D03               	btfss	3,2
  5262  06DF  2EE1               	goto	u149_21
  5263  06E0  2EE2               	goto	u149_20
  5264  06E1                     u149_21:
  5265  06E1  2EC5               	goto	i1l1909
  5266  06E2                     u149_20:
  5267  06E2                     i1l1917:
  5268  06E2  0873               	movf	i1___lwmod@dividend+1,w
  5269  06E3  00F1               	movwf	?i1___lwmod+1
  5270  06E4  0872               	movf	i1___lwmod@dividend,w
  5271  06E5  00F0               	movwf	?i1___lwmod
  5272  06E6                     i1l717:
  5273  06E6  0008               	return
  5274  06E7                     __end_ofi1___lwmod:
  5275                           
  5276                           	psect	text33
  5277  05EC                     __ptext33:	
  5278 ;; *************** function i1___lwdiv *****************
  5279 ;; Defined at:
  5280 ;;		line 5 in file "C:\Program Files\Microchip\xc8\v2.20\pic\sources\c90\common\lwdiv.c"
  5281 ;; Parameters:    Size  Location     Type
  5282 ;;  divisor         2    5[COMMON] unsigned int 
  5283 ;;  dividend        2    7[COMMON] unsigned int 
  5284 ;; Auto vars:     Size  Location     Type
  5285 ;;  quotient        2    9[COMMON] unsigned int 
  5286 ;;  counter         1   11[COMMON] unsigned char 
  5287 ;; Return value:  Size  Location     Type
  5288 ;;                  2    5[COMMON] unsigned int 
  5289 ;; Registers used:
  5290 ;;		wreg, status,2, status,0, btemp+1
  5291 ;; Tracked objects:
  5292 ;;		On entry : 0/0
  5293 ;;		On exit  : 0/0
  5294 ;;		Unchanged: 0/0
  5295 ;; Data sizes:     COMMON   BANK0   BANK1   BANK3   BANK2
  5296 ;;      Params:         4       0       0       0       0
  5297 ;;      Locals:         3       0       0       0       0
  5298 ;;      Temps:          0       0       0       0       0
  5299 ;;      Totals:         7       0       0       0       0
  5300 ;;Total ram usage:        7 bytes
  5301 ;; Hardware stack levels used:    1
  5302 ;; This function calls:
  5303 ;;		Nothing
  5304 ;; This function is called by:
  5305 ;;		_ISR
  5306 ;;		_convertADCReadings
  5307 ;; This function uses a non-reentrant model
  5308 ;;
  5309                           
  5310                           
  5311                           ;psect for function i1___lwdiv
  5312  05EC                     i1___lwdiv:
  5313  05EC                     i1l1873:	
  5314                           ;incstack = 0
  5315                           ; Regs used in i1___lwdiv: [wreg+status,2+status,0+btemp+1]
  5316                           
  5317  05EC  01F9               	clrf	i1___lwdiv@quotient
  5318  05ED  01FA               	clrf	i1___lwdiv@quotient+1
  5319  05EE                     i1l1875:
  5320  05EE  0875               	movf	i1___lwdiv@divisor,w
  5321  05EF  0476               	iorwf	i1___lwdiv@divisor+1,w
  5322  05F0  1903               	btfsc	3,2
  5323  05F1  2DF3               	goto	u137_21
  5324  05F2  2DF4               	goto	u137_20
  5325  05F3                     u137_21:
  5326  05F3  2E2B               	goto	i1l1895
  5327  05F4                     u137_20:
  5328  05F4                     i1l1877:
  5329  05F4  01FB               	clrf	i1___lwdiv@counter
  5330  05F5  0AFB               	incf	i1___lwdiv@counter,f
  5331  05F6  2E02               	goto	i1l1883
  5332  05F7                     i1l1879:
  5333  05F7  3001               	movlw	1
  5334  05F8                     u138_25:
  5335  05F8  1003               	clrc
  5336  05F9  0DF5               	rlf	i1___lwdiv@divisor,f
  5337  05FA  0DF6               	rlf	i1___lwdiv@divisor+1,f
  5338  05FB  3EFF               	addlw	-1
  5339  05FC  1D03               	skipz
  5340  05FD  2DF8               	goto	u138_25
  5341  05FE                     i1l1881:
  5342  05FE  3001               	movlw	1
  5343  05FF  00FF               	movwf	btemp+1
  5344  0600  087F               	movf	btemp+1,w
  5345  0601  07FB               	addwf	i1___lwdiv@counter,f
  5346  0602                     i1l1883:
  5347  0602  1FF6               	btfss	i1___lwdiv@divisor+1,7
  5348  0603  2E05               	goto	u139_21
  5349  0604  2E06               	goto	u139_20
  5350  0605                     u139_21:
  5351  0605  2DF7               	goto	i1l1879
  5352  0606                     u139_20:
  5353  0606                     i1l1885:
  5354  0606  3001               	movlw	1
  5355  0607                     u140_25:
  5356  0607  1003               	clrc
  5357  0608  0DF9               	rlf	i1___lwdiv@quotient,f
  5358  0609  0DFA               	rlf	i1___lwdiv@quotient+1,f
  5359  060A  3EFF               	addlw	-1
  5360  060B  1D03               	skipz
  5361  060C  2E07               	goto	u140_25
  5362  060D  0876               	movf	i1___lwdiv@divisor+1,w
  5363  060E  0278               	subwf	i1___lwdiv@dividend+1,w
  5364  060F  1D03               	skipz
  5365  0610  2E13               	goto	u141_25
  5366  0611  0875               	movf	i1___lwdiv@divisor,w
  5367  0612  0277               	subwf	i1___lwdiv@dividend,w
  5368  0613                     u141_25:
  5369  0613  1C03               	skipc
  5370  0614  2E16               	goto	u141_21
  5371  0615  2E17               	goto	u141_20
  5372  0616                     u141_21:
  5373  0616  2E1E               	goto	i1l1891
  5374  0617                     u141_20:
  5375  0617                     i1l1887:
  5376  0617  0875               	movf	i1___lwdiv@divisor,w
  5377  0618  02F7               	subwf	i1___lwdiv@dividend,f
  5378  0619  0876               	movf	i1___lwdiv@divisor+1,w
  5379  061A  1C03               	skipc
  5380  061B  03F8               	decf	i1___lwdiv@dividend+1,f
  5381  061C  02F8               	subwf	i1___lwdiv@dividend+1,f
  5382  061D                     i1l1889:
  5383  061D  1479               	bsf	i1___lwdiv@quotient,0
  5384  061E                     i1l1891:
  5385  061E  3001               	movlw	1
  5386  061F                     u142_25:
  5387  061F  1003               	clrc
  5388  0620  0CF6               	rrf	i1___lwdiv@divisor+1,f
  5389  0621  0CF5               	rrf	i1___lwdiv@divisor,f
  5390  0622  3EFF               	addlw	-1
  5391  0623  1D03               	skipz
  5392  0624  2E1F               	goto	u142_25
  5393  0625                     i1l1893:
  5394  0625  3001               	movlw	1
  5395  0626  02FB               	subwf	i1___lwdiv@counter,f
  5396  0627  1D03               	btfss	3,2
  5397  0628  2E2A               	goto	u143_21
  5398  0629  2E2B               	goto	u143_20
  5399  062A                     u143_21:
  5400  062A  2E06               	goto	i1l1885
  5401  062B                     u143_20:
  5402  062B                     i1l1895:
  5403  062B  087A               	movf	i1___lwdiv@quotient+1,w
  5404  062C  00F6               	movwf	?i1___lwdiv+1
  5405  062D  0879               	movf	i1___lwdiv@quotient,w
  5406  062E  00F5               	movwf	?i1___lwdiv
  5407  062F                     i1l707:
  5408  062F  0008               	return
  5409  0630                     __end_ofi1___lwdiv:
  5410                           
  5411                           	psect	text34
  5412  0558                     __ptext34:	
  5413 ;; *************** function _adc_amostra *****************
  5414 ;; Defined at:
  5415 ;;		line 20 in file "adc.c"
  5416 ;; Parameters:    Size  Location     Type
  5417 ;;  canal           1    wreg     unsigned char 
  5418 ;; Auto vars:     Size  Location     Type
  5419 ;;  canal           1    9[COMMON] unsigned char 
  5420 ;; Return value:  Size  Location     Type
  5421 ;;                  2    0[COMMON] unsigned int 
  5422 ;; Registers used:
  5423 ;;		wreg, fsr0l, fsr0h, status,2, status,0
  5424 ;; Tracked objects:
  5425 ;;		On entry : 0/0
  5426 ;;		On exit  : 0/0
  5427 ;;		Unchanged: 0/0
  5428 ;; Data sizes:     COMMON   BANK0   BANK1   BANK3   BANK2
  5429 ;;      Params:         2       0       0       0       0
  5430 ;;      Locals:         1       0       0       0       0
  5431 ;;      Temps:          7       0       0       0       0
  5432 ;;      Totals:        10       0       0       0       0
  5433 ;;Total ram usage:       10 bytes
  5434 ;; Hardware stack levels used:    1
  5435 ;; This function calls:
  5436 ;;		Nothing
  5437 ;; This function is called by:
  5438 ;;		_update_tempreture
  5439 ;; This function uses a non-reentrant model
  5440 ;;
  5441                           
  5442                           
  5443                           ;psect for function _adc_amostra
  5444  0558                     _adc_amostra:
  5445                           
  5446                           ;incstack = 0
  5447                           ; Regs used in _adc_amostra: [wreg-fsr0h+status,2+status,0]
  5448                           ;adc_amostra@canal stored from wreg
  5449  0558  00F9               	movwf	adc_amostra@canal
  5450  0559                     i1l2043:
  5451                           
  5452                           ;adc.c: 20: unsigned int adc_amostra(unsigned char canal);adc.c: 21: {;adc.c: 36:      s
      +                          witch(canal)
  5453  0559  2D69               	goto	i1l2053
  5454  055A                     i1l2045:
  5455                           
  5456                           ;adc.c: 39:         ADCON0=0x01;
  5457  055A  3001               	movlw	1
  5458  055B  1283               	bcf	3,5	;RP0=0, select bank0
  5459  055C  1303               	bcf	3,6	;RP1=0, select bank0
  5460  055D  009F               	movwf	31	;volatile
  5461                           
  5462                           ;adc.c: 40:         break;
  5463  055E  2D7C               	goto	i1l196
  5464  055F                     i1l2047:
  5465                           
  5466                           ;adc.c: 42:         ADCON0=0x09;
  5467  055F  3009               	movlw	9
  5468  0560  1283               	bcf	3,5	;RP0=0, select bank0
  5469  0561  1303               	bcf	3,6	;RP1=0, select bank0
  5470  0562  009F               	movwf	31	;volatile
  5471                           
  5472                           ;adc.c: 43:         break;
  5473  0563  2D7C               	goto	i1l196
  5474  0564                     i1l2049:
  5475                           
  5476                           ;adc.c: 45:         ADCON0=0x11;
  5477  0564  3011               	movlw	17
  5478  0565  1283               	bcf	3,5	;RP0=0, select bank0
  5479  0566  1303               	bcf	3,6	;RP1=0, select bank0
  5480  0567  009F               	movwf	31	;volatile
  5481                           
  5482                           ;adc.c: 46:         break;
  5483  0568  2D7C               	goto	i1l196
  5484  0569                     i1l2053:
  5485  0569  0879               	movf	adc_amostra@canal,w
  5486  056A  00F2               	movwf	??_adc_amostra
  5487  056B  01F3               	clrf	??_adc_amostra+1
  5488                           
  5489                           ; Switch on 2 bytes has been partitioned into a top level switch of size 1, and 1 sub-sw
      +                          itches
  5490                           ; Switch size 1, requested type "simple"
  5491                           ; Number of cases is 1, Range of values is 0 to 0
  5492                           ; switch strategies available:
  5493                           ; Name         Instructions Cycles
  5494                           ; simple_byte            4     3 (average)
  5495                           ; direct_byte           11     8 (fixed)
  5496                           ; jumptable            260     6 (fixed)
  5497                           ;	Chosen strategy is simple_byte
  5498  056C  0873               	movf	??_adc_amostra+1,w
  5499  056D  3A00               	xorlw	0	; case 0
  5500  056E  1903               	skipnz
  5501  056F  2D71               	goto	i1l2617
  5502  0570  2D7C               	goto	i1l196
  5503  0571                     i1l2617:
  5504                           
  5505                           ; Switch size 1, requested type "simple"
  5506                           ; Number of cases is 3, Range of values is 0 to 2
  5507                           ; switch strategies available:
  5508                           ; Name         Instructions Cycles
  5509                           ; simple_byte           10     6 (average)
  5510                           ; direct_byte           17     8 (fixed)
  5511                           ; jumptable            260     6 (fixed)
  5512                           ;	Chosen strategy is simple_byte
  5513  0571  0872               	movf	??_adc_amostra,w
  5514  0572  3A00               	xorlw	0	; case 0
  5515  0573  1903               	skipnz
  5516  0574  2D5A               	goto	i1l2045
  5517  0575  3A01               	xorlw	1	; case 1
  5518  0576  1903               	skipnz
  5519  0577  2D5F               	goto	i1l2047
  5520  0578  3A03               	xorlw	3	; case 2
  5521  0579  1903               	skipnz
  5522  057A  2D64               	goto	i1l2049
  5523  057B  2D7C               	goto	i1l196
  5524  057C                     i1l196:
  5525                           
  5526                           ;adc.c: 51:     ADCON0bits.GO=1;
  5527  057C  1283               	bcf	3,5	;RP0=0, select bank0
  5528  057D  1303               	bcf	3,6	;RP1=0, select bank0
  5529  057E  151F               	bsf	31,2	;volatile
  5530  057F                     i1l199:	
  5531                           ;adc.c: 52:     while(ADCON0bits.GO == 1);
  5532                           
  5533  057F  191F               	btfsc	31,2	;volatile
  5534  0580  2D82               	goto	u171_21
  5535  0581  2D83               	goto	u171_20
  5536  0582                     u171_21:
  5537  0582  2D7F               	goto	i1l199
  5538  0583                     u171_20:
  5539  0583                     i1l2055:
  5540                           
  5541                           ;adc.c: 54:    return ((((unsigned int)ADRESH)<<2)|(ADRESL>>6));
  5542  0583  1683               	bsf	3,5	;RP0=1, select bank1
  5543  0584  1303               	bcf	3,6	;RP1=0, select bank1
  5544  0585  081E               	movf	30,w	;volatile
  5545  0586  00F2               	movwf	??_adc_amostra
  5546  0587  3006               	movlw	6
  5547  0588                     u172_25:
  5548  0588  1003               	clrc
  5549  0589  0CF2               	rrf	??_adc_amostra,f
  5550  058A  3EFF               	addlw	-1
  5551  058B  1D03               	skipz
  5552  058C  2D88               	goto	u172_25
  5553  058D  0872               	movf	??_adc_amostra,w
  5554  058E  00F3               	movwf	??_adc_amostra+1
  5555  058F  01F4               	clrf	??_adc_amostra+2
  5556  0590  1283               	bcf	3,5	;RP0=0, select bank0
  5557  0591  1303               	bcf	3,6	;RP1=0, select bank0
  5558  0592  081E               	movf	30,w	;volatile
  5559  0593  00F5               	movwf	??_adc_amostra+3
  5560  0594  01F6               	clrf	??_adc_amostra+4
  5561  0595  1003               	clrc
  5562  0596  0DF5               	rlf	??_adc_amostra+3,f
  5563  0597  0DF6               	rlf	??_adc_amostra+4,f
  5564  0598  1003               	clrc
  5565  0599  0DF5               	rlf	??_adc_amostra+3,f
  5566  059A  0DF6               	rlf	??_adc_amostra+4,f
  5567  059B  0873               	movf	??_adc_amostra+1,w
  5568  059C  0475               	iorwf	??_adc_amostra+3,w
  5569  059D  00F7               	movwf	??_adc_amostra+5
  5570  059E  0874               	movf	??_adc_amostra+2,w
  5571  059F  0476               	iorwf	??_adc_amostra+4,w
  5572  05A0  00F8               	movwf	??_adc_amostra+6
  5573  05A1  0877               	movf	??_adc_amostra+5,w
  5574  05A2  00F0               	movwf	?_adc_amostra
  5575  05A3  0878               	movf	??_adc_amostra+6,w
  5576  05A4  00F1               	movwf	?_adc_amostra+1
  5577  05A5                     i1l202:
  5578  05A5  0008               	return
  5579  05A6                     __end_of_adc_amostra:
  5580                           
  5581                           	psect	text35
  5582  0783                     __ptext35:	
  5583 ;; *************** function ___wmul *****************
  5584 ;; Defined at:
  5585 ;;		line 15 in file "C:\Program Files\Microchip\xc8\v2.20\pic\sources\c90\common\Umul16.c"
  5586 ;; Parameters:    Size  Location     Type
  5587 ;;  multiplier      2   10[COMMON] unsigned int 
  5588 ;;  multiplicand    2   12[COMMON] unsigned int 
  5589 ;; Auto vars:     Size  Location     Type
  5590 ;;  product         2    0[BANK0 ] unsigned int 
  5591 ;; Return value:  Size  Location     Type
  5592 ;;                  2   10[COMMON] unsigned int 
  5593 ;; Registers used:
  5594 ;;		wreg, status,2, status,0
  5595 ;; Tracked objects:
  5596 ;;		On entry : 0/0
  5597 ;;		On exit  : 0/0
  5598 ;;		Unchanged: 0/0
  5599 ;; Data sizes:     COMMON   BANK0   BANK1   BANK3   BANK2
  5600 ;;      Params:         4       0       0       0       0
  5601 ;;      Locals:         0       2       0       0       0
  5602 ;;      Temps:          0       0       0       0       0
  5603 ;;      Totals:         4       2       0       0       0
  5604 ;;Total ram usage:        6 bytes
  5605 ;; Hardware stack levels used:    1
  5606 ;; This function calls:
  5607 ;;		Nothing
  5608 ;; This function is called by:
  5609 ;;		_update_tempreture
  5610 ;; This function uses a non-reentrant model
  5611 ;;
  5612                           
  5613                           
  5614                           ;psect for function ___wmul
  5615  0783                     ___wmul:
  5616  0783                     i1l2085:	
  5617                           ;incstack = 0
  5618                           ; Regs used in ___wmul: [wreg+status,2+status,0]
  5619                           
  5620  0783  1283               	bcf	3,5	;RP0=0, select bank0
  5621  0784  1303               	bcf	3,6	;RP1=0, select bank0
  5622  0785  01A0               	clrf	___wmul@product
  5623  0786  01A1               	clrf	___wmul@product+1
  5624  0787                     i1l2087:
  5625  0787  1C7A               	btfss	___wmul@multiplier,0
  5626  0788  2F8A               	goto	u175_21
  5627  0789  2F8B               	goto	u175_20
  5628  078A                     u175_21:
  5629  078A  2F93               	goto	i1l435
  5630  078B                     u175_20:
  5631  078B                     i1l2089:
  5632  078B  087C               	movf	___wmul@multiplicand,w
  5633  078C  1283               	bcf	3,5	;RP0=0, select bank0
  5634  078D  1303               	bcf	3,6	;RP1=0, select bank0
  5635  078E  07A0               	addwf	___wmul@product,f
  5636  078F  1803               	skipnc
  5637  0790  0AA1               	incf	___wmul@product+1,f
  5638  0791  087D               	movf	___wmul@multiplicand+1,w
  5639  0792  07A1               	addwf	___wmul@product+1,f
  5640  0793                     i1l435:
  5641  0793  3001               	movlw	1
  5642  0794                     u176_25:
  5643  0794  1003               	clrc
  5644  0795  0DFC               	rlf	___wmul@multiplicand,f
  5645  0796  0DFD               	rlf	___wmul@multiplicand+1,f
  5646  0797  3EFF               	addlw	-1
  5647  0798  1D03               	skipz
  5648  0799  2F94               	goto	u176_25
  5649  079A                     i1l2091:
  5650  079A  3001               	movlw	1
  5651  079B                     u177_25:
  5652  079B  1003               	clrc
  5653  079C  0CFB               	rrf	___wmul@multiplier+1,f
  5654  079D  0CFA               	rrf	___wmul@multiplier,f
  5655  079E  3EFF               	addlw	-1
  5656  079F  1D03               	skipz
  5657  07A0  2F9B               	goto	u177_25
  5658  07A1                     i1l2093:
  5659  07A1  087A               	movf	___wmul@multiplier,w
  5660  07A2  047B               	iorwf	___wmul@multiplier+1,w
  5661  07A3  1D03               	btfss	3,2
  5662  07A4  2FA6               	goto	u178_21
  5663  07A5  2FA7               	goto	u178_20
  5664  07A6                     u178_21:
  5665  07A6  2F87               	goto	i1l2087
  5666  07A7                     u178_20:
  5667  07A7                     i1l2095:
  5668  07A7  1283               	bcf	3,5	;RP0=0, select bank0
  5669  07A8  1303               	bcf	3,6	;RP1=0, select bank0
  5670  07A9  0821               	movf	___wmul@product+1,w
  5671  07AA  00FB               	movwf	?___wmul+1
  5672  07AB  0820               	movf	___wmul@product,w
  5673  07AC  00FA               	movwf	?___wmul
  5674  07AD                     i1l437:
  5675  07AD  0008               	return
  5676  07AE                     __end_of___wmul:
  5677  007E                     btemp	set	126	;btemp
  5678  007E                     wtemp0	set	126
  5679                           
  5680                           	psect	config
  5681                           
  5682                           ;Config register CONFIG @ 0x2007
  5683                           ;	Oscillator Selection bits
  5684                           ;	FOSC = HS, HS oscillator
  5685                           ;	Watchdog Timer Enable bit
  5686                           ;	WDTE = OFF, WDT disabled
  5687                           ;	Power-up Timer Enable bit
  5688                           ;	PWRTE = OFF, PWRT disabled
  5689                           ;	Brown-out Reset Enable bit
  5690                           ;	BOREN = OFF, BOR disabled
  5691                           ;	Low-Voltage (Single-Supply) In-Circuit Serial Programming Enable bit
  5692                           ;	LVP = OFF, RB3 is digital I/O, HV on MCLR must be used for programming
  5693                           ;	Data EEPROM Memory Code Protection bit
  5694                           ;	CPD = OFF, Data EEPROM code protection off
  5695                           ;	Flash Program Memory Write Enable bits
  5696                           ;	WRT = OFF, Write protection off; all program memory may be written to by EECON control
  5697                           ;	In-Circuit Debugger Mode bit
  5698                           ;	DEBUG = 0x1, unprogrammed default
  5699                           ;	Flash Program Memory Code Protection bit
  5700                           ;	CP = OFF, Code protection off
  5701  2007                     	org	8199
  5702  2007  3F3A               	dw	16186

Data Sizes:
    Strings     0
    Constant    0
    Data        13
    BSS         10
    Persistent  2
    Stack       0

Auto Spaces:
    Space          Size  Autos    Used
    COMMON           14     14      14
    BANK0            80     38      63
    BANK1            80      7       7
    BANK3            96      0       0
    BANK2            96      0       0

Pointer List with Targets:

    convertADCReadings@str	PTR unsigned char  size(1) Largest target is 2
		 -> str(BANK0[2]), 


Critical Paths under _main in COMMON

    None.

Critical Paths under _ISR in COMMON

    _update_tempreture->___wmul
    _convertADCReadings->i1___lwdiv
    i1___lwdiv->i1___lwmod
    ___wmul->_adc_amostra

Critical Paths under _main in BANK0

    _setting_state->_flashDisplay
    _flashDisplay->_displayDeiredTempreture
    _displayDeiredTempreture->___awdiv
    _EEPROM_Write->_I2C_Master_Write
    _on_state->_displayTempreture
    _displayTempreture->___lwdiv
    _I2C_Master_Init->___lldiv
    _EEPROM_Read->_I2C_Master_Write

Critical Paths under _ISR in BANK0

    _ISR->_update_tempreture
    _update_tempreture->_convertADCReadings

Critical Paths under _main in BANK1

    _main->_I2C_Master_Init

Critical Paths under _ISR in BANK1

    None.

Critical Paths under _main in BANK3

    None.

Critical Paths under _ISR in BANK3

    None.

Critical Paths under _main in BANK2

    None.

Critical Paths under _ISR in BANK2

    None.

Call Graph Tables:

 ---------------------------------------------------------------------------------
 (Depth) Function   	        Calls       Base Space   Used Autos Params    Refs
 ---------------------------------------------------------------------------------
 (0) _main                                                 4     4      0    3707
                                             37 BANK0      1     1      0
                                              4 BANK1      3     3      0
                        _EEPROM_Read
                       _EEPROM_Write
                    _I2C_Master_Init
                       _IRQ_RB0_init
                        _TIMER1_init
                           _adc_init
                          _off_state
                           _on_state
                      _setting_state
 ---------------------------------------------------------------------------------
 (1) _setting_state                                        0     0      0    1443
                       _flashDisplay
 ---------------------------------------------------------------------------------
 (2) _flashDisplay                                         6     6      0    1443
                                             31 BANK0      6     6      0
                       _EEPROM_Write
            _displayDeiredTempreture
 ---------------------------------------------------------------------------------
 (3) _displayDeiredTempreture                              6     4      2    1133
                                             25 BANK0      6     4      2
                            ___awdiv
                            ___awmod
                    _lcd_writeNumber
 ---------------------------------------------------------------------------------
 (4) ___awmod                                              6     2      4     448
                                             17 BANK0      6     2      4
 ---------------------------------------------------------------------------------
 (4) ___awdiv                                              8     4      4     452
                                             17 BANK0      8     4      4
 ---------------------------------------------------------------------------------
 (3) _EEPROM_Write                                         2     1      1     218
                                             18 BANK0      2     1      1
           _I2C_Master_RepeatedStart
                   _I2C_Master_Start
                    _I2C_Master_Stop
                   _I2C_Master_Write
 ---------------------------------------------------------------------------------
 (4) _I2C_Master_RepeatedStart                             0     0      0       0
                    _I2C_Master_Wait
 ---------------------------------------------------------------------------------
 (1) _on_state                                             2     2      0    1358
                                             30 BANK0      2     2      0
                       _changeStatus
                           _coolerOn
                  _displayTempreture
                           _heaterOn
 ---------------------------------------------------------------------------------
 (2) _heaterOn                                             0     0      0       0
 ---------------------------------------------------------------------------------
 (2) _displayTempreture                                    6     4      2    1358
                                             24 BANK0      6     4      2
                            ___lwdiv
                            ___lwmod
                    _lcd_writeNumber
 ---------------------------------------------------------------------------------
 (4) _lcd_writeNumber                                      2     2      0      67
                                             17 BANK0      2     2      0
 ---------------------------------------------------------------------------------
 (3) ___lwmod                                              5     1      4     511
                                             17 BANK0      5     1      4
 ---------------------------------------------------------------------------------
 (3) ___lwdiv                                              7     3      4     614
                                             17 BANK0      7     3      4
 ---------------------------------------------------------------------------------
 (2) _coolerOn                                             0     0      0       0
 ---------------------------------------------------------------------------------
 (2) _changeStatus                                         2     2      0       0
                                             17 BANK0      2     2      0
 ---------------------------------------------------------------------------------
 (1) _off_state                                            0     0      0       0
 ---------------------------------------------------------------------------------
 (1) _adc_init                                             0     0      0       0
 ---------------------------------------------------------------------------------
 (1) _TIMER1_init                                          0     0      0       0
 ---------------------------------------------------------------------------------
 (1) _IRQ_RB0_init                                         0     0      0       0
 ---------------------------------------------------------------------------------
 (1) _I2C_Master_Init                                      8     4      4     435
                                             31 BANK0      4     0      4
                                              0 BANK1      4     4      0
                            ___lldiv
 ---------------------------------------------------------------------------------
 (2) ___lldiv                                             14     6      8     314
                                             17 BANK0     14     6      8
 ---------------------------------------------------------------------------------
 (1) _EEPROM_Read                                          3     1      2     219
                                             18 BANK0      3     1      2
                   _I2C_Master_Start
                    _I2C_Master_Stop
                   _I2C_Master_Write
                           _I2C_NACK
                      _I2C_Read_Byte
 ---------------------------------------------------------------------------------
 (2) _I2C_Read_Byte                                        0     0      0       0
                    _I2C_Master_Wait
 ---------------------------------------------------------------------------------
 (2) _I2C_NACK                                             0     0      0       0
                    _I2C_Master_Wait
 ---------------------------------------------------------------------------------
 (4) _I2C_Master_Write                                     1     1      0      22
                                             17 BANK0      1     1      0
                    _I2C_Master_Wait
 ---------------------------------------------------------------------------------
 (4) _I2C_Master_Stop                                      0     0      0       0
                    _I2C_Master_Wait
 ---------------------------------------------------------------------------------
 (4) _I2C_Master_Start                                     0     0      0       0
                    _I2C_Master_Wait
 ---------------------------------------------------------------------------------
 (5) _I2C_Master_Wait                                      0     0      0       0
 ---------------------------------------------------------------------------------
 Estimated maximum stack depth 5
 ---------------------------------------------------------------------------------
 (Depth) Function   	        Calls       Base Space   Used Autos Params    Refs
 ---------------------------------------------------------------------------------
 (6) _ISR                                                  6     6      0    1670
                                             11 BANK0      6     6      0
                  _update_tempreture
                          i1___lwdiv
 ---------------------------------------------------------------------------------
 (7) _update_tempreture                                    8     8      0    1352
                                              3 BANK0      8     8      0
                             ___wmul
                        _adc_amostra
                 _convertADCReadings
 ---------------------------------------------------------------------------------
 (8) _convertADCReadings                                   3     0      3     865
                                              0 BANK0      3     0      3
                          i1___lwdiv
                          i1___lwmod
 ---------------------------------------------------------------------------------
 (9) i1___lwmod                                            5     1      4     263
                                              0 COMMON     5     1      4
 ---------------------------------------------------------------------------------
 (7) i1___lwdiv                                            7     3      4     318
                                              5 COMMON     7     3      4
                          i1___lwmod (ARG)
 ---------------------------------------------------------------------------------
 (8) _adc_amostra                                         10     8      2      22
                                              0 COMMON    10     8      2
 ---------------------------------------------------------------------------------
 (8) ___wmul                                               6     2      4     396
                                             10 COMMON     4     0      4
                                              0 BANK0      2     2      0
                        _adc_amostra (ARG)
 ---------------------------------------------------------------------------------
 Estimated maximum stack depth 9
 ---------------------------------------------------------------------------------

 Call Graph Graphs:

 _main (ROOT)
   _EEPROM_Read
     _I2C_Master_Start
       _I2C_Master_Wait
     _I2C_Master_Stop
       _I2C_Master_Wait
     _I2C_Master_Write
       _I2C_Master_Wait
     _I2C_NACK
       _I2C_Master_Wait
     _I2C_Read_Byte
       _I2C_Master_Wait
   _EEPROM_Write
     _I2C_Master_RepeatedStart
       _I2C_Master_Wait
     _I2C_Master_Start
       _I2C_Master_Wait
     _I2C_Master_Stop
       _I2C_Master_Wait
     _I2C_Master_Write
       _I2C_Master_Wait
   _I2C_Master_Init
     ___lldiv
   _IRQ_RB0_init
   _TIMER1_init
   _adc_init
   _off_state
   _on_state
     _changeStatus
     _coolerOn
     _displayTempreture
       ___lwdiv
       ___lwmod
       _lcd_writeNumber
     _heaterOn
   _setting_state
     _flashDisplay
       _EEPROM_Write
         _I2C_Master_RepeatedStart
           _I2C_Master_Wait
         _I2C_Master_Start
           _I2C_Master_Wait
         _I2C_Master_Stop
           _I2C_Master_Wait
         _I2C_Master_Write
           _I2C_Master_Wait
       _displayDeiredTempreture
         ___awdiv
         ___awmod
         _lcd_writeNumber

 _ISR (ROOT)
   _update_tempreture
     ___wmul
       _adc_amostra (ARG)
     _adc_amostra
     _convertADCReadings
       i1___lwdiv
         i1___lwmod (ARG)
       i1___lwmod
   i1___lwdiv
     i1___lwmod (ARG)

 Address spaces:
Name               Size   Autos  Total    Cost      Usage
BANK3               60      0       0       9        0.0%
BITBANK3            60      0       0       8        0.0%
SFR3                 0      0       0       4        0.0%
BITSFR3              0      0       0       4        0.0%
BANK2               60      0       0      11        0.0%
BITBANK2            60      0       0      10        0.0%
SFR2                 0      0       0       5        0.0%
BITSFR2              0      0       0       5        0.0%
BANK1               50      7       7       7        8.8%
BITBANK1            50      0       0       6        0.0%
SFR1                 0      0       0       2        0.0%
BITSFR1              0      0       0       2        0.0%
BANK0               50     26      3F       5       78.8%
BITBANK0            50      0       0       4        0.0%
SFR0                 0      0       0       1        0.0%
BITSFR0              0      0       0       1        0.0%
COMMON               E      E       E       1      100.0%
BITCOMMON            E      0       0       0        0.0%
CODE                 0      0       0       0        0.0%
DATA                 0      0      54      12        0.0%
ABS                  0      0      54       3        0.0%
NULL                 0      0       0       0        0.0%
STACK                0      0       0       2        0.0%
EEDATA             100      0       0       0        0.0%


Microchip Technology PIC Macro Assembler V2.20 build 20200408173844 
Symbol Table                                                                                   Sun Jul 12 01:09:56 2020

                                      pc 0002                             ___awdiv@sign 0036  
                                     fsr 0004                      ___wmul@multiplicand 007C  
                   __size_of_adc_amostra 004E                                      l112 0F83  
                                    l131 071D                                      l221 04AE  
                                    l109 0FC2                                      l118 0670  
                                    l215 07F1                                      l305 0753  
                                    l129 0718                                      l218 0503  
                                    l331 0FEC                                      l260 0FDB  
                                    l156 0F93                                      l164 004E  
                                    l165 0153                                      l254 0459  
                                    l263 0F9C                                      l191 0FAE  
                                    l272 07D1                                      l280 07BB  
                                    l168 00D2                                      l257 0FCF  
                                    l281 07C4                                      l345 0F88  
                                    l601 03AB                                      l274 07D5  
                                    l338 0F8D                                      l266 0FB7  
                                    l290 0762                                      l275 07DB  
                                    l269 0FA5                                      l293 0782  
                                    l278 07B6                                      l287 0FCE  
                                    l471 0350                                      l707 05EB  
                                    l717 06AC                                      l588 02E8  
                                    _GIE 005F                                      _RC2 003A  
                                    _RB5 0035                                      _RC5 003D  
                         ??_flashDisplay 003F                     __end_of_changeStatus 071E  
                                    _PEN 048A                                      _ISR 020C  
                                    _SEN 0488                                      fsr0 0004  
                                    _str 005B                                      indf 0000  
                           ___awmod@sign 0036              __size_of_convertADCReadings 0054  
                                   ?_ISR 0070                                     l2001 04AF  
                                   l2011 04EC                                     l2003 04D7  
                                   l2101 02FB                                     l2021 06FB  
                                   l2013 04F2                                     l2005 04D8  
                                   l2111 0318                                     l2103 02FE  
                                   l2031 0713                                     l2023 0700  
                                   l2015 04F5                                     l2007 04DE  
                                   l2113 032A                                     l2105 0307  
                                   l2121 0348                                     l2033 071A  
                                   l2025 0703                                     l2041 0F84  
                                   l2017 0500                                     l2009 04E9  
                                   l2115 0338                                     l2107 030B  
                                   l2035 071B                                     l2027 0704  
                                   l2019 06E7                                     l2117 0339  
                                   l2109 030F                                     l2125 0FDC  
                                   l2141 0FA6                                     l2037 071C  
                                   l2029 070E                                     l2071 07B3  
                                   l2151 0750                                     l2143 071E  
                                   l2119 0342                                     l2127 0F8E  
                                   l2039 0F89                                     l2081 0FC6  
                                   l2073 07BC                                     l2145 073C  
                                   l2083 0FCB                                     l2075 07C1  
                                   l2147 0746                                     l2163 0640  
                                   l2155 0630                                     l1701 0F99  
                                   l2069 07AE                                     l2149 074B  
                                   l2173 065B                                     l2165 0649  
                                   l2157 0637                                     l2181 0FB8  
                                   l1711 07C8                                     l2079 0FC3  
                                   l2167 064F                                     l2159 063B  
                                   l1703 0FAF                                     l2183 0FBD  
                                   l2503 01F2                                     l1713 07CD  
                                   l2441 0457                                     l2433 0404  
                                   l2169 0655                                     l1705 0FB4  
                                   l1801 0757                                     l1721 0283  
                                   l1707 0F9D                                     l1715 07D6  
                                   l2099 02E9                                     l2443 0458  
                                   l2435 0408                                     l2179 0F7F  
                                   l1803 075D                                     l1731 0297  
                                   l1723 0287                                     l1811 0483  
                                   l2611 01FE                                     l2451 0171  
                                   l1709 0FA2                                     l2437 040B  
                                   l2613 0665                                     l1805 076D  
                                   l1741 02AD                                     l1733 029B  
                                   l1725 028C                                     l1821 04A0  
                                   l1813 0489                                     l2461 017C  
                                   l2453 0172                                     l2445 0154  
                                   l2439 0456                                     l1831 05B3  
                                   l1751 02CD                                     l1743 02B1  
                                   l1735 029D                                     l1727 028E  
                                   l1719 0280                                     l1823 04AB  
                                   l1815 0494                                     l1807 045A  
                                   l2471 0187                                     l2463 017D  
                                   l2455 0175                                     l2447 015E  
                                   l1841 05D9                                     l1833 05BA  
                                   l1825 05A6                                     l1753 02D4  
                                   l1745 02B5                                     l1737 02A3  
                                   l1729 0292                                     l1817 0497  
                                   l1809 0482                                     l1921 0031  
                                   l2481 0194                                     l2473 018C  
                                   l2465 0181                                     l2457 0178  
                                   l2449 016D                                     l1843 05DA  
                                   l1835 05BE                                     l1827 05AA  
                                   l1851 0671                                     l1691 07DF  
                                   l1747 02C6                                     l1739 02A6  
                                   l1755 02DA                                     l1771 035F  
                                   l1763 0351                                     l1819 049D  
                                   l1923 0037                                     l2491 01D2  
                                   l2483 0198                                     l2475 0190  
                                   l2467 0184                                     l2459 0179  
                                   l1845 05E1                                     l1837 05C2  
                                   l1829 05B0                                     l1861 068B  
                                   l1853 0679                                     l1693 07E5  
                                   l1757 02DF                                     l1749 02CC  
                                   l1781 0378                                     l1773 0363  
                                   l1765 0354                                     l1925 003B  
                                   l2493 01DA                                     l2485 01A6  
                                   l2477 0191                                     l2469 0185  
                                   l1687 0FCF                                     l1839 05D3  
                                   l1847 05E7                                     l1863 0695  
                                   l1855 067C                                     l1695 07ED  
                                   l1759 02E4                                     l1791 0397  
                                   l1783 037C                                     l1775 0368  
                                   l1767 0358                                     l1951 0079  
                                   l1943 0056                                     l1935 0050  
                                   l1927 0041                                     l2495 01E1  
                                   l2487 01B4                                     l2479 0192  
                                   l1689 0FD5                                     l1865 069B  
                                   l1857 0683                                     l1697 07F0  
                                   l1785 0380                                     l1777 036E  
                                   l1793 039D                                     l1769 035D  
                                   l1961 00A7                                     l1953 008C  
                                   l1945 0061                                     l1929 0043  
                                   l1937 0054                                     l2497 01E7  
                                   l2489 01BB                                     l1699 0F94  
                                   l1867 06A2                                     l1859 0687  
                                   l1795 03A2                                     l1787 038A  
                                   l1779 0371                                     l1963 00BA  
                                   l1947 0067                                     l1955 008F  
                                   l2499 01ED                                     l1869 06A8  
                                   l1797 03A7                                     l1789 0390  
                                   l1981 00ED                                     l1957 0095  
                                   l1965 00BD                                     l1949 006C  
                                   l1991 011B                                     l1983 00FA  
                                   l1975 00D8                                     l1967 00C5  
                                   l1959 009A                                     l1993 0128  
                                   l1985 010D                                     l1977 00E2  
                                   l1969 00D6                                     l1995 013B  
                                   l1979 00E8                                     l1987 0110  
                                   l1989 0116                                     l1997 013E  
                                   l1999 0146                                     u1000 0FD5  
                                   u1001 0FD4                                     u1010 0FDB  
                                   u1011 0FDA                                     u1020 07E5  
                                   u1100 02C6                                     u1021 07E4  
                                   u1101 02C5                                     u1030 07D5  
                                   u1031 07D4                                     u2000 0429  
                                   u1120 02DA                                     u1040 0287  
                                   u1121 02D9                                     u1105 02C2  
                                   u1041 0286                                     u1130 02DF  
                                   u1050 0292                                     u1210 039D  
                                   u2010 01BB                                     u1131 02DE  
                                   u1115 02CE                                     u1051 0291  
                                   u1211 039C                                     u2011 01BA  
                                   u1300 05E7                                     u1060 02A3  
                                   u1220 03A2                                     u1140 0358  
                                   u2005 0424                                     u1301 05E6  
                                   u1061 02A2                                     u1221 03A1  
                                   u1205 0391                                     u1141 0357  
                                   u1310 0679                                     u1230 076D  
                                   u1150 0363                                     u1311 0678  
                                   u1231 076C                                     u1151 0362  
                                   u1240 05B0                                     u1080 02B5  
                                   u1160 036E                                     u1241 05AF  
                                   u1081 02B4                                     u1161 036D  
                                   u1330 068B                                     u1331 068A  
                                   u2107 04E4                                     u1075 02A7  
                                   u2027 01AE                                     u1260 05C2  
                                   u1340 0695                                     u1180 0380  
                                   u1500 0037                                     u1261 05C1  
                                   u1341 0694                                     u1325 067D  
                                   u2117 04FB                                     u1181 037F  
                                   u2037 0087                                     u1501 0036  
                                   u1190 038A                                     u1510 003B  
                                   u1255 05B4                                     u1095 02B6  
                                   u1191 0389                                     u1175 0372  
                                   u2047 00B5                                     u1511 003A  
                                   u1280 05D3                                     u1360 06A8  
                                   u1600 00E8                                     u1520 0041  
                                   u1281 05D2                                     u1361 06A7  
                                   u1345 0691                                     u1601 00E7  
                                   u2057 00DE                                     u1521 0040  
                                   u1610 00ED                                     u1530 0067  
                                   u1275 05C3                                     u1355 069C  
                                   u1195 0386                                     u2067 0108  
                                   u1611 00EC                                     u1531 0066  
                                   u1700 0713                                     u1620 00FA  
                                   u1540 006C                                     u1701 0712  
                                   u1285 05CF                                     u2077 0136  
                                   u1621 00F9                                     u1541 006B  
                                   u1630 0116                                     u1550 0079  
                                   u1295 05DB                                     u2087 048F  
                                   u1631 0115                                     u1551 0078  
                                   u1640 011B                                     u1560 0095  
                                   u2097 04A6                                     u1641 011A  
                                   u1625 00F6                                     u1561 0094  
                                   u1810 030F                                     u1650 0128  
                                   u1570 009A                                     u1811 030E  
                                   u1651 0127                                     u1571 0099  
                                   u1555 0075                                     u1740 07BB  
                                   u1660 0153                                     u1580 00A7  
                                   u1741 07BA                                     u1805 0300  
                                   u1661 0152                                     u1581 00A6  
                                   u1830 032A                                     u1670 06FB  
                                   u1590 00D2                                     u1831 0329  
                                   u1671 06FA                                     u1655 0124  
                                   u1591 00D1                                     u1680 0700  
                                   u1825 0311                                     u1681 06FF  
                                   u1665 014F                                     u1585 00A3  
                                   u1850 0348                                     u1690 070E  
                                   u1851 0347                                     u1835 0326  
                                   u1691 070D                                     u1675 06F7  
                                   u1595 00CE                                     u1845 033A  
                                   u1790 02FB                                     u1870 0637  
                                   u1791 02FA                                     u1695 070A  
                                   u1871 0636                                     u1880 063B  
                                   u1881 063A                                     _PEIE 005E  
                                   _INTE 005C                                     _INTF 0059  
                                   _RCEN 048B                                     _TMR1 000E  
                                   _RSEN 0489                         __end_of_I2C_NACK 0FCF  
       __end_of_I2C_Master_RepeatedStart 0FB8                                     _main 0154  
                                   btemp 007E                                     start 0012  
                        EEPROM_Write@add 0033                                    ??_ISR 002B  
                   __end_of_EEPROM_Write 0783                 ?_displayDeiredTempreture 0039  
                       ?_I2C_Master_Init 003F                         ?_I2C_Master_Wait 0070  
                       ?_I2C_Master_Stop 0070                                    ?_main 0070  
                                  _ACKEN 048C                                    _ACKDT 048D  
                        __end_of___awdiv 02E9                          __end_of___awmod 03AC  
                        __end_of___lldiv 0351              displayTempreture@TEMPRETURE 0038  
                        ___awdiv@divisor 0031                          __end_of___lwdiv 05EC  
                                  i1l202 05A5                                    i1l141 0212  
                                  i1l134 0403                                    i1l151 0271  
                                  i1l143 0217                                    i1l153 0275  
                                  i1l139 022D                          __end_of___lwmod 06AD  
                                  i1l435 0793                                    i1l196 057C  
                                  i1l437 07AD                                    i1l349 0557  
                                  i1l199 057F                  flashDisplay@prev_status 0052  
                                  i1l707 062F                                    i1l717 06E6  
                        ___awdiv@counter 0035                         _TargetTempreture 0050  
                                  _PORTB 0006                                    _PORTD 0008  
                                  _TRISA 0085                                    _TRISB 0086  
                                  _TRISD 0088                                    _SSPIF 0063  
                __end_of_lcd_writeNumber 07F2                          ??_setting_state 0045  
                     i1___lwmod@dividend 0072                   __size_of_I2C_Read_Byte 0017  
                                  _state 005E                                    pclath 000A  
                                  status 0003                                    wtemp0 007E  
                     __size_ofi1___lwdiv 0044                         EEPROM_Write@data 0032  
                     __size_ofi1___lwmod 003A                     __size_of_EEPROM_Read 0036  
                        __initialization 0015                             __end_of_main 020C  
                                 ??_main 00A4                             ?_TIMER1_init 0070  
                      ?_I2C_Master_Start 0070                        ?_I2C_Master_Write 0070  
                     ??_I2C_Master_Start 0031                                   _ADCON0 001F  
                                 _ADCON1 009F                       ??_I2C_Master_Write 0031  
                                 _ADRESH 001E                                   _ADRESL 009E  
                       ___awdiv@dividend 0033                         __end_of_adc_init 0FAF  
                                 i1l2043 0559                                   i1l2045 055A  
                                 i1l2053 0569                                   i1l2301 0272  
                                 i1l2055 0583                                   i1l2047 055F  
                                 i1l2063 0504                                   i1l2049 0564  
                                 i1l2065 054C                                   i1l2091 079A  
                                 i1l2067 0553                                   i1l2093 07A1  
                                 i1l2085 0783                                   i1l2095 07A7  
                                 i1l2087 0787                                   i1l2191 03DF  
                                 i1l2271 0218                                   i1l2089 078B  
                                 i1l2193 03E3                                   i1l2185 03AC  
                                 i1l2281 0236                                   i1l2187 03CC  
                                 i1l2291 024E                                   i1l2283 023C  
                                 i1l2275 021A                                   i1l2267 020C  
                                 i1l1901 06B3                                   i1l2189 03D9  
                                 i1l2293 0261                                   i1l2285 0240  
                                 i1l2277 0231                                   i1l2269 0210  
                                 i1l1911 06CF                                   i1l1903 06B6  
                                 i1l2295 0266                                   i1l2287 0241  
                                 i1l2279 0232                                   i1l2615 0222  
                                 i1l2617 0571                                   i1l1913 06D5  
                                 i1l1905 06BD                                   i1l2297 0269  
                                 i1l2289 0246                                   i1l1915 06DC  
                                 i1l1907 06C1                                   i1l2299 026F  
                                 i1l1909 06C5                                   i1l1917 06E2  
                                 i1l1881 05FE                                   i1l1873 05EC  
                                 i1l1891 061E                                   i1l1883 0602  
                                 i1l1875 05EE                                   i1l1893 0625  
                                 i1l1885 0606                                   i1l1877 05F4  
                                 i1l1887 0617                                   i1l1879 05F7  
                                 i1l1895 062B                                   i1l1889 061D  
                                 i1l1899 06AD                                   u140_25 0607  
                                 u141_20 0617                                   u141_21 0616  
                                 u141_25 0613                                   _INTEDG 040E  
                                 u142_25 061F                                   u143_20 062B  
                                 u143_21 062A                                   u144_20 06B3  
                                 u144_21 06B2                                   u137_20 05F4  
                                 u137_21 05F3                                   u145_25 06B7  
                                 u146_20 06C5                                   u146_21 06C4  
                                 u138_25 05F8                                   u171_20 0583  
                                 u139_20 0606                                   u147_20 06CF  
                                 u171_21 0582                                   u139_21 0605  
                                 u147_21 06CE                                   u147_25 06CB  
                                 u172_25 0588                                   u148_25 06D6  
                                 u149_20 06E2                                   u173_20 0553  
                                 u149_21 06E1                                   u173_21 0552  
                                 u190_20 0210                                   u190_21 020F  
                                 u175_20 078B                                   u191_20 0231  
                                 u175_21 078A                                   u191_21 0230  
                                 u192_20 023C                                   u192_21 023B  
                                 u176_25 0794                                   u193_20 024E  
                                 u193_21 024D                                   u177_25 079B  
                                 u178_20 07A7                                   u194_20 0266  
                                 u178_21 07A6                                   u194_21 0265  
                                 u195_20 026F                                   u195_21 026E  
                                 _TMR1IE 0460                                   _TMR1IF 0060  
                                 _TMR1CS 0081                                   _TMR1ON 0080  
                                 _SSPADD 0093                                   _TRISC2 043A  
                                 _TRISC3 043B                                   _TRISC4 043C  
                                 _TRISC5 043D                                   _SSPCON 0014  
                                 _SSPBUF 0013                     __end_of_flashDisplay 0154  
                       __end_of_heaterOn 0F8E                 _I2C_Master_RepeatedStart 0FAF  
                       __end_of_coolerOn 0F89                            _I2C_Read_Byte 07AE  
                                 ___wmul 0783                                ??___awdiv 0035  
                              ??___awmod 0035                                   _canuse 005D  
                              ??___lldiv 0039                    __size_of_changeStatus 0037  
                              ??___lwdiv 0035                                ??___lwmod 0035  
                       ___awdiv@quotient 0037                          ___awmod@divisor 0031  
                        ___awmod@counter 0035                                ?_I2C_NACK 0070  
                       __end_of_on_state 0671                        __end_ofi1___lwdiv 0630  
                      __end_ofi1___lwmod 06E7                                   saved_w 007E  
                       ?_lcd_writeNumber 0070                            ?_IRQ_RB0_init 0070  
                      _update_tempreture 03AC                       ?_update_tempreture 0070  
                __end_of__initialization 002D                             _changeStatus 06E7  
                  __size_of_EEPROM_Write 002F                      ??_update_tempreture 0023  
                         ?_I2C_Read_Byte 0070                           __pcstackCOMMON 0070  
                           __pidataBANK0 07F2                               ??_I2C_NACK 0031  
                         ??_IRQ_RB0_init 0031                __end_of_update_tempreture 0404  
                           _EEPROM_Write 0754                               __pbssBANK0 0053  
             displayDeiredTempreture@low 003D                       __size_of_off_state 0005  
                             __pmaintext 0154                                  ?___wmul 007A  
                          ??_adc_amostra 0072                               __pintentry 0004  
                                _ACKSTAT 048E                                ?_adc_init 0070  
                                _T1CKPS0 0084                                  _T1CKPS1 0085  
             __end_of_convertADCReadings 0558                     __size_of_TIMER1_init 0011  
                              ?_heaterOn 0070         __size_of_displayDeiredTempreture 0055  
                                _SSPCON2 0091                                  _SSPSTAT 0094  
                              ?_coolerOn 0070                    __size_of_flashDisplay 0123  
                        ??_I2C_Read_Byte 0031                                ?_on_state 0070  
                                ___awdiv 0280                                  ___awmod 0351  
                                ___lldiv 02E9                          __size_of___wmul 002B  
                                ___lwdiv 05A6                                  ___lwmod 0671  
                             ??_adc_init 0031                                  __ptext1 0FB8  
                                __ptext2 0031                                  __ptext3 045A  
                                __ptext4 0351                                  __ptext5 0280  
                                __ptext6 0754                                  __ptext7 0FAF  
                                __ptext8 0630                                  __ptext9 0F89  
                   displayTempreture@low 003C                        _Number_Tempreture 0059  
                           __size_of_ISR 0074                        i1___lwdiv@divisor 0075  
                    __end_of_adc_amostra 05A6                        i1___lwdiv@counter 007B  
                      __end_of_off_state 0F84                             _flashDisplay 0031  
                       ___awmod@dividend 0033               __size_of_update_tempreture 0058  
               __size_of_I2C_Master_Init 0056                 __size_of_I2C_Master_Wait 000D  
               __size_of_I2C_Master_Stop 0009                               ??_heaterOn 0031  
                  __end_of_setting_state 0FC3                               ??_coolerOn 0031  
                   end_of_initialization 002D               ??_I2C_Master_RepeatedStart 0031  
                          ??_EEPROM_Read 0034                __size_of_I2C_Master_Start 0009  
              __size_of_I2C_Master_Write 0017                          ___lldiv@divisor 0031  
                             ??_on_state 003E                          ___lldiv@counter 003E  
                   __end_of_IRQ_RB0_init 0F94                               _temp_state 005A  
                              _PORTAbits 0005                                _PORTBbits 0006  
                      __size_of_I2C_NACK 000C                                i1___lwdiv 05EC  
                              i1___lwmod 06AD                      __end_of_EEPROM_Read 0754  
                            _adc_amostra 0558                           __end_of___wmul 07AE  
                      i1___lwmod@divisor 0070                        i1___lwmod@counter 0074  
                    start_initialization 0015                              __end_of_ISR 0280  
                _displayDeiredTempreture 045A                    convertADCReadings@val 0020  
                  convertADCReadings@str 0022                               ?i1___lwdiv 0075  
                             ?i1___lwmod 0070                        ??_I2C_Master_Init 00A0  
                      ??_I2C_Master_Wait 0031                 __size_of_lcd_writeNumber 0016  
                      ??_I2C_Master_Stop 0031                       update_tempreture@x 002A  
                     update_tempreture@y 0029                                 ??___wmul 007E  
                             init_fetch0 0FED                              __pdataBANK0 0046  
                      _displayTempreture 04AF                    lcd_writeNumber@number 0032  
                     ?_displayTempreture 0038                        __size_of_adc_init 0009  
                              ___latbits 0002                            __pcstackBANK0 0020  
                          __pcstackBANK1 00A0                            _segments_code 0046  
                    ??_displayTempreture 003A              displayDeiredTempreture@high 003E  
                      __size_of_heaterOn 0005                      lcd_writeNumber@code 0031  
                     _convertADCReadings 0504                    __size_of_IRQ_RB0_init 0006  
                      __size_of_coolerOn 0005                              _EEPROM_Read 071E  
                              __pnvBANK0 005D                         _I2C_Master_Start 0F94  
                       _I2C_Master_Write 07C5                         ___lwdiv@dividend 0033  
                    ?_convertADCReadings 0020                        __size_of_on_state 0041  
                               ?___awdiv 0031                                 ?___awmod 0031  
              __end_of_displayTempreture 0504                                 ?___lldiv 0031  
                               ?___lwdiv 0031                                 ?___lwmod 0031  
                   I2C_Master_Write@data 0031                  _accumilated_tmeperature 0053  
              ??_displayDeiredTempreture 003B                                 _I2C_NACK 0FC3  
                          ??_TIMER1_init 0031                     ??_convertADCReadings 007C  
                           _IRQ_RB0_init 0F8E                         ___lwdiv@quotient 0035  
                            ??i1___lwdiv 0079                              ??i1___lwmod 0074  
                              _off_state 0F7F                        flashDisplay@i_218 0043  
                      flashDisplay@count 0057                        interrupt_function 0004  
                         ___wmul@product 0020                    __end_of_I2C_Read_Byte 07C5  
                      ??_lcd_writeNumber 0031                               _ADCON0bits 001F  
                      ___wmul@multiplier 007A                      I2C_Master_Init@baud 003F  
                             ?_off_state 0070                      __end_of_TIMER1_init 0FED  
                  update_tempreture@temp 0027                            _timer1counter 0058  
        __end_of_displayDeiredTempreture 04AF                            ?_changeStatus 0070  
             __size_of_displayTempreture 0055                             ?_adc_amostra 0070  
      __size_of_I2C_Master_RepeatedStart 0009                         __size_of___awdiv 0069  
                       __size_of___awmod 005B                ?_I2C_Master_RepeatedStart 0070  
                       __size_of___lldiv 0068                   __size_of_setting_state 000B  
                       __size_of___lwdiv 0046                         __size_of___lwmod 003C  
                               _adc_init 0FA6                          _I2C_Master_Init 0404  
                        _I2C_Master_Wait 0FCF                          _I2C_Master_Stop 0F9D  
displayDeiredTempreture@TargetTempreture 0039                          ___lwdiv@divisor 0031  
                        ___lwdiv@counter 0037                                 __ptext10 04AF  
                               __ptext11 07DC                                 __ptext20 0404  
                               __ptext12 0671                                 __ptext21 02E9  
                               __ptext13 05A6                                 __ptext30 03AC  
                               __ptext22 071E                                 __ptext14 0F84  
                               __ptext31 0504                                 __ptext23 07AE  
                               __ptext15 06E7                                 __ptext32 06AD  
                               __ptext24 0FC3                                 __ptext16 0F7F  
                               __ptext33 05EC                                 __ptext25 07C5  
                               __ptext17 0FA6                                 __ptext34 0558  
                               __ptext26 0F9D                                 __ptext18 0FDC  
                               __ptext35 0783                                 __ptext27 0F94  
                               __ptext19 0F8E                                 __ptext28 0FCF  
                               __ptext29 020C                                 _heaterOn 0F89  
                          ?_EEPROM_Write 0032                                 _coolerOn 0F84  
                  displayTempreture@high 003D                       i1___lwdiv@dividend 0077  
                         ??_changeStatus 0031                            __size_of_main 00B8  
                               _on_state 0630                                 main@flag 0045  
                     i1___lwdiv@quotient 0079                 __end_of_I2C_Master_Start 0F9D  
                            _TIMER1_init 0FDC                 __end_of_I2C_Master_Write 07DC  
                               init_ram0 0FF1                           ??_EEPROM_Write 0033  
                            ??_off_state 0031                                 intlevel1 0000  
                          _setting_state 0FB8                         ___lwmod@dividend 0033  
                           ?_EEPROM_Read 0032                         ___lldiv@dividend 0035  
                             _TEMPRETURE 0055                  __end_of_I2C_Master_Init 045A  
                __end_of_I2C_Master_Wait 0FDC                  __end_of_I2C_Master_Stop 0FA6  
                          ?_flashDisplay 0070                         ___lldiv@quotient 003A  
                        ___lwmod@divisor 0031                          ___lwmod@counter 0035  
                       adc_amostra@canal 0079                           ?_setting_state 0070  
                        _lcd_writeNumber 07DC                            flashDisplay@i 0041  
                        EEPROM_Read@Data 0034                           EEPROM_Read@add 0032  
