

Microchip MPLAB XC8 Assembler V2.20 build 20200408173844 
                                                                                               Sat Jul 11 22:13:36 2020

Microchip MPLAB XC8 C Compiler v2.20 (Free license) build 20200408173844 Og1 
     1                           	processor	16F877A
     2                           	pagewidth 120
     3                           	opt	flic
     4                           	psect	idataBANK0,global,class=CODE,delta=2,noexec
     5                           	psect	nvBANK0,global,class=BANK0,space=1,delta=1,noexec
     6                           	psect	cinit,global,class=CODE,merge=1,delta=2
     7                           	psect	bssBANK0,global,class=BANK0,space=1,delta=1,noexec
     8                           	psect	dataBANK0,global,class=BANK0,space=1,delta=1,noexec
     9                           	psect	inittext,global,class=CODE,delta=2
    10                           	psect	cstackBANK1,global,class=BANK1,space=1,delta=1,noexec
    11                           	psect	cstackCOMMON,global,class=COMMON,space=1,delta=1,noexec
    12                           	psect	cstackBANK0,global,class=BANK0,space=1,delta=1,noexec
    13                           	psect	maintext,global,class=CODE,split=1,delta=2
    14                           	psect	text1,local,class=CODE,merge=1,delta=2
    15                           	psect	text2,local,class=CODE,merge=1,delta=2
    16                           	psect	text3,local,class=CODE,merge=1,delta=2
    17                           	psect	text4,local,class=CODE,merge=1,delta=2,group=1
    18                           	psect	text5,local,class=CODE,merge=1,delta=2,group=1
    19                           	psect	text6,local,class=CODE,merge=1,delta=2
    20                           	psect	text7,local,class=CODE,merge=1,delta=2
    21                           	psect	text8,local,class=CODE,merge=1,delta=2
    22                           	psect	text9,local,class=CODE,merge=1,delta=2
    23                           	psect	text10,local,class=CODE,merge=1,delta=2,group=1
    24                           	psect	text11,local,class=CODE,merge=1,delta=2,group=1
    25                           	psect	text12,local,class=CODE,merge=1,delta=2
    26                           	psect	text13,local,class=CODE,merge=1,delta=2
    27                           	psect	text14,local,class=CODE,merge=1,delta=2
    28                           	psect	text15,local,class=CODE,merge=1,delta=2
    29                           	psect	text16,local,class=CODE,merge=1,delta=2
    30                           	psect	text17,local,class=CODE,merge=1,delta=2
    31                           	psect	text18,local,class=CODE,merge=1,delta=2
    32                           	psect	text19,local,class=CODE,merge=1,delta=2,group=1
    33                           	psect	text20,local,class=CODE,merge=1,delta=2
    34                           	psect	intentry,global,class=CODE,delta=2
    35                           	psect	text21,local,class=CODE,merge=1,delta=2
    36                           	psect	text22,local,class=CODE,merge=1,delta=2
    37                           	psect	text23,local,class=CODE,merge=1,delta=2
    38                           	psect	text24,local,class=CODE,merge=1,delta=2
    39                           	psect	text25,local,class=CODE,merge=1,delta=2
    40                           	psect	text26,local,class=CODE,merge=1,delta=2,group=1
    41                           	psect	config,global,abs,ovrld,class=CONFIG,space=4,delta=2,noexec
    42                           	dabs	1,0x7E,2
    43  0000                     
    44                           ; Version 2.20
    45                           ; Generated 12/02/2020 GMT
    46                           ; 
    47                           ; Copyright © 2020, Microchip Technology Inc. and its subsidiaries ("Microchip")
    48                           ; All rights reserved.
    49                           ; 
    50                           ; This software is developed by Microchip Technology Inc. and its subsidiaries ("Microch
      +                          ip").
    51                           ; 
    52                           ; Redistribution and use in source and binary forms, with or without modification, are
    53                           ; permitted provided that the following conditions are met:
    54                           ; 
    55                           ;     1. Redistributions of source code must retain the above copyright notice, this lis
      +                          t of
    56                           ;        conditions and the following disclaimer.
    57                           ; 
    58                           ;     2. Redistributions in binary form must reproduce the above copyright notice, this 
      +                          list
    59                           ;        of conditions and the following disclaimer in the documentation and/or other
    60                           ;        materials provided with the distribution.
    61                           ; 
    62                           ;     3. Microchip's name may not be used to endorse or promote products derived from th
      +                          is
    63                           ;        software without specific prior written permission.
    64                           ; 
    65                           ; THIS SOFTWARE IS PROVIDED BY MICROCHIP "AS IS" AND ANY EXPRESS OR IMPLIED WARRANTIES,
    66                           ; INCLUDING, BUT NOT LIMITED TO, THE IMPLIED WARRANTIES OF MERCHANTABILITY AND FITNESS F
      +                          OR
    67                           ; PURPOSE ARE DISCLAIMED.  IN NO EVENT SHALL MICROCHIP BE LIABLE FOR ANY DIRECT, INDIREC
      +                          T,
    68                           ; INCIDENTAL, SPECIAL, EXEMPLARY, OR CONSEQUENTIAL DAMAGES (INCLUDING BUT NOT LIMITED TO
    69                           ; PROCUREMENT OF SUBSTITUTE GOODS OR SERVICES; LOSS OF USE, DATA OR PROFITS; OR BUSINESS
    70                           ; INTERRUPTION) HOWSOEVER CAUSED AND ON ANY THEORY OF LIABILITY, WHETHER IN CONTRACT, ST
      +                          RICT
    71                           ; LIABILITY, OR TORT (INCLUDING NEGLIGENCE OR OTHERWISE) ARISING IN ANY WAY OUT OF THE U
      +                          SE OF
    72                           ; THIS SOFTWARE, EVEN IF ADVISED OF THE POSSIBILITY OF SUCH DAMAGE.
    73                           ; 
    74                           ; 
    75                           ; Code-generator required, PIC16F877A Definitions
    76                           ; 
    77                           ; SFR Addresses
    78  0000                     	;# 
    79  0001                     	;# 
    80  0002                     	;# 
    81  0003                     	;# 
    82  0004                     	;# 
    83  0005                     	;# 
    84  0006                     	;# 
    85  0007                     	;# 
    86  0008                     	;# 
    87  0009                     	;# 
    88  000A                     	;# 
    89  000B                     	;# 
    90  000C                     	;# 
    91  000D                     	;# 
    92  000E                     	;# 
    93  000E                     	;# 
    94  000F                     	;# 
    95  0010                     	;# 
    96  0011                     	;# 
    97  0012                     	;# 
    98  0013                     	;# 
    99  0014                     	;# 
   100  0015                     	;# 
   101  0015                     	;# 
   102  0016                     	;# 
   103  0017                     	;# 
   104  0018                     	;# 
   105  0019                     	;# 
   106  001A                     	;# 
   107  001B                     	;# 
   108  001B                     	;# 
   109  001C                     	;# 
   110  001D                     	;# 
   111  001E                     	;# 
   112  001F                     	;# 
   113  0081                     	;# 
   114  0085                     	;# 
   115  0086                     	;# 
   116  0087                     	;# 
   117  0088                     	;# 
   118  0089                     	;# 
   119  008C                     	;# 
   120  008D                     	;# 
   121  008E                     	;# 
   122  0091                     	;# 
   123  0092                     	;# 
   124  0093                     	;# 
   125  0094                     	;# 
   126  0098                     	;# 
   127  0099                     	;# 
   128  009C                     	;# 
   129  009D                     	;# 
   130  009E                     	;# 
   131  009F                     	;# 
   132  010C                     	;# 
   133  010D                     	;# 
   134  010E                     	;# 
   135  010F                     	;# 
   136  018C                     	;# 
   137  018D                     	;# 
   138  0000                     	;# 
   139  0001                     	;# 
   140  0002                     	;# 
   141  0003                     	;# 
   142  0004                     	;# 
   143  0005                     	;# 
   144  0006                     	;# 
   145  0007                     	;# 
   146  0008                     	;# 
   147  0009                     	;# 
   148  000A                     	;# 
   149  000B                     	;# 
   150  000C                     	;# 
   151  000D                     	;# 
   152  000E                     	;# 
   153  000E                     	;# 
   154  000F                     	;# 
   155  0010                     	;# 
   156  0011                     	;# 
   157  0012                     	;# 
   158  0013                     	;# 
   159  0014                     	;# 
   160  0015                     	;# 
   161  0015                     	;# 
   162  0016                     	;# 
   163  0017                     	;# 
   164  0018                     	;# 
   165  0019                     	;# 
   166  001A                     	;# 
   167  001B                     	;# 
   168  001B                     	;# 
   169  001C                     	;# 
   170  001D                     	;# 
   171  001E                     	;# 
   172  001F                     	;# 
   173  0081                     	;# 
   174  0085                     	;# 
   175  0086                     	;# 
   176  0087                     	;# 
   177  0088                     	;# 
   178  0089                     	;# 
   179  008C                     	;# 
   180  008D                     	;# 
   181  008E                     	;# 
   182  0091                     	;# 
   183  0092                     	;# 
   184  0093                     	;# 
   185  0094                     	;# 
   186  0098                     	;# 
   187  0099                     	;# 
   188  009C                     	;# 
   189  009D                     	;# 
   190  009E                     	;# 
   191  009F                     	;# 
   192  010C                     	;# 
   193  010D                     	;# 
   194  010E                     	;# 
   195  010F                     	;# 
   196  018C                     	;# 
   197  018D                     	;# 
   198  0000                     	;# 
   199  0001                     	;# 
   200  0002                     	;# 
   201  0003                     	;# 
   202  0004                     	;# 
   203  0005                     	;# 
   204  0006                     	;# 
   205  0007                     	;# 
   206  0008                     	;# 
   207  0009                     	;# 
   208  000A                     	;# 
   209  000B                     	;# 
   210  000C                     	;# 
   211  000D                     	;# 
   212  000E                     	;# 
   213  000E                     	;# 
   214  000F                     	;# 
   215  0010                     	;# 
   216  0011                     	;# 
   217  0012                     	;# 
   218  0013                     	;# 
   219  0014                     	;# 
   220  0015                     	;# 
   221  0015                     	;# 
   222  0016                     	;# 
   223  0017                     	;# 
   224  0018                     	;# 
   225  0019                     	;# 
   226  001A                     	;# 
   227  001B                     	;# 
   228  001B                     	;# 
   229  001C                     	;# 
   230  001D                     	;# 
   231  001E                     	;# 
   232  001F                     	;# 
   233  0081                     	;# 
   234  0085                     	;# 
   235  0086                     	;# 
   236  0087                     	;# 
   237  0088                     	;# 
   238  0089                     	;# 
   239  008C                     	;# 
   240  008D                     	;# 
   241  008E                     	;# 
   242  0091                     	;# 
   243  0092                     	;# 
   244  0093                     	;# 
   245  0094                     	;# 
   246  0098                     	;# 
   247  0099                     	;# 
   248  009C                     	;# 
   249  009D                     	;# 
   250  009E                     	;# 
   251  009F                     	;# 
   252  010C                     	;# 
   253  010D                     	;# 
   254  010E                     	;# 
   255  010F                     	;# 
   256  018C                     	;# 
   257  018D                     	;# 
   258  0000                     	;# 
   259  0001                     	;# 
   260  0002                     	;# 
   261  0003                     	;# 
   262  0004                     	;# 
   263  0005                     	;# 
   264  0006                     	;# 
   265  0007                     	;# 
   266  0008                     	;# 
   267  0009                     	;# 
   268  000A                     	;# 
   269  000B                     	;# 
   270  000C                     	;# 
   271  000D                     	;# 
   272  000E                     	;# 
   273  000E                     	;# 
   274  000F                     	;# 
   275  0010                     	;# 
   276  0011                     	;# 
   277  0012                     	;# 
   278  0013                     	;# 
   279  0014                     	;# 
   280  0015                     	;# 
   281  0015                     	;# 
   282  0016                     	;# 
   283  0017                     	;# 
   284  0018                     	;# 
   285  0019                     	;# 
   286  001A                     	;# 
   287  001B                     	;# 
   288  001B                     	;# 
   289  001C                     	;# 
   290  001D                     	;# 
   291  001E                     	;# 
   292  001F                     	;# 
   293  0081                     	;# 
   294  0085                     	;# 
   295  0086                     	;# 
   296  0087                     	;# 
   297  0088                     	;# 
   298  0089                     	;# 
   299  008C                     	;# 
   300  008D                     	;# 
   301  008E                     	;# 
   302  0091                     	;# 
   303  0092                     	;# 
   304  0093                     	;# 
   305  0094                     	;# 
   306  0098                     	;# 
   307  0099                     	;# 
   308  009C                     	;# 
   309  009D                     	;# 
   310  009E                     	;# 
   311  009F                     	;# 
   312  010C                     	;# 
   313  010D                     	;# 
   314  010E                     	;# 
   315  010F                     	;# 
   316  018C                     	;# 
   317  018D                     	;# 
   318  0000                     	;# 
   319  0001                     	;# 
   320  0002                     	;# 
   321  0003                     	;# 
   322  0004                     	;# 
   323  0005                     	;# 
   324  0006                     	;# 
   325  0007                     	;# 
   326  0008                     	;# 
   327  0009                     	;# 
   328  000A                     	;# 
   329  000B                     	;# 
   330  000C                     	;# 
   331  000D                     	;# 
   332  000E                     	;# 
   333  000E                     	;# 
   334  000F                     	;# 
   335  0010                     	;# 
   336  0011                     	;# 
   337  0012                     	;# 
   338  0013                     	;# 
   339  0014                     	;# 
   340  0015                     	;# 
   341  0015                     	;# 
   342  0016                     	;# 
   343  0017                     	;# 
   344  0018                     	;# 
   345  0019                     	;# 
   346  001A                     	;# 
   347  001B                     	;# 
   348  001B                     	;# 
   349  001C                     	;# 
   350  001D                     	;# 
   351  001E                     	;# 
   352  001F                     	;# 
   353  0081                     	;# 
   354  0085                     	;# 
   355  0086                     	;# 
   356  0087                     	;# 
   357  0088                     	;# 
   358  0089                     	;# 
   359  008C                     	;# 
   360  008D                     	;# 
   361  008E                     	;# 
   362  0091                     	;# 
   363  0092                     	;# 
   364  0093                     	;# 
   365  0094                     	;# 
   366  0098                     	;# 
   367  0099                     	;# 
   368  009C                     	;# 
   369  009D                     	;# 
   370  009E                     	;# 
   371  009F                     	;# 
   372  010C                     	;# 
   373  010D                     	;# 
   374  010E                     	;# 
   375  010F                     	;# 
   376  018C                     	;# 
   377  018D                     	;# 
   378  0000                     	;# 
   379  0001                     	;# 
   380  0002                     	;# 
   381  0003                     	;# 
   382  0004                     	;# 
   383  0005                     	;# 
   384  0006                     	;# 
   385  0007                     	;# 
   386  0008                     	;# 
   387  0009                     	;# 
   388  000A                     	;# 
   389  000B                     	;# 
   390  000C                     	;# 
   391  000D                     	;# 
   392  000E                     	;# 
   393  000E                     	;# 
   394  000F                     	;# 
   395  0010                     	;# 
   396  0011                     	;# 
   397  0012                     	;# 
   398  0013                     	;# 
   399  0014                     	;# 
   400  0015                     	;# 
   401  0015                     	;# 
   402  0016                     	;# 
   403  0017                     	;# 
   404  0018                     	;# 
   405  0019                     	;# 
   406  001A                     	;# 
   407  001B                     	;# 
   408  001B                     	;# 
   409  001C                     	;# 
   410  001D                     	;# 
   411  001E                     	;# 
   412  001F                     	;# 
   413  0081                     	;# 
   414  0085                     	;# 
   415  0086                     	;# 
   416  0087                     	;# 
   417  0088                     	;# 
   418  0089                     	;# 
   419  008C                     	;# 
   420  008D                     	;# 
   421  008E                     	;# 
   422  0091                     	;# 
   423  0092                     	;# 
   424  0093                     	;# 
   425  0094                     	;# 
   426  0098                     	;# 
   427  0099                     	;# 
   428  009C                     	;# 
   429  009D                     	;# 
   430  009E                     	;# 
   431  009F                     	;# 
   432  010C                     	;# 
   433  010D                     	;# 
   434  010E                     	;# 
   435  010F                     	;# 
   436  018C                     	;# 
   437  018D                     	;# 
   438  0000                     	;# 
   439  0001                     	;# 
   440  0002                     	;# 
   441  0003                     	;# 
   442  0004                     	;# 
   443  0005                     	;# 
   444  0006                     	;# 
   445  0007                     	;# 
   446  0008                     	;# 
   447  0009                     	;# 
   448  000A                     	;# 
   449  000B                     	;# 
   450  000C                     	;# 
   451  000D                     	;# 
   452  000E                     	;# 
   453  000E                     	;# 
   454  000F                     	;# 
   455  0010                     	;# 
   456  0011                     	;# 
   457  0012                     	;# 
   458  0013                     	;# 
   459  0014                     	;# 
   460  0015                     	;# 
   461  0015                     	;# 
   462  0016                     	;# 
   463  0017                     	;# 
   464  0018                     	;# 
   465  0019                     	;# 
   466  001A                     	;# 
   467  001B                     	;# 
   468  001B                     	;# 
   469  001C                     	;# 
   470  001D                     	;# 
   471  001E                     	;# 
   472  001F                     	;# 
   473  0081                     	;# 
   474  0085                     	;# 
   475  0086                     	;# 
   476  0087                     	;# 
   477  0088                     	;# 
   478  0089                     	;# 
   479  008C                     	;# 
   480  008D                     	;# 
   481  008E                     	;# 
   482  0091                     	;# 
   483  0092                     	;# 
   484  0093                     	;# 
   485  0094                     	;# 
   486  0098                     	;# 
   487  0099                     	;# 
   488  009C                     	;# 
   489  009D                     	;# 
   490  009E                     	;# 
   491  009F                     	;# 
   492  010C                     	;# 
   493  010D                     	;# 
   494  010E                     	;# 
   495  010F                     	;# 
   496  018C                     	;# 
   497  018D                     	;# 
   498                           
   499                           	psect	idataBANK0
   500  0718                     __pidataBANK0:
   501                           
   502                           ;initializer for _segments_code
   503  0718  34BF               	retlw	191
   504  0719  3406               	retlw	6
   505  071A  345B               	retlw	91
   506  071B  344F               	retlw	79
   507  071C  3466               	retlw	102
   508  071D  346D               	retlw	109
   509  071E  347D               	retlw	125
   510  071F  3407               	retlw	7
   511  0720  34FF               	retlw	255
   512  0721  346F               	retlw	111
   513                           
   514                           ;initializer for _TargetTempreture
   515  0722  343C               	retlw	60
   516  0723  3400               	retlw	0
   517                           
   518                           ;initializer for flashDisplay@prev_status
   519  0724  3401               	retlw	1
   520                           
   521                           ;initializer for _canuse
   522  0725  3401               	retlw	1
   523                           
   524                           	psect	nvBANK0
   525  005E                     __pnvBANK0:
   526  005E                     _state:
   527  005E                     	ds	1
   528  000E                     _TMR1	set	14
   529  0013                     _SSPBUF	set	19
   530  0014                     _SSPCON	set	20
   531  0009                     _PORTEbits	set	9
   532  001E                     _ADRESH	set	30
   533  001F                     _ADCON0bits	set	31
   534  001F                     _ADCON0	set	31
   535  0008                     _PORTD	set	8
   536  0005                     _PORTAbits	set	5
   537  0006                     _PORTBbits	set	6
   538  0063                     _SSPIF	set	99
   539  005E                     _PEIE	set	94
   540  0085                     _T1CKPS1	set	133
   541  0084                     _T1CKPS0	set	132
   542  0081                     _TMR1CS	set	129
   543  005F                     _GIE	set	95
   544  005C                     _INTE	set	92
   545  0060                     _TMR1IF	set	96
   546  0059                     _INTF	set	89
   547  0035                     _RB5	set	53
   548  0037                     _RB7	set	55
   549  0080                     _TMR1ON	set	128
   550  003D                     _RC5	set	61
   551  003A                     _RC2	set	58
   552  0094                     _SSPSTAT	set	148
   553  0093                     _SSPADD	set	147
   554  0091                     _SSPCON2	set	145
   555  009E                     _ADRESL	set	158
   556  009F                     _ADCON1	set	159
   557  0088                     _TRISD	set	136
   558  0085                     _TRISA	set	133
   559  048C                     _ACKEN	set	1164
   560  048D                     _ACKDT	set	1165
   561  048B                     _RCEN	set	1163
   562  048E                     _ACKSTAT	set	1166
   563  048A                     _PEN	set	1162
   564  0489                     _RSEN	set	1161
   565  0488                     _SEN	set	1160
   566  043C                     _TRISC4	set	1084
   567  043B                     _TRISC3	set	1083
   568  0460                     _TMR1IE	set	1120
   569  040E                     _INTEDG	set	1038
   570  0435                     _TRISB5	set	1077
   571  0434                     _TRISB4	set	1076
   572  0433                     _TRISB3	set	1075
   573  0437                     _TRISB7	set	1079
   574  043A                     _TRISC2	set	1082
   575  043D                     _TRISC5	set	1085
   576                           
   577                           	psect	cinit
   578  0015                     start_initialization:	
   579                           ; #config settings
   580                           
   581  0015                     __initialization:
   582                           
   583                           ; Initialize objects allocated to BANK0
   584  0015  1383               	bcf	3,7	;select IRP bank0
   585  0016  305E               	movlw	low (__pdataBANK0+14)
   586  0017  00FD               	movwf	btemp+-1
   587  0018  3007               	movlw	high __pidataBANK0
   588  0019  00FE               	movwf	btemp
   589  001A  3018               	movlw	low __pidataBANK0
   590  001B  00FF               	movwf	btemp+1
   591  001C  3050               	movlw	low __pdataBANK0
   592  001D  0084               	movwf	4
   593  001E  120A  118A  26F8  120A  118A  	fcall	init_ram0
   594                           
   595                           ; Clear objects allocated to BANK0
   596  0023  01C1               	clrf	__pbssBANK0& (0+127)
   597  0024  01C2               	clrf	(__pbssBANK0+1)& (0+127)
   598  0025  01C3               	clrf	(__pbssBANK0+2)& (0+127)
   599  0026  01C4               	clrf	(__pbssBANK0+3)& (0+127)
   600  0027  01C5               	clrf	(__pbssBANK0+4)& (0+127)
   601  0028  01C6               	clrf	(__pbssBANK0+5)& (0+127)
   602  0029  01C7               	clrf	(__pbssBANK0+6)& (0+127)
   603  002A  01C8               	clrf	(__pbssBANK0+7)& (0+127)
   604  002B  01C9               	clrf	(__pbssBANK0+8)& (0+127)
   605  002C  01CA               	clrf	(__pbssBANK0+9)& (0+127)
   606  002D  01CB               	clrf	(__pbssBANK0+10)& (0+127)
   607  002E  01CC               	clrf	(__pbssBANK0+11)& (0+127)
   608  002F  01CD               	clrf	(__pbssBANK0+12)& (0+127)
   609  0030  01CE               	clrf	(__pbssBANK0+13)& (0+127)
   610  0031  01CF               	clrf	(__pbssBANK0+14)& (0+127)
   611  0032                     end_of_initialization:	
   612                           ;End of C runtime variable initialization code
   613                           
   614  0032                     __end_of__initialization:
   615  0032  0183               	clrf	3
   616  0033  120A  118A  294D   	ljmp	_main	;jump to C main() function
   617                           
   618                           	psect	bssBANK0
   619  0041                     __pbssBANK0:
   620  0041                     _accumilated_tmeperature:
   621  0041                     	ds	2
   622  0043                     _TEMPRETURE:
   623  0043                     	ds	2
   624  0045                     flashDisplay@count:
   625  0045                     	ds	1
   626  0046                     _ReadTemp:
   627  0046                     	ds	1
   628  0047                     _timer1counter:
   629  0047                     	ds	1
   630  0048                     _Number_Tempreture:
   631  0048                     	ds	1
   632  0049                     _temp_state:
   633  0049                     	ds	1
   634  004A                     _str:
   635  004A                     	ds	6
   636                           
   637                           	psect	dataBANK0
   638  0050                     __pdataBANK0:
   639  0050                     _segments_code:
   640  0050                     	ds	10
   641  005A                     _TargetTempreture:
   642  005A                     	ds	2
   643  005C                     flashDisplay@prev_status:
   644  005C                     	ds	1
   645  005D                     _canuse:
   646  005D                     	ds	1
   647                           
   648                           	psect	inittext
   649  06F4                     init_fetch0:	
   650                           ;	Called with low address in FSR and high address in W
   651                           
   652  06F4  087E               	movf	btemp,w
   653  06F5  008A               	movwf	10
   654  06F6  087F               	movf	btemp+1,w
   655  06F7  0082               	movwf	2
   656  06F8                     init_ram0:	
   657                           ;Called with:
   658                           ;	high address of idata address in btemp 
   659                           ;	low address of idata address in btemp+1 
   660                           ;	low address of data in FSR
   661                           ;	high address + 1 of data in btemp-1
   662                           
   663  06F8  120A  118A  26F4  120A  118A  	fcall	init_fetch0
   664  06FD  0080               	movwf	0
   665  06FE  0A84               	incf	4,f
   666  06FF  0804               	movf	4,w
   667  0700  067D               	xorwf	btemp+-1,w
   668  0701  1903               	btfsc	3,2
   669  0702  3400               	retlw	0
   670  0703  0AFF               	incf	btemp+1,f
   671  0704  1903               	btfsc	3,2
   672  0705  0AFE               	incf	btemp,f
   673  0706  2EF8               	goto	init_ram0
   674                           
   675                           	psect	cstackBANK1
   676  00A0                     __pcstackBANK1:
   677  00A0                     ?_I2C_Master_Init:
   678  00A0                     flashDisplay@i:	
   679                           ; 1 bytes @ 0x0
   680                           
   681  00A0                     I2C_Master_Init@baud:	
   682                           ; 2 bytes @ 0x0
   683                           
   684                           
   685                           ; 4 bytes @ 0x0
   686  00A0                     	ds	2
   687  00A2                     flashDisplay@i_172:
   688                           
   689                           ; 2 bytes @ 0x2
   690  00A2                     	ds	2
   691  00A4                     ??_I2C_Master_Init:
   692                           
   693                           ; 1 bytes @ 0x4
   694  00A4                     	ds	4
   695                           
   696                           	psect	cstackCOMMON
   697  0070                     __pcstackCOMMON:
   698  0070                     ?_displayDeiredTempreture:
   699  0070                     ?_displayTempreture:	
   700                           ; 1 bytes @ 0x0
   701                           
   702  0070                     ?_TIMER1_init:	
   703                           ; 1 bytes @ 0x0
   704                           
   705  0070                     ?_IRQ_RB0_init:	
   706                           ; 1 bytes @ 0x0
   707                           
   708  0070                     ?_adc_init:	
   709                           ; 1 bytes @ 0x0
   710                           
   711  0070                     ?_lcd_writeNumber:	
   712                           ; 1 bytes @ 0x0
   713                           
   714  0070                     ?_off_state:	
   715                           ; 1 bytes @ 0x0
   716                           
   717  0070                     ?_flashDisplay:	
   718                           ; 1 bytes @ 0x0
   719                           
   720  0070                     ?_changeStatus:	
   721                           ; 1 bytes @ 0x0
   722                           
   723  0070                     ?_heaterOn:	
   724                           ; 1 bytes @ 0x0
   725                           
   726  0070                     ?_coolerOn:	
   727                           ; 1 bytes @ 0x0
   728                           
   729  0070                     ?_on_state:	
   730                           ; 1 bytes @ 0x0
   731                           
   732  0070                     ?_setting_state:	
   733                           ; 1 bytes @ 0x0
   734                           
   735  0070                     ?_main:	
   736                           ; 1 bytes @ 0x0
   737                           
   738  0070                     ?_update_tempreture:	
   739                           ; 1 bytes @ 0x0
   740                           
   741  0070                     ?_ISR:	
   742                           ; 1 bytes @ 0x0
   743                           
   744  0070                     ?_adc_amostra:	
   745                           ; 1 bytes @ 0x0
   746                           
   747  0070                     ?i1___lwmod:	
   748                           ; 2 bytes @ 0x0
   749                           
   750  0070                     i1___lwmod@divisor:	
   751                           ; 2 bytes @ 0x0
   752                           
   753                           
   754                           ; 2 bytes @ 0x0
   755  0070                     	ds	2
   756  0072                     ??_adc_amostra:
   757  0072                     i1___lwmod@dividend:	
   758                           ; 1 bytes @ 0x2
   759                           
   760                           
   761                           ; 2 bytes @ 0x2
   762  0072                     	ds	2
   763  0074                     ??i1___lwmod:
   764  0074                     i1___lwmod@counter:	
   765                           ; 1 bytes @ 0x4
   766                           
   767                           
   768                           ; 1 bytes @ 0x4
   769  0074                     	ds	1
   770  0075                     ?i1___lwdiv:
   771  0075                     i1___lwdiv@divisor:	
   772                           ; 2 bytes @ 0x5
   773                           
   774                           
   775                           ; 2 bytes @ 0x5
   776  0075                     	ds	2
   777  0077                     i1___lwdiv@dividend:
   778                           
   779                           ; 2 bytes @ 0x7
   780  0077                     	ds	2
   781  0079                     ??i1___lwdiv:
   782  0079                     adc_amostra@canal:	
   783                           ; 1 bytes @ 0x9
   784                           
   785  0079                     i1___lwdiv@quotient:	
   786                           ; 1 bytes @ 0x9
   787                           
   788                           
   789                           ; 2 bytes @ 0x9
   790  0079                     	ds	1
   791  007A                     ?___wmul:
   792  007A                     ___wmul@multiplier:	
   793                           ; 2 bytes @ 0xA
   794                           
   795                           
   796                           ; 2 bytes @ 0xA
   797  007A                     	ds	1
   798  007B                     i1___lwdiv@counter:
   799                           
   800                           ; 1 bytes @ 0xB
   801  007B                     	ds	1
   802  007C                     ??_itoa:
   803  007C                     ___wmul@multiplicand:	
   804                           ; 1 bytes @ 0xC
   805                           
   806                           
   807                           ; 2 bytes @ 0xC
   808  007C                     	ds	2
   809  007E                     ??___wmul:
   810                           
   811                           	psect	cstackBANK0
   812  0020                     __pcstackBANK0:	
   813                           ; 1 bytes @ 0xE
   814                           
   815  0020                     ?_itoa:
   816  0020                     itoa@val:	
   817                           ; 1 bytes @ 0x0
   818                           
   819  0020                     ___wmul@product:	
   820                           ; 2 bytes @ 0x0
   821                           
   822                           
   823                           ; 2 bytes @ 0x0
   824  0020                     	ds	2
   825  0022                     itoa@str:
   826                           
   827                           ; 1 bytes @ 0x2
   828  0022                     	ds	1
   829  0023                     ??_update_tempreture:
   830                           
   831                           ; 1 bytes @ 0x3
   832  0023                     	ds	4
   833  0027                     update_tempreture@temp:
   834                           
   835                           ; 2 bytes @ 0x7
   836  0027                     	ds	2
   837  0029                     update_tempreture@y:
   838                           
   839                           ; 1 bytes @ 0x9
   840  0029                     	ds	1
   841  002A                     update_tempreture@x:
   842                           
   843                           ; 1 bytes @ 0xA
   844  002A                     	ds	1
   845  002B                     ??_ISR:
   846                           
   847                           ; 1 bytes @ 0xB
   848  002B                     	ds	6
   849  0031                     ??_TIMER1_init:
   850  0031                     ??_IRQ_RB0_init:	
   851                           ; 1 bytes @ 0x11
   852                           
   853  0031                     ??_adc_init:	
   854                           ; 1 bytes @ 0x11
   855                           
   856  0031                     ??_lcd_writeNumber:	
   857                           ; 1 bytes @ 0x11
   858                           
   859  0031                     ??_off_state:	
   860                           ; 1 bytes @ 0x11
   861                           
   862  0031                     ??_changeStatus:	
   863                           ; 1 bytes @ 0x11
   864                           
   865  0031                     ??_heaterOn:	
   866                           ; 1 bytes @ 0x11
   867                           
   868  0031                     ??_coolerOn:	
   869                           ; 1 bytes @ 0x11
   870                           
   871  0031                     ?___awdiv:	
   872                           ; 1 bytes @ 0x11
   873                           
   874  0031                     ?___awmod:	
   875                           ; 2 bytes @ 0x11
   876                           
   877  0031                     ?___lwdiv:	
   878                           ; 2 bytes @ 0x11
   879                           
   880  0031                     ?___lwmod:	
   881                           ; 2 bytes @ 0x11
   882                           
   883  0031                     ?___lldiv:	
   884                           ; 2 bytes @ 0x11
   885                           
   886  0031                     lcd_writeNumber@code:	
   887                           ; 4 bytes @ 0x11
   888                           
   889  0031                     ___awdiv@divisor:	
   890                           ; 1 bytes @ 0x11
   891                           
   892  0031                     ___awmod@divisor:	
   893                           ; 2 bytes @ 0x11
   894                           
   895  0031                     ___lwdiv@divisor:	
   896                           ; 2 bytes @ 0x11
   897                           
   898  0031                     ___lwmod@divisor:	
   899                           ; 2 bytes @ 0x11
   900                           
   901  0031                     ___lldiv@divisor:	
   902                           ; 2 bytes @ 0x11
   903                           
   904                           
   905                           ; 4 bytes @ 0x11
   906  0031                     	ds	1
   907  0032                     lcd_writeNumber@number:
   908                           
   909                           ; 1 bytes @ 0x12
   910  0032                     	ds	1
   911  0033                     ___awdiv@dividend:
   912  0033                     ___awmod@dividend:	
   913                           ; 2 bytes @ 0x13
   914                           
   915  0033                     ___lwdiv@dividend:	
   916                           ; 2 bytes @ 0x13
   917                           
   918  0033                     ___lwmod@dividend:	
   919                           ; 2 bytes @ 0x13
   920                           
   921                           
   922                           ; 2 bytes @ 0x13
   923  0033                     	ds	2
   924  0035                     ??___awdiv:
   925  0035                     ??___awmod:	
   926                           ; 1 bytes @ 0x15
   927                           
   928  0035                     ??___lwdiv:	
   929                           ; 1 bytes @ 0x15
   930                           
   931  0035                     ??___lwmod:	
   932                           ; 1 bytes @ 0x15
   933                           
   934  0035                     ___awdiv@counter:	
   935                           ; 1 bytes @ 0x15
   936                           
   937  0035                     ___awmod@counter:	
   938                           ; 1 bytes @ 0x15
   939                           
   940  0035                     ___lwmod@counter:	
   941                           ; 1 bytes @ 0x15
   942                           
   943  0035                     ___lwdiv@quotient:	
   944                           ; 1 bytes @ 0x15
   945                           
   946  0035                     ___lldiv@dividend:	
   947                           ; 2 bytes @ 0x15
   948                           
   949                           
   950                           ; 4 bytes @ 0x15
   951  0035                     	ds	1
   952  0036                     ___awdiv@sign:
   953  0036                     ___awmod@sign:	
   954                           ; 1 bytes @ 0x16
   955                           
   956                           
   957                           ; 1 bytes @ 0x16
   958  0036                     	ds	1
   959  0037                     ___lwdiv@counter:
   960  0037                     ___awdiv@quotient:	
   961                           ; 1 bytes @ 0x17
   962                           
   963                           
   964                           ; 2 bytes @ 0x17
   965  0037                     	ds	1
   966  0038                     ??_displayTempreture:
   967                           
   968                           ; 1 bytes @ 0x18
   969  0038                     	ds	1
   970  0039                     ??_displayDeiredTempreture:
   971  0039                     ??___lldiv:	
   972                           ; 1 bytes @ 0x19
   973                           
   974                           
   975                           ; 1 bytes @ 0x19
   976  0039                     	ds	1
   977  003A                     displayTempreture@low:
   978  003A                     ___lldiv@quotient:	
   979                           ; 1 bytes @ 0x1A
   980                           
   981                           
   982                           ; 4 bytes @ 0x1A
   983  003A                     	ds	1
   984  003B                     displayTempreture@high:
   985  003B                     displayDeiredTempreture@low:	
   986                           ; 1 bytes @ 0x1B
   987                           
   988                           
   989                           ; 1 bytes @ 0x1B
   990  003B                     	ds	1
   991  003C                     ??_on_state:
   992  003C                     displayDeiredTempreture@high:	
   993                           ; 1 bytes @ 0x1C
   994                           
   995                           
   996                           ; 1 bytes @ 0x1C
   997  003C                     	ds	1
   998  003D                     ??_flashDisplay:
   999                           
  1000                           ; 1 bytes @ 0x1D
  1001  003D                     	ds	1
  1002  003E                     ___lldiv@counter:
  1003                           
  1004                           ; 1 bytes @ 0x1E
  1005  003E                     	ds	1
  1006  003F                     ??_setting_state:
  1007  003F                     ??_main:	
  1008                           ; 1 bytes @ 0x1F
  1009                           
  1010                           
  1011                           ; 1 bytes @ 0x1F
  1012  003F                     	ds	2
  1013                           
  1014                           	psect	maintext
  1015  014D                     __pmaintext:	
  1016 ;;
  1017 ;;Main: autosize = 0, tempsize = 2, incstack = 0, save=0
  1018 ;;
  1019 ;; *************** function _main *****************
  1020 ;; Defined at:
  1021 ;;		line 202 in file "main.c"
  1022 ;; Parameters:    Size  Location     Type
  1023 ;;		None
  1024 ;; Auto vars:     Size  Location     Type
  1025 ;;		None
  1026 ;; Return value:  Size  Location     Type
  1027 ;;                  1    wreg      void 
  1028 ;; Registers used:
  1029 ;;		wreg, fsr0l, fsr0h, status,2, status,0, btemp+1, pclath, cstack
  1030 ;; Tracked objects:
  1031 ;;		On entry : B00/0
  1032 ;;		On exit  : 0/0
  1033 ;;		Unchanged: 0/0
  1034 ;; Data sizes:     COMMON   BANK0   BANK1   BANK3   BANK2
  1035 ;;      Params:         0       0       0       0       0
  1036 ;;      Locals:         0       0       0       0       0
  1037 ;;      Temps:          0       2       0       0       0
  1038 ;;      Totals:         0       2       0       0       0
  1039 ;;Total ram usage:        2 bytes
  1040 ;; Hardware stack levels required when called:    8
  1041 ;; This function calls:
  1042 ;;		_I2C_Master_Init
  1043 ;;		_IRQ_RB0_init
  1044 ;;		_TIMER1_init
  1045 ;;		_adc_init
  1046 ;;		_off_state
  1047 ;;		_on_state
  1048 ;;		_setting_state
  1049 ;; This function is called by:
  1050 ;;		Startup code after reset
  1051 ;; This function uses a non-reentrant model
  1052 ;;
  1053                           
  1054                           
  1055                           ;psect for function _main
  1056  014D                     _main:
  1057  014D                     l2679:	
  1058                           ;incstack = 0
  1059                           ; Regs used in _main: [wreg-fsr0h+status,2+status,0+btemp+1+pclath+cstack]
  1060                           
  1061                           
  1062                           ;main.c: 204:     TIMER1_init ();
  1063  014D  120A  118A  2707  120A  118A  	fcall	_TIMER1_init
  1064                           
  1065                           ;main.c: 205:     IRQ_RB0_init ();
  1066  0152  120A  118A  273A  120A  118A  	fcall	_IRQ_RB0_init
  1067  0157                     l2681:
  1068                           
  1069                           ;main.c: 206:     I2C_Master_Init(100000);
  1070  0157  3000               	movlw	0
  1071  0158  1683               	bsf	3,5	;RP0=1, select bank1
  1072  0159  1303               	bcf	3,6	;RP1=0, select bank1
  1073  015A  00A3               	movwf	(I2C_Master_Init@baud+3)^(0+128)
  1074  015B  3001               	movlw	1
  1075  015C  00A2               	movwf	(I2C_Master_Init@baud+2)^(0+128)
  1076  015D  3086               	movlw	134
  1077  015E  00A1               	movwf	(I2C_Master_Init@baud+1)^(0+128)
  1078  015F  30A0               	movlw	160
  1079  0160  00A0               	movwf	I2C_Master_Init@baud^(0+128)
  1080  0161  120A  118A  2544  120A  118A  	fcall	_I2C_Master_Init
  1081  0166                     l2683:
  1082                           
  1083                           ;main.c: 209:     TRISA = 0x07;
  1084  0166  3007               	movlw	7
  1085  0167  1683               	bsf	3,5	;RP0=1, select bank1
  1086  0168  1303               	bcf	3,6	;RP1=0, select bank1
  1087  0169  0085               	movwf	5	;volatile
  1088  016A                     l2685:
  1089                           
  1090                           ;main.c: 211:     TRISD = 0x00;
  1091  016A  0188               	clrf	8	;volatile
  1092  016B                     l2687:
  1093                           
  1094                           ;main.c: 213:     PORTD = 0x00;
  1095  016B  1283               	bcf	3,5	;RP0=0, select bank0
  1096  016C  1303               	bcf	3,6	;RP1=0, select bank0
  1097  016D  0188               	clrf	8	;volatile
  1098  016E                     l2689:
  1099                           
  1100                           ;main.c: 215:     TRISC5 = 0;
  1101  016E  1683               	bsf	3,5	;RP0=1, select bank1
  1102  016F  1303               	bcf	3,6	;RP1=0, select bank1
  1103  0170  1287               	bcf	7,5	;volatile
  1104  0171                     l2691:
  1105                           
  1106                           ;main.c: 216:     TRISC2 = 0;
  1107  0171  1107               	bcf	7,2	;volatile
  1108  0172                     l2693:
  1109                           
  1110                           ;main.c: 217:     RC2 = 0;
  1111  0172  1283               	bcf	3,5	;RP0=0, select bank0
  1112  0173  1303               	bcf	3,6	;RP1=0, select bank0
  1113  0174  1107               	bcf	7,2	;volatile
  1114  0175                     l2695:
  1115                           
  1116                           ;main.c: 218:     RC5 = 0;
  1117  0175  1287               	bcf	7,5	;volatile
  1118  0176                     l2697:
  1119                           
  1120                           ;main.c: 219:     TRISB7 = 0;
  1121  0176  1683               	bsf	3,5	;RP0=1, select bank1
  1122  0177  1303               	bcf	3,6	;RP1=0, select bank1
  1123  0178  1386               	bcf	6,7	;volatile
  1124  0179                     l2699:
  1125                           
  1126                           ;main.c: 220:     TRISB3 = 1;
  1127  0179  1586               	bsf	6,3	;volatile
  1128  017A                     l2701:
  1129                           
  1130                           ;main.c: 221:     TRISB4 = 1;
  1131  017A  1606               	bsf	6,4	;volatile
  1132  017B                     l2703:
  1133                           
  1134                           ;main.c: 222:     RB7 =0;
  1135  017B  1283               	bcf	3,5	;RP0=0, select bank0
  1136  017C  1303               	bcf	3,6	;RP1=0, select bank0
  1137  017D  1386               	bcf	6,7	;volatile
  1138  017E                     l2705:
  1139                           
  1140                           ;main.c: 223:     TRISB5 = 0;
  1141  017E  1683               	bsf	3,5	;RP0=1, select bank1
  1142  017F  1303               	bcf	3,6	;RP1=0, select bank1
  1143  0180  1286               	bcf	6,5	;volatile
  1144  0181                     l2707:
  1145                           
  1146                           ;main.c: 224:     RB5 =0;
  1147  0181  1283               	bcf	3,5	;RP0=0, select bank0
  1148  0182  1303               	bcf	3,6	;RP1=0, select bank0
  1149  0183  1286               	bcf	6,5	;volatile
  1150  0184                     l2709:
  1151                           
  1152                           ;main.c: 225:     Number_Tempreture=0;
  1153  0184  01C8               	clrf	_Number_Tempreture
  1154  0185                     l2711:
  1155                           
  1156                           ;main.c: 226:     adc_init();
  1157  0185  120A  118A  2731  120A  118A  	fcall	_adc_init
  1158  018A                     l2713:
  1159                           
  1160                           ;main.c: 227:     state=OFF_STATE;
  1161  018A  1283               	bcf	3,5	;RP0=0, select bank0
  1162  018B  1303               	bcf	3,6	;RP1=0, select bank0
  1163  018C  01DE               	clrf	_state
  1164  018D  0ADE               	incf	_state,f
  1165  018E                     l2715:
  1166                           
  1167                           ;main.c: 228:     temp_state=OK_state;
  1168  018E  01C9               	clrf	_temp_state
  1169  018F                     l2717:
  1170                           
  1171                           ;main.c: 229:     ReadTemp=0;
  1172  018F  01C6               	clrf	_ReadTemp
  1173  0190                     l2719:
  1174                           
  1175                           ;main.c: 230:     timer1counter=0;
  1176  0190  01C7               	clrf	_timer1counter
  1177  0191                     l2721:
  1178                           
  1179                           ;main.c: 231:     accumilated_tmeperature=0;
  1180  0191  01C1               	clrf	_accumilated_tmeperature
  1181  0192  01C2               	clrf	_accumilated_tmeperature+1
  1182  0193                     l2723:
  1183                           
  1184                           ;main.c: 232:     TargetTempreture = 60;
  1185  0193  303C               	movlw	60
  1186  0194  00DA               	movwf	_TargetTempreture
  1187  0195  3000               	movlw	0
  1188  0196  00DB               	movwf	_TargetTempreture+1
  1189  0197  29AA               	goto	l2733
  1190  0198                     l2725:
  1191                           
  1192                           ;main.c: 250:             on_state();
  1193  0198  120A  118A  25CE  120A  118A  	fcall	_on_state
  1194                           
  1195                           ;main.c: 251:             break;
  1196  019D  29AA               	goto	l2733
  1197  019E                     l2727:
  1198                           
  1199                           ;main.c: 253:             off_state();
  1200  019E  120A  118A  274A  120A  118A  	fcall	_off_state
  1201                           
  1202                           ;main.c: 254:             break;
  1203  01A3  29AA               	goto	l2733
  1204  01A4                     l2729:
  1205                           
  1206                           ;main.c: 256:             setting_state();
  1207  01A4  120A  118A  2726  120A  118A  	fcall	_setting_state
  1208                           
  1209                           ;main.c: 257:             break;
  1210  01A9  29AA               	goto	l2733
  1211  01AA                     l153:
  1212  01AA                     l2733:
  1213  01AA  1283               	bcf	3,5	;RP0=0, select bank0
  1214  01AB  1303               	bcf	3,6	;RP1=0, select bank0
  1215  01AC  085E               	movf	_state,w
  1216  01AD  00BF               	movwf	??_main
  1217  01AE  01C0               	clrf	??_main+1
  1218                           
  1219                           ; Switch on 2 bytes has been partitioned into a top level switch of size 1, and 1 sub-sw
      +                          itches
  1220                           ; Switch size 1, requested type "simple"
  1221                           ; Number of cases is 1, Range of values is 0 to 0
  1222                           ; switch strategies available:
  1223                           ; Name         Instructions Cycles
  1224                           ; simple_byte            4     3 (average)
  1225                           ; direct_byte           11     8 (fixed)
  1226                           ; jumptable            260     6 (fixed)
  1227                           ;	Chosen strategy is simple_byte
  1228  01AF  0840               	movf	??_main+1,w
  1229  01B0  3A00               	xorlw	0	; case 0
  1230  01B1  1903               	skipnz
  1231  01B2  29B4               	goto	l2841
  1232  01B3  29AA               	goto	l153
  1233  01B4                     l2841:
  1234                           
  1235                           ; Switch size 1, requested type "simple"
  1236                           ; Number of cases is 3, Range of values is 0 to 2
  1237                           ; switch strategies available:
  1238                           ; Name         Instructions Cycles
  1239                           ; simple_byte           10     6 (average)
  1240                           ; direct_byte           17     8 (fixed)
  1241                           ; jumptable            260     6 (fixed)
  1242                           ;	Chosen strategy is simple_byte
  1243  01B4  083F               	movf	??_main,w
  1244  01B5  3A00               	xorlw	0	; case 0
  1245  01B6  1903               	skipnz
  1246  01B7  2998               	goto	l2725
  1247  01B8  3A01               	xorlw	1	; case 1
  1248  01B9  1903               	skipnz
  1249  01BA  299E               	goto	l2727
  1250  01BB  3A03               	xorlw	3	; case 2
  1251  01BC  1903               	skipnz
  1252  01BD  29A4               	goto	l2729
  1253  01BE  29AA               	goto	l153
  1254  01BF  120A  118A  2812   	ljmp	start
  1255  01C2                     __end_of_main:
  1256                           
  1257                           	psect	text1
  1258  0726                     __ptext1:	
  1259 ;; *************** function _setting_state *****************
  1260 ;; Defined at:
  1261 ;;		line 193 in file "main.c"
  1262 ;; Parameters:    Size  Location     Type
  1263 ;;		None
  1264 ;; Auto vars:     Size  Location     Type
  1265 ;;		None
  1266 ;; Return value:  Size  Location     Type
  1267 ;;                  1    wreg      void 
  1268 ;; Registers used:
  1269 ;;		wreg, fsr0l, fsr0h, status,2, status,0, btemp+1, pclath, cstack
  1270 ;; Tracked objects:
  1271 ;;		On entry : 0/0
  1272 ;;		On exit  : 0/0
  1273 ;;		Unchanged: 0/0
  1274 ;; Data sizes:     COMMON   BANK0   BANK1   BANK3   BANK2
  1275 ;;      Params:         0       0       0       0       0
  1276 ;;      Locals:         0       0       0       0       0
  1277 ;;      Temps:          0       0       0       0       0
  1278 ;;      Totals:         0       0       0       0       0
  1279 ;;Total ram usage:        0 bytes
  1280 ;; Hardware stack levels used:    1
  1281 ;; Hardware stack levels required when called:    7
  1282 ;; This function calls:
  1283 ;;		_flashDisplay
  1284 ;; This function is called by:
  1285 ;;		_main
  1286 ;; This function uses a non-reentrant model
  1287 ;;
  1288                           
  1289                           
  1290                           ;psect for function _setting_state
  1291  0726                     _setting_state:
  1292  0726                     l2663:	
  1293                           ;incstack = 0
  1294                           ; Regs used in _setting_state: [wreg-fsr0h+status,2+status,0+btemp+1+pclath+cstack]
  1295                           
  1296                           
  1297                           ;main.c: 195:      TMR1ON = 0;
  1298  0726  1283               	bcf	3,5	;RP0=0, select bank0
  1299  0727  1303               	bcf	3,6	;RP1=0, select bank0
  1300  0728  1010               	bcf	16,0	;volatile
  1301                           
  1302                           ;main.c: 196:      RC2=0;
  1303  0729  1107               	bcf	7,2	;volatile
  1304                           
  1305                           ;main.c: 197:      RC5=0;
  1306  072A  1287               	bcf	7,5	;volatile
  1307  072B                     l2665:
  1308                           
  1309                           ;main.c: 198:      flashDisplay();
  1310  072B  120A  118A  2036  120A  118A  	fcall	_flashDisplay
  1311  0730                     l147:
  1312  0730  0008               	return
  1313  0731                     __end_of_setting_state:
  1314                           
  1315                           	psect	text2
  1316  0036                     __ptext2:	
  1317 ;; *************** function _flashDisplay *****************
  1318 ;; Defined at:
  1319 ;;		line 54 in file "main.c"
  1320 ;; Parameters:    Size  Location     Type
  1321 ;;		None
  1322 ;; Auto vars:     Size  Location     Type
  1323 ;;  i               2    2[BANK1 ] int 
  1324 ;;  i               2    0[BANK1 ] int 
  1325 ;; Return value:  Size  Location     Type
  1326 ;;                  1    wreg      void 
  1327 ;; Registers used:
  1328 ;;		wreg, fsr0l, fsr0h, status,2, status,0, btemp+1, pclath, cstack
  1329 ;; Tracked objects:
  1330 ;;		On entry : 0/0
  1331 ;;		On exit  : 0/0
  1332 ;;		Unchanged: 0/0
  1333 ;; Data sizes:     COMMON   BANK0   BANK1   BANK3   BANK2
  1334 ;;      Params:         0       0       0       0       0
  1335 ;;      Locals:         0       0       4       0       0
  1336 ;;      Temps:          0       2       0       0       0
  1337 ;;      Totals:         0       2       4       0       0
  1338 ;;Total ram usage:        6 bytes
  1339 ;; Hardware stack levels used:    1
  1340 ;; Hardware stack levels required when called:    6
  1341 ;; This function calls:
  1342 ;;		_displayDeiredTempreture
  1343 ;; This function is called by:
  1344 ;;		_setting_state
  1345 ;; This function uses a non-reentrant model
  1346 ;;
  1347                           
  1348                           
  1349                           ;psect for function _flashDisplay
  1350  0036                     _flashDisplay:
  1351  0036                     l2543:	
  1352                           ;incstack = 0
  1353                           ; Regs used in _flashDisplay: [wreg-fsr0h+status,2+status,0+btemp+1+pclath+cstack]
  1354                           
  1355                           
  1356                           ;main.c: 56:     static unsigned char count=0;;main.c: 57:     static unsigned char prev
      +                          _status=PREV_STABLE;;main.c: 58:     if(PORTBbits.RB3&&PORTBbits.RB4)
  1357  0036  1283               	bcf	3,5	;RP0=0, select bank0
  1358  0037  1303               	bcf	3,6	;RP1=0, select bank0
  1359  0038  1D86               	btfss	6,3	;volatile
  1360  0039  283B               	goto	u2051
  1361  003A  283C               	goto	u2050
  1362  003B                     u2051:
  1363  003B  284F               	goto	l2557
  1364  003C                     u2050:
  1365  003C                     l2545:
  1366  003C  1E06               	btfss	6,4	;volatile
  1367  003D  283F               	goto	u2061
  1368  003E  2840               	goto	u2060
  1369  003F                     u2061:
  1370  003F  284F               	goto	l2557
  1371  0040                     u2060:
  1372  0040                     l2547:
  1373                           
  1374                           ;main.c: 59:     {;main.c: 60:         if(count==5)
  1375  0040  3005               	movlw	5
  1376  0041  0645               	xorwf	flashDisplay@count,w
  1377  0042  1D03               	btfss	3,2
  1378  0043  2845               	goto	u2071
  1379  0044  2846               	goto	u2070
  1380  0045                     u2071:
  1381  0045  2849               	goto	l105
  1382  0046                     u2070:
  1383  0046                     l2549:
  1384                           
  1385                           ;main.c: 61:         {;main.c: 62:             state=ON_STATE;
  1386  0046  01DE               	clrf	_state
  1387                           
  1388                           ;main.c: 63:             count=0;
  1389  0047  01C5               	clrf	flashDisplay@count
  1390  0048  294C               	goto	l106
  1391  0049                     l105:	
  1392                           ;main.c: 67:         else{
  1393                           
  1394                           
  1395                           ;main.c: 68:             prev_status=PREV_STABLE;
  1396  0049  01DC               	clrf	flashDisplay@prev_status
  1397  004A  0ADC               	incf	flashDisplay@prev_status,f
  1398  004B                     l2555:
  1399                           
  1400                           ;main.c: 69:             count++;
  1401  004B  3001               	movlw	1
  1402  004C  00FF               	movwf	btemp+1
  1403  004D  087F               	movf	btemp+1,w
  1404  004E  07C5               	addwf	flashDisplay@count,f
  1405  004F                     l2557:
  1406                           
  1407                           ;main.c: 73:    for(int i=0;i<25;i++)
  1408  004F  1683               	bsf	3,5	;RP0=1, select bank1
  1409  0050  1303               	bcf	3,6	;RP1=0, select bank1
  1410  0051  01A0               	clrf	flashDisplay@i^(0+128)
  1411  0052  01A1               	clrf	(flashDisplay@i+1)^(0+128)
  1412  0053                     l2563:
  1413                           
  1414                           ;main.c: 74:    {;main.c: 75:     displayDeiredTempreture();
  1415  0053  120A  118A  2406  120A  118A  	fcall	_displayDeiredTempreture
  1416  0058                     l2565:
  1417                           
  1418                           ;main.c: 76:     if(PORTBbits.RB3==0&&prev_status==PREV_STABLE)
  1419  0058  1283               	bcf	3,5	;RP0=0, select bank0
  1420  0059  1303               	bcf	3,6	;RP1=0, select bank0
  1421  005A  1986               	btfsc	6,3	;volatile
  1422  005B  285D               	goto	u2081
  1423  005C  285E               	goto	u2080
  1424  005D                     u2081:
  1425  005D  2886               	goto	l2575
  1426  005E                     u2080:
  1427  005E                     l2567:
  1428  005E  035C               	decf	flashDisplay@prev_status,w
  1429  005F  1D03               	btfss	3,2
  1430  0060  2862               	goto	u2091
  1431  0061  2863               	goto	u2090
  1432  0062                     u2091:
  1433  0062  2886               	goto	l2575
  1434  0063                     u2090:
  1435  0063                     l2569:
  1436                           
  1437                           ;main.c: 77:        {;main.c: 78:            if(TargetTempreture<75)
  1438  0063  085B               	movf	_TargetTempreture+1,w
  1439  0064  3A80               	xorlw	128
  1440  0065  00FF               	movwf	btemp+1
  1441  0066  3080               	movlw	128
  1442  0067  027F               	subwf	btemp+1,w
  1443  0068  1D03               	skipz
  1444  0069  286C               	goto	u2105
  1445  006A  304B               	movlw	75
  1446  006B  025A               	subwf	_TargetTempreture,w
  1447  006C                     u2105:
  1448  006C  1803               	skipnc
  1449  006D  286F               	goto	u2101
  1450  006E  2870               	goto	u2100
  1451  006F                     u2101:
  1452  006F  2886               	goto	l2575
  1453  0070                     u2100:
  1454  0070                     l2571:
  1455                           
  1456                           ;main.c: 79:            {;main.c: 80:                TargetTempreture += 5;
  1457  0070  3005               	movlw	5
  1458  0071  1283               	bcf	3,5	;RP0=0, select bank0
  1459  0072  1303               	bcf	3,6	;RP1=0, select bank0
  1460  0073  07DA               	addwf	_TargetTempreture,f
  1461  0074  1803               	skipnc
  1462  0075  0ADB               	incf	_TargetTempreture+1,f
  1463  0076  3000               	movlw	0
  1464  0077  07DB               	addwf	_TargetTempreture+1,f
  1465                           
  1466                           ;main.c: 81:            _delay((unsigned long)((10)*(8000000/4000.0)));
  1467  0078  301A               	movlw	26
  1468  0079  1283               	bcf	3,5	;RP0=0, select bank0
  1469  007A  1303               	bcf	3,6	;RP1=0, select bank0
  1470  007B  00BE               	movwf	??_flashDisplay+1
  1471  007C  30F7               	movlw	247
  1472  007D  00BD               	movwf	??_flashDisplay
  1473  007E                     u2257:
  1474  007E  0BBD               	decfsz	??_flashDisplay,f
  1475  007F  287E               	goto	u2257
  1476  0080  0BBE               	decfsz	??_flashDisplay+1,f
  1477  0081  287E               	goto	u2257
  1478  0082  2883               	nop2
  1479  0083                     l2573:
  1480                           
  1481                           ;main.c: 82:            prev_status=PREV_UN_STABLE;
  1482  0083  1283               	bcf	3,5	;RP0=0, select bank0
  1483  0084  1303               	bcf	3,6	;RP1=0, select bank0
  1484  0085  01DC               	clrf	flashDisplay@prev_status
  1485  0086                     l2575:
  1486                           
  1487                           ;main.c: 86:     if(PORTBbits.RB4==0&&prev_status==PREV_STABLE)
  1488  0086  1283               	bcf	3,5	;RP0=0, select bank0
  1489  0087  1303               	bcf	3,6	;RP1=0, select bank0
  1490  0088  1A06               	btfsc	6,4	;volatile
  1491  0089  288B               	goto	u2111
  1492  008A  288C               	goto	u2110
  1493  008B                     u2111:
  1494  008B  28B4               	goto	l2585
  1495  008C                     u2110:
  1496  008C                     l2577:
  1497  008C  035C               	decf	flashDisplay@prev_status,w
  1498  008D  1D03               	btfss	3,2
  1499  008E  2890               	goto	u2121
  1500  008F  2891               	goto	u2120
  1501  0090                     u2121:
  1502  0090  28B4               	goto	l2585
  1503  0091                     u2120:
  1504  0091                     l2579:
  1505                           
  1506                           ;main.c: 87:     {;main.c: 88:         if(TargetTempreture>35)
  1507  0091  085B               	movf	_TargetTempreture+1,w
  1508  0092  3A80               	xorlw	128
  1509  0093  00FF               	movwf	btemp+1
  1510  0094  3080               	movlw	128
  1511  0095  027F               	subwf	btemp+1,w
  1512  0096  1D03               	skipz
  1513  0097  289A               	goto	u2135
  1514  0098  3024               	movlw	36
  1515  0099  025A               	subwf	_TargetTempreture,w
  1516  009A                     u2135:
  1517  009A  1C03               	skipc
  1518  009B  289D               	goto	u2131
  1519  009C  289E               	goto	u2130
  1520  009D                     u2131:
  1521  009D  28B4               	goto	l2585
  1522  009E                     u2130:
  1523  009E                     l2581:
  1524                           
  1525                           ;main.c: 89:         {;main.c: 90:          TargetTempreture -= 5;
  1526  009E  30FB               	movlw	251
  1527  009F  1283               	bcf	3,5	;RP0=0, select bank0
  1528  00A0  1303               	bcf	3,6	;RP1=0, select bank0
  1529  00A1  07DA               	addwf	_TargetTempreture,f
  1530  00A2  1803               	skipnc
  1531  00A3  0ADB               	incf	_TargetTempreture+1,f
  1532  00A4  30FF               	movlw	255
  1533  00A5  07DB               	addwf	_TargetTempreture+1,f
  1534                           
  1535                           ;main.c: 91:         _delay((unsigned long)((10)*(8000000/4000.0)));
  1536  00A6  301A               	movlw	26
  1537  00A7  1283               	bcf	3,5	;RP0=0, select bank0
  1538  00A8  1303               	bcf	3,6	;RP1=0, select bank0
  1539  00A9  00BE               	movwf	??_flashDisplay+1
  1540  00AA  30F7               	movlw	247
  1541  00AB  00BD               	movwf	??_flashDisplay
  1542  00AC                     u2267:
  1543  00AC  0BBD               	decfsz	??_flashDisplay,f
  1544  00AD  28AC               	goto	u2267
  1545  00AE  0BBE               	decfsz	??_flashDisplay+1,f
  1546  00AF  28AC               	goto	u2267
  1547  00B0  28B1               	nop2
  1548  00B1                     l2583:
  1549                           
  1550                           ;main.c: 92:          prev_status=PREV_UN_STABLE;
  1551  00B1  1283               	bcf	3,5	;RP0=0, select bank0
  1552  00B2  1303               	bcf	3,6	;RP1=0, select bank0
  1553  00B3  01DC               	clrf	flashDisplay@prev_status
  1554  00B4                     l2585:
  1555                           
  1556                           ;main.c: 98:    }
  1557  00B4  3001               	movlw	1
  1558  00B5  1683               	bsf	3,5	;RP0=1, select bank1
  1559  00B6  1303               	bcf	3,6	;RP1=0, select bank1
  1560  00B7  07A0               	addwf	flashDisplay@i^(0+128),f
  1561  00B8  1803               	skipnc
  1562  00B9  0AA1               	incf	(flashDisplay@i+1)^(0+128),f
  1563  00BA  3000               	movlw	0
  1564  00BB  07A1               	addwf	(flashDisplay@i+1)^(0+128),f
  1565  00BC                     l2587:
  1566  00BC  0821               	movf	(flashDisplay@i+1)^(0+128),w
  1567  00BD  3A80               	xorlw	128
  1568  00BE  00FF               	movwf	btemp+1
  1569  00BF  3080               	movlw	128
  1570  00C0  027F               	subwf	btemp+1,w
  1571  00C1  1D03               	skipz
  1572  00C2  28C5               	goto	u2145
  1573  00C3  3019               	movlw	25
  1574  00C4  0220               	subwf	flashDisplay@i^(0+128),w
  1575  00C5                     u2145:
  1576  00C5  1C03               	skipc
  1577  00C6  28C8               	goto	u2141
  1578  00C7  28C9               	goto	u2140
  1579  00C8                     u2141:
  1580  00C8  2853               	goto	l2563
  1581  00C9                     u2140:
  1582  00C9                     l109:
  1583                           
  1584                           ;main.c: 99:     PORTAbits.RA4=0;
  1585  00C9  1283               	bcf	3,5	;RP0=0, select bank0
  1586  00CA  1303               	bcf	3,6	;RP1=0, select bank0
  1587  00CB  1205               	bcf	5,4	;volatile
  1588                           
  1589                           ;main.c: 100:     PORTAbits.RA5=0;
  1590  00CC  1285               	bcf	5,5	;volatile
  1591  00CD                     l2589:
  1592                           
  1593                           ;main.c: 103:       for(int i=0;i<25;i++)
  1594  00CD  1683               	bsf	3,5	;RP0=1, select bank1
  1595  00CE  1303               	bcf	3,6	;RP1=0, select bank1
  1596  00CF  01A2               	clrf	flashDisplay@i_172^(0+128)
  1597  00D0  01A3               	clrf	(flashDisplay@i_172+1)^(0+128)
  1598  00D1                     l2595:
  1599                           
  1600                           ;main.c: 104:    {;main.c: 105:        _delay((unsigned long)((20)*(8000000/4000.0)));
  1601  00D1  3034               	movlw	52
  1602  00D2  1283               	bcf	3,5	;RP0=0, select bank0
  1603  00D3  1303               	bcf	3,6	;RP1=0, select bank0
  1604  00D4  00BE               	movwf	??_flashDisplay+1
  1605  00D5  30F1               	movlw	241
  1606  00D6  00BD               	movwf	??_flashDisplay
  1607  00D7                     u2277:
  1608  00D7  0BBD               	decfsz	??_flashDisplay,f
  1609  00D8  28D7               	goto	u2277
  1610  00D9  0BBE               	decfsz	??_flashDisplay+1,f
  1611  00DA  28D7               	goto	u2277
  1612  00DB                     l2597:
  1613                           
  1614                           ;main.c: 106:        if(PORTBbits.RB3==0&&prev_status==PREV_STABLE)
  1615  00DB  1283               	bcf	3,5	;RP0=0, select bank0
  1616  00DC  1303               	bcf	3,6	;RP1=0, select bank0
  1617  00DD  1986               	btfsc	6,3	;volatile
  1618  00DE  28E0               	goto	u2151
  1619  00DF  28E1               	goto	u2150
  1620  00E0                     u2151:
  1621  00E0  2909               	goto	l2607
  1622  00E1                     u2150:
  1623  00E1                     l2599:
  1624  00E1  035C               	decf	flashDisplay@prev_status,w
  1625  00E2  1D03               	btfss	3,2
  1626  00E3  28E5               	goto	u2161
  1627  00E4  28E6               	goto	u2160
  1628  00E5                     u2161:
  1629  00E5  2909               	goto	l2607
  1630  00E6                     u2160:
  1631  00E6                     l2601:
  1632                           
  1633                           ;main.c: 107:        {;main.c: 108:            if(TargetTempreture<75)
  1634  00E6  085B               	movf	_TargetTempreture+1,w
  1635  00E7  3A80               	xorlw	128
  1636  00E8  00FF               	movwf	btemp+1
  1637  00E9  3080               	movlw	128
  1638  00EA  027F               	subwf	btemp+1,w
  1639  00EB  1D03               	skipz
  1640  00EC  28EF               	goto	u2175
  1641  00ED  304B               	movlw	75
  1642  00EE  025A               	subwf	_TargetTempreture,w
  1643  00EF                     u2175:
  1644  00EF  1803               	skipnc
  1645  00F0  28F2               	goto	u2171
  1646  00F1  28F3               	goto	u2170
  1647  00F2                     u2171:
  1648  00F2  2909               	goto	l2607
  1649  00F3                     u2170:
  1650  00F3                     l2603:
  1651                           
  1652                           ;main.c: 109:            {;main.c: 110:                TargetTempreture += 5;
  1653  00F3  3005               	movlw	5
  1654  00F4  1283               	bcf	3,5	;RP0=0, select bank0
  1655  00F5  1303               	bcf	3,6	;RP1=0, select bank0
  1656  00F6  07DA               	addwf	_TargetTempreture,f
  1657  00F7  1803               	skipnc
  1658  00F8  0ADB               	incf	_TargetTempreture+1,f
  1659  00F9  3000               	movlw	0
  1660  00FA  07DB               	addwf	_TargetTempreture+1,f
  1661                           
  1662                           ;main.c: 111:            _delay((unsigned long)((10)*(8000000/4000.0)));
  1663  00FB  301A               	movlw	26
  1664  00FC  1283               	bcf	3,5	;RP0=0, select bank0
  1665  00FD  1303               	bcf	3,6	;RP1=0, select bank0
  1666  00FE  00BE               	movwf	??_flashDisplay+1
  1667  00FF  30F7               	movlw	247
  1668  0100  00BD               	movwf	??_flashDisplay
  1669  0101                     u2287:
  1670  0101  0BBD               	decfsz	??_flashDisplay,f
  1671  0102  2901               	goto	u2287
  1672  0103  0BBE               	decfsz	??_flashDisplay+1,f
  1673  0104  2901               	goto	u2287
  1674  0105  2906               	nop2
  1675  0106                     l2605:
  1676                           
  1677                           ;main.c: 112:            prev_status=PREV_UN_STABLE;
  1678  0106  1283               	bcf	3,5	;RP0=0, select bank0
  1679  0107  1303               	bcf	3,6	;RP1=0, select bank0
  1680  0108  01DC               	clrf	flashDisplay@prev_status
  1681  0109                     l2607:
  1682                           
  1683                           ;main.c: 117:      if(PORTBbits.RB4==0&&prev_status==PREV_STABLE)
  1684  0109  1283               	bcf	3,5	;RP0=0, select bank0
  1685  010A  1303               	bcf	3,6	;RP1=0, select bank0
  1686  010B  1A06               	btfsc	6,4	;volatile
  1687  010C  290E               	goto	u2181
  1688  010D  290F               	goto	u2180
  1689  010E                     u2181:
  1690  010E  2937               	goto	l2617
  1691  010F                     u2180:
  1692  010F                     l2609:
  1693  010F  035C               	decf	flashDisplay@prev_status,w
  1694  0110  1D03               	btfss	3,2
  1695  0111  2913               	goto	u2191
  1696  0112  2914               	goto	u2190
  1697  0113                     u2191:
  1698  0113  2937               	goto	l2617
  1699  0114                     u2190:
  1700  0114                     l2611:
  1701                           
  1702                           ;main.c: 118:      {;main.c: 119:         if(TargetTempreture>35)
  1703  0114  085B               	movf	_TargetTempreture+1,w
  1704  0115  3A80               	xorlw	128
  1705  0116  00FF               	movwf	btemp+1
  1706  0117  3080               	movlw	128
  1707  0118  027F               	subwf	btemp+1,w
  1708  0119  1D03               	skipz
  1709  011A  291D               	goto	u2205
  1710  011B  3024               	movlw	36
  1711  011C  025A               	subwf	_TargetTempreture,w
  1712  011D                     u2205:
  1713  011D  1C03               	skipc
  1714  011E  2920               	goto	u2201
  1715  011F  2921               	goto	u2200
  1716  0120                     u2201:
  1717  0120  2937               	goto	l2617
  1718  0121                     u2200:
  1719  0121                     l2613:
  1720                           
  1721                           ;main.c: 120:         {;main.c: 121:          TargetTempreture -= 5;
  1722  0121  30FB               	movlw	251
  1723  0122  1283               	bcf	3,5	;RP0=0, select bank0
  1724  0123  1303               	bcf	3,6	;RP1=0, select bank0
  1725  0124  07DA               	addwf	_TargetTempreture,f
  1726  0125  1803               	skipnc
  1727  0126  0ADB               	incf	_TargetTempreture+1,f
  1728  0127  30FF               	movlw	255
  1729  0128  07DB               	addwf	_TargetTempreture+1,f
  1730                           
  1731                           ;main.c: 122:         _delay((unsigned long)((10)*(8000000/4000.0)));
  1732  0129  301A               	movlw	26
  1733  012A  1283               	bcf	3,5	;RP0=0, select bank0
  1734  012B  1303               	bcf	3,6	;RP1=0, select bank0
  1735  012C  00BE               	movwf	??_flashDisplay+1
  1736  012D  30F7               	movlw	247
  1737  012E  00BD               	movwf	??_flashDisplay
  1738  012F                     u2297:
  1739  012F  0BBD               	decfsz	??_flashDisplay,f
  1740  0130  292F               	goto	u2297
  1741  0131  0BBE               	decfsz	??_flashDisplay+1,f
  1742  0132  292F               	goto	u2297
  1743  0133  2934               	nop2
  1744  0134                     l2615:
  1745                           
  1746                           ;main.c: 123:          prev_status=PREV_UN_STABLE;
  1747  0134  1283               	bcf	3,5	;RP0=0, select bank0
  1748  0135  1303               	bcf	3,6	;RP1=0, select bank0
  1749  0136  01DC               	clrf	flashDisplay@prev_status
  1750  0137                     l2617:
  1751                           
  1752                           ;main.c: 127:    }
  1753  0137  3001               	movlw	1
  1754  0138  1683               	bsf	3,5	;RP0=1, select bank1
  1755  0139  1303               	bcf	3,6	;RP1=0, select bank1
  1756  013A  07A2               	addwf	flashDisplay@i_172^(0+128),f
  1757  013B  1803               	skipnc
  1758  013C  0AA3               	incf	(flashDisplay@i_172+1)^(0+128),f
  1759  013D  3000               	movlw	0
  1760  013E  07A3               	addwf	(flashDisplay@i_172+1)^(0+128),f
  1761  013F                     l2619:
  1762  013F  0823               	movf	(flashDisplay@i_172+1)^(0+128),w
  1763  0140  3A80               	xorlw	128
  1764  0141  00FF               	movwf	btemp+1
  1765  0142  3080               	movlw	128
  1766  0143  027F               	subwf	btemp+1,w
  1767  0144  1D03               	skipz
  1768  0145  2948               	goto	u2215
  1769  0146  3019               	movlw	25
  1770  0147  0222               	subwf	flashDisplay@i_172^(0+128),w
  1771  0148                     u2215:
  1772  0148  1C03               	skipc
  1773  0149  294B               	goto	u2211
  1774  014A  294C               	goto	u2210
  1775  014B                     u2211:
  1776  014B  28D1               	goto	l2595
  1777  014C                     u2210:
  1778  014C                     l106:
  1779  014C  0008               	return
  1780  014D                     __end_of_flashDisplay:
  1781                           
  1782                           	psect	text3
  1783  0406                     __ptext3:	
  1784 ;; *************** function _displayDeiredTempreture *****************
  1785 ;; Defined at:
  1786 ;;		line 278 in file "main.c"
  1787 ;; Parameters:    Size  Location     Type
  1788 ;;		None
  1789 ;; Auto vars:     Size  Location     Type
  1790 ;;  high            1   28[BANK0 ] unsigned char 
  1791 ;;  low             1   27[BANK0 ] unsigned char 
  1792 ;; Return value:  Size  Location     Type
  1793 ;;                  1    wreg      void 
  1794 ;; Registers used:
  1795 ;;		wreg, fsr0l, fsr0h, status,2, status,0, btemp+1, pclath, cstack
  1796 ;; Tracked objects:
  1797 ;;		On entry : 0/0
  1798 ;;		On exit  : 0/0
  1799 ;;		Unchanged: 0/0
  1800 ;; Data sizes:     COMMON   BANK0   BANK1   BANK3   BANK2
  1801 ;;      Params:         0       0       0       0       0
  1802 ;;      Locals:         0       2       0       0       0
  1803 ;;      Temps:          0       2       0       0       0
  1804 ;;      Totals:         0       4       0       0       0
  1805 ;;Total ram usage:        4 bytes
  1806 ;; Hardware stack levels used:    1
  1807 ;; Hardware stack levels required when called:    5
  1808 ;; This function calls:
  1809 ;;		___awdiv
  1810 ;;		___awmod
  1811 ;;		_lcd_writeNumber
  1812 ;; This function is called by:
  1813 ;;		_flashDisplay
  1814 ;; This function uses a non-reentrant model
  1815 ;;
  1816                           
  1817                           
  1818                           ;psect for function _displayDeiredTempreture
  1819  0406                     _displayDeiredTempreture:
  1820  0406                     l2525:	
  1821                           ;incstack = 0
  1822                           ; Regs used in _displayDeiredTempreture: [wreg-fsr0h+status,2+status,0+btemp+1+pclath+cs
      +                          tack]
  1823                           
  1824                           
  1825                           ;main.c: 280:     unsigned char low=TargetTempreture%10;
  1826  0406  300A               	movlw	10
  1827  0407  1283               	bcf	3,5	;RP0=0, select bank0
  1828  0408  1303               	bcf	3,6	;RP1=0, select bank0
  1829  0409  00B1               	movwf	___awmod@divisor
  1830  040A  3000               	movlw	0
  1831  040B  00B2               	movwf	___awmod@divisor+1
  1832  040C  085B               	movf	_TargetTempreture+1,w
  1833  040D  00B4               	movwf	___awmod@dividend+1
  1834  040E  085A               	movf	_TargetTempreture,w
  1835  040F  00B3               	movwf	___awmod@dividend
  1836  0410  120A  118A  22FB  120A  118A  	fcall	___awmod
  1837  0415  1283               	bcf	3,5	;RP0=0, select bank0
  1838  0416  1303               	bcf	3,6	;RP1=0, select bank0
  1839  0417  0831               	movf	?___awmod,w
  1840  0418  00FF               	movwf	btemp+1
  1841  0419  087F               	movf	btemp+1,w
  1842  041A  00BB               	movwf	displayDeiredTempreture@low
  1843                           
  1844                           ;main.c: 281:     unsigned char high=TargetTempreture/10;
  1845  041B  300A               	movlw	10
  1846  041C  00B1               	movwf	___awdiv@divisor
  1847  041D  3000               	movlw	0
  1848  041E  00B2               	movwf	___awdiv@divisor+1
  1849  041F  085B               	movf	_TargetTempreture+1,w
  1850  0420  00B4               	movwf	___awdiv@dividend+1
  1851  0421  085A               	movf	_TargetTempreture,w
  1852  0422  00B3               	movwf	___awdiv@dividend
  1853  0423  120A  118A  21C2  120A  118A  	fcall	___awdiv
  1854  0428  1283               	bcf	3,5	;RP0=0, select bank0
  1855  0429  1303               	bcf	3,6	;RP1=0, select bank0
  1856  042A  0831               	movf	?___awdiv,w
  1857  042B  00FF               	movwf	btemp+1
  1858  042C  087F               	movf	btemp+1,w
  1859  042D  00BC               	movwf	displayDeiredTempreture@high
  1860  042E                     l2527:
  1861                           
  1862                           ;main.c: 282:      PORTAbits.RA5=1;
  1863  042E  1685               	bsf	5,5	;volatile
  1864  042F                     l2529:
  1865                           
  1866                           ;main.c: 283:     lcd_writeNumber(low);
  1867  042F  083B               	movf	displayDeiredTempreture@low,w
  1868  0430  120A  118A  26DE  120A  118A  	fcall	_lcd_writeNumber
  1869  0435                     l2531:
  1870                           
  1871                           ;main.c: 284:     _delay((unsigned long)((10)*(8000000/4000.0)));
  1872  0435  301A               	movlw	26
  1873  0436  1283               	bcf	3,5	;RP0=0, select bank0
  1874  0437  1303               	bcf	3,6	;RP1=0, select bank0
  1875  0438  00BA               	movwf	??_displayDeiredTempreture+1
  1876  0439  30F7               	movlw	247
  1877  043A  00B9               	movwf	??_displayDeiredTempreture
  1878  043B                     u2307:
  1879  043B  0BB9               	decfsz	??_displayDeiredTempreture,f
  1880  043C  2C3B               	goto	u2307
  1881  043D  0BBA               	decfsz	??_displayDeiredTempreture+1,f
  1882  043E  2C3B               	goto	u2307
  1883  043F  2C40               	nop2
  1884  0440                     l2533:
  1885                           
  1886                           ;main.c: 285:     PORTAbits.RA5=0;
  1887  0440  1283               	bcf	3,5	;RP0=0, select bank0
  1888  0441  1303               	bcf	3,6	;RP1=0, select bank0
  1889  0442  1285               	bcf	5,5	;volatile
  1890  0443                     l2535:
  1891                           
  1892                           ;main.c: 286:    lcd_writeNumber(high);
  1893  0443  083C               	movf	displayDeiredTempreture@high,w
  1894  0444  120A  118A  26DE  120A  118A  	fcall	_lcd_writeNumber
  1895  0449                     l2537:
  1896                           
  1897                           ;main.c: 287:    PORTAbits.RA4=1;
  1898  0449  1283               	bcf	3,5	;RP0=0, select bank0
  1899  044A  1303               	bcf	3,6	;RP1=0, select bank0
  1900  044B  1605               	bsf	5,4	;volatile
  1901  044C                     l2539:
  1902                           
  1903                           ;main.c: 288:    _delay((unsigned long)((10)*(8000000/4000.0)));
  1904  044C  301A               	movlw	26
  1905  044D  1283               	bcf	3,5	;RP0=0, select bank0
  1906  044E  1303               	bcf	3,6	;RP1=0, select bank0
  1907  044F  00BA               	movwf	??_displayDeiredTempreture+1
  1908  0450  30F7               	movlw	247
  1909  0451  00B9               	movwf	??_displayDeiredTempreture
  1910  0452                     u2317:
  1911  0452  0BB9               	decfsz	??_displayDeiredTempreture,f
  1912  0453  2C52               	goto	u2317
  1913  0454  0BBA               	decfsz	??_displayDeiredTempreture+1,f
  1914  0455  2C52               	goto	u2317
  1915  0456  2C57               	nop2
  1916  0457                     l2541:
  1917                           
  1918                           ;main.c: 289:     PORTAbits.RA4=0;
  1919  0457  1283               	bcf	3,5	;RP0=0, select bank0
  1920  0458  1303               	bcf	3,6	;RP1=0, select bank0
  1921  0459  1205               	bcf	5,4	;volatile
  1922  045A                     l167:
  1923  045A  0008               	return
  1924  045B                     __end_of_displayDeiredTempreture:
  1925                           
  1926                           	psect	text4
  1927  02FB                     __ptext4:	
  1928 ;; *************** function ___awmod *****************
  1929 ;; Defined at:
  1930 ;;		line 5 in file "C:\Program Files\Microchip\xc8\v2.20\pic\sources\c90\common\awmod.c"
  1931 ;; Parameters:    Size  Location     Type
  1932 ;;  divisor         2   17[BANK0 ] int 
  1933 ;;  dividend        2   19[BANK0 ] int 
  1934 ;; Auto vars:     Size  Location     Type
  1935 ;;  sign            1   22[BANK0 ] unsigned char 
  1936 ;;  counter         1   21[BANK0 ] unsigned char 
  1937 ;; Return value:  Size  Location     Type
  1938 ;;                  2   17[BANK0 ] int 
  1939 ;; Registers used:
  1940 ;;		wreg, status,2, status,0, btemp+1
  1941 ;; Tracked objects:
  1942 ;;		On entry : 0/0
  1943 ;;		On exit  : 0/0
  1944 ;;		Unchanged: 0/0
  1945 ;; Data sizes:     COMMON   BANK0   BANK1   BANK3   BANK2
  1946 ;;      Params:         0       4       0       0       0
  1947 ;;      Locals:         0       2       0       0       0
  1948 ;;      Temps:          0       0       0       0       0
  1949 ;;      Totals:         0       6       0       0       0
  1950 ;;Total ram usage:        6 bytes
  1951 ;; Hardware stack levels used:    1
  1952 ;; Hardware stack levels required when called:    4
  1953 ;; This function calls:
  1954 ;;		Nothing
  1955 ;; This function is called by:
  1956 ;;		_displayDeiredTempreture
  1957 ;; This function uses a non-reentrant model
  1958 ;;
  1959                           
  1960                           
  1961                           ;psect for function ___awmod
  1962  02FB                     ___awmod:
  1963  02FB                     l2487:	
  1964                           ;incstack = 0
  1965                           ; Regs used in ___awmod: [wreg+status,2+status,0+btemp+1]
  1966                           
  1967  02FB  1283               	bcf	3,5	;RP0=0, select bank0
  1968  02FC  1303               	bcf	3,6	;RP1=0, select bank0
  1969  02FD  01B6               	clrf	___awmod@sign
  1970  02FE                     l2489:
  1971  02FE  1FB4               	btfss	___awmod@dividend+1,7
  1972  02FF  2B01               	goto	u1961
  1973  0300  2B02               	goto	u1960
  1974  0301                     u1961:
  1975  0301  2B09               	goto	l2495
  1976  0302                     u1960:
  1977  0302                     l2491:
  1978  0302  09B3               	comf	___awmod@dividend,f
  1979  0303  09B4               	comf	___awmod@dividend+1,f
  1980  0304  0AB3               	incf	___awmod@dividend,f
  1981  0305  1903               	skipnz
  1982  0306  0AB4               	incf	___awmod@dividend+1,f
  1983  0307                     l2493:
  1984  0307  01B6               	clrf	___awmod@sign
  1985  0308  0AB6               	incf	___awmod@sign,f
  1986  0309                     l2495:
  1987  0309  1FB2               	btfss	___awmod@divisor+1,7
  1988  030A  2B0C               	goto	u1971
  1989  030B  2B0D               	goto	u1970
  1990  030C                     u1971:
  1991  030C  2B12               	goto	l2499
  1992  030D                     u1970:
  1993  030D                     l2497:
  1994  030D  09B1               	comf	___awmod@divisor,f
  1995  030E  09B2               	comf	___awmod@divisor+1,f
  1996  030F  0AB1               	incf	___awmod@divisor,f
  1997  0310  1903               	skipnz
  1998  0311  0AB2               	incf	___awmod@divisor+1,f
  1999  0312                     l2499:
  2000  0312  0831               	movf	___awmod@divisor,w
  2001  0313  0432               	iorwf	___awmod@divisor+1,w
  2002  0314  1903               	btfsc	3,2
  2003  0315  2B17               	goto	u1981
  2004  0316  2B18               	goto	u1980
  2005  0317                     u1981:
  2006  0317  2B47               	goto	l2517
  2007  0318                     u1980:
  2008  0318                     l2501:
  2009  0318  01B5               	clrf	___awmod@counter
  2010  0319  0AB5               	incf	___awmod@counter,f
  2011  031A  2B26               	goto	l2507
  2012  031B                     l2503:
  2013  031B  3001               	movlw	1
  2014  031C                     u1995:
  2015  031C  1003               	clrc
  2016  031D  0DB1               	rlf	___awmod@divisor,f
  2017  031E  0DB2               	rlf	___awmod@divisor+1,f
  2018  031F  3EFF               	addlw	-1
  2019  0320  1D03               	skipz
  2020  0321  2B1C               	goto	u1995
  2021  0322                     l2505:
  2022  0322  3001               	movlw	1
  2023  0323  00FF               	movwf	btemp+1
  2024  0324  087F               	movf	btemp+1,w
  2025  0325  07B5               	addwf	___awmod@counter,f
  2026  0326                     l2507:
  2027  0326  1FB2               	btfss	___awmod@divisor+1,7
  2028  0327  2B29               	goto	u2001
  2029  0328  2B2A               	goto	u2000
  2030  0329                     u2001:
  2031  0329  2B1B               	goto	l2503
  2032  032A                     u2000:
  2033  032A                     l2509:
  2034  032A  0832               	movf	___awmod@divisor+1,w
  2035  032B  0234               	subwf	___awmod@dividend+1,w
  2036  032C  1D03               	skipz
  2037  032D  2B30               	goto	u2015
  2038  032E  0831               	movf	___awmod@divisor,w
  2039  032F  0233               	subwf	___awmod@dividend,w
  2040  0330                     u2015:
  2041  0330  1C03               	skipc
  2042  0331  2B33               	goto	u2011
  2043  0332  2B34               	goto	u2010
  2044  0333                     u2011:
  2045  0333  2B3A               	goto	l2513
  2046  0334                     u2010:
  2047  0334                     l2511:
  2048  0334  0831               	movf	___awmod@divisor,w
  2049  0335  02B3               	subwf	___awmod@dividend,f
  2050  0336  0832               	movf	___awmod@divisor+1,w
  2051  0337  1C03               	skipc
  2052  0338  03B4               	decf	___awmod@dividend+1,f
  2053  0339  02B4               	subwf	___awmod@dividend+1,f
  2054  033A                     l2513:
  2055  033A  3001               	movlw	1
  2056  033B                     u2025:
  2057  033B  1003               	clrc
  2058  033C  0CB2               	rrf	___awmod@divisor+1,f
  2059  033D  0CB1               	rrf	___awmod@divisor,f
  2060  033E  3EFF               	addlw	-1
  2061  033F  1D03               	skipz
  2062  0340  2B3B               	goto	u2025
  2063  0341                     l2515:
  2064  0341  3001               	movlw	1
  2065  0342  02B5               	subwf	___awmod@counter,f
  2066  0343  1D03               	btfss	3,2
  2067  0344  2B46               	goto	u2031
  2068  0345  2B47               	goto	u2030
  2069  0346                     u2031:
  2070  0346  2B2A               	goto	l2509
  2071  0347                     u2030:
  2072  0347                     l2517:
  2073  0347  0836               	movf	___awmod@sign,w
  2074  0348  1903               	btfsc	3,2
  2075  0349  2B4B               	goto	u2041
  2076  034A  2B4C               	goto	u2040
  2077  034B                     u2041:
  2078  034B  2B51               	goto	l2521
  2079  034C                     u2040:
  2080  034C                     l2519:
  2081  034C  09B3               	comf	___awmod@dividend,f
  2082  034D  09B4               	comf	___awmod@dividend+1,f
  2083  034E  0AB3               	incf	___awmod@dividend,f
  2084  034F  1903               	skipnz
  2085  0350  0AB4               	incf	___awmod@dividend+1,f
  2086  0351                     l2521:
  2087  0351  0834               	movf	___awmod@dividend+1,w
  2088  0352  00B2               	movwf	?___awmod+1
  2089  0353  0833               	movf	___awmod@dividend,w
  2090  0354  00B1               	movwf	?___awmod
  2091  0355                     l619:
  2092  0355  0008               	return
  2093  0356                     __end_of___awmod:
  2094                           
  2095                           	psect	text5
  2096  01C2                     __ptext5:	
  2097 ;; *************** function ___awdiv *****************
  2098 ;; Defined at:
  2099 ;;		line 5 in file "C:\Program Files\Microchip\xc8\v2.20\pic\sources\c90\common\awdiv.c"
  2100 ;; Parameters:    Size  Location     Type
  2101 ;;  divisor         2   17[BANK0 ] int 
  2102 ;;  dividend        2   19[BANK0 ] int 
  2103 ;; Auto vars:     Size  Location     Type
  2104 ;;  quotient        2   23[BANK0 ] int 
  2105 ;;  sign            1   22[BANK0 ] unsigned char 
  2106 ;;  counter         1   21[BANK0 ] unsigned char 
  2107 ;; Return value:  Size  Location     Type
  2108 ;;                  2   17[BANK0 ] int 
  2109 ;; Registers used:
  2110 ;;		wreg, status,2, status,0, btemp+1
  2111 ;; Tracked objects:
  2112 ;;		On entry : 0/0
  2113 ;;		On exit  : 0/0
  2114 ;;		Unchanged: 0/0
  2115 ;; Data sizes:     COMMON   BANK0   BANK1   BANK3   BANK2
  2116 ;;      Params:         0       4       0       0       0
  2117 ;;      Locals:         0       4       0       0       0
  2118 ;;      Temps:          0       0       0       0       0
  2119 ;;      Totals:         0       8       0       0       0
  2120 ;;Total ram usage:        8 bytes
  2121 ;; Hardware stack levels used:    1
  2122 ;; Hardware stack levels required when called:    4
  2123 ;; This function calls:
  2124 ;;		Nothing
  2125 ;; This function is called by:
  2126 ;;		_displayDeiredTempreture
  2127 ;; This function uses a non-reentrant model
  2128 ;;
  2129                           
  2130                           
  2131                           ;psect for function ___awdiv
  2132  01C2                     ___awdiv:
  2133  01C2                     l2443:	
  2134                           ;incstack = 0
  2135                           ; Regs used in ___awdiv: [wreg+status,2+status,0+btemp+1]
  2136                           
  2137  01C2  1283               	bcf	3,5	;RP0=0, select bank0
  2138  01C3  1303               	bcf	3,6	;RP1=0, select bank0
  2139  01C4  01B6               	clrf	___awdiv@sign
  2140  01C5                     l2445:
  2141  01C5  1FB2               	btfss	___awdiv@divisor+1,7
  2142  01C6  29C8               	goto	u1861
  2143  01C7  29C9               	goto	u1860
  2144  01C8                     u1861:
  2145  01C8  29D0               	goto	l2451
  2146  01C9                     u1860:
  2147  01C9                     l2447:
  2148  01C9  09B1               	comf	___awdiv@divisor,f
  2149  01CA  09B2               	comf	___awdiv@divisor+1,f
  2150  01CB  0AB1               	incf	___awdiv@divisor,f
  2151  01CC  1903               	skipnz
  2152  01CD  0AB2               	incf	___awdiv@divisor+1,f
  2153  01CE                     l2449:
  2154  01CE  01B6               	clrf	___awdiv@sign
  2155  01CF  0AB6               	incf	___awdiv@sign,f
  2156  01D0                     l2451:
  2157  01D0  1FB4               	btfss	___awdiv@dividend+1,7
  2158  01D1  29D3               	goto	u1871
  2159  01D2  29D4               	goto	u1870
  2160  01D3                     u1871:
  2161  01D3  29DD               	goto	l2457
  2162  01D4                     u1870:
  2163  01D4                     l2453:
  2164  01D4  09B3               	comf	___awdiv@dividend,f
  2165  01D5  09B4               	comf	___awdiv@dividend+1,f
  2166  01D6  0AB3               	incf	___awdiv@dividend,f
  2167  01D7  1903               	skipnz
  2168  01D8  0AB4               	incf	___awdiv@dividend+1,f
  2169  01D9                     l2455:
  2170  01D9  3001               	movlw	1
  2171  01DA  00FF               	movwf	btemp+1
  2172  01DB  087F               	movf	btemp+1,w
  2173  01DC  06B6               	xorwf	___awdiv@sign,f
  2174  01DD                     l2457:
  2175  01DD  01B7               	clrf	___awdiv@quotient
  2176  01DE  01B8               	clrf	___awdiv@quotient+1
  2177  01DF                     l2459:
  2178  01DF  0831               	movf	___awdiv@divisor,w
  2179  01E0  0432               	iorwf	___awdiv@divisor+1,w
  2180  01E1  1903               	btfsc	3,2
  2181  01E2  29E4               	goto	u1881
  2182  01E3  29E5               	goto	u1880
  2183  01E4                     u1881:
  2184  01E4  2A1C               	goto	l2479
  2185  01E5                     u1880:
  2186  01E5                     l2461:
  2187  01E5  01B5               	clrf	___awdiv@counter
  2188  01E6  0AB5               	incf	___awdiv@counter,f
  2189  01E7  29F3               	goto	l2467
  2190  01E8                     l2463:
  2191  01E8  3001               	movlw	1
  2192  01E9                     u1895:
  2193  01E9  1003               	clrc
  2194  01EA  0DB1               	rlf	___awdiv@divisor,f
  2195  01EB  0DB2               	rlf	___awdiv@divisor+1,f
  2196  01EC  3EFF               	addlw	-1
  2197  01ED  1D03               	skipz
  2198  01EE  29E9               	goto	u1895
  2199  01EF                     l2465:
  2200  01EF  3001               	movlw	1
  2201  01F0  00FF               	movwf	btemp+1
  2202  01F1  087F               	movf	btemp+1,w
  2203  01F2  07B5               	addwf	___awdiv@counter,f
  2204  01F3                     l2467:
  2205  01F3  1FB2               	btfss	___awdiv@divisor+1,7
  2206  01F4  29F6               	goto	u1901
  2207  01F5  29F7               	goto	u1900
  2208  01F6                     u1901:
  2209  01F6  29E8               	goto	l2463
  2210  01F7                     u1900:
  2211  01F7                     l2469:
  2212  01F7  3001               	movlw	1
  2213  01F8                     u1915:
  2214  01F8  1003               	clrc
  2215  01F9  0DB7               	rlf	___awdiv@quotient,f
  2216  01FA  0DB8               	rlf	___awdiv@quotient+1,f
  2217  01FB  3EFF               	addlw	-1
  2218  01FC  1D03               	skipz
  2219  01FD  29F8               	goto	u1915
  2220  01FE  0832               	movf	___awdiv@divisor+1,w
  2221  01FF  0234               	subwf	___awdiv@dividend+1,w
  2222  0200  1D03               	skipz
  2223  0201  2A04               	goto	u1925
  2224  0202  0831               	movf	___awdiv@divisor,w
  2225  0203  0233               	subwf	___awdiv@dividend,w
  2226  0204                     u1925:
  2227  0204  1C03               	skipc
  2228  0205  2A07               	goto	u1921
  2229  0206  2A08               	goto	u1920
  2230  0207                     u1921:
  2231  0207  2A0F               	goto	l2475
  2232  0208                     u1920:
  2233  0208                     l2471:
  2234  0208  0831               	movf	___awdiv@divisor,w
  2235  0209  02B3               	subwf	___awdiv@dividend,f
  2236  020A  0832               	movf	___awdiv@divisor+1,w
  2237  020B  1C03               	skipc
  2238  020C  03B4               	decf	___awdiv@dividend+1,f
  2239  020D  02B4               	subwf	___awdiv@dividend+1,f
  2240  020E                     l2473:
  2241  020E  1437               	bsf	___awdiv@quotient,0
  2242  020F                     l2475:
  2243  020F  3001               	movlw	1
  2244  0210                     u1935:
  2245  0210  1003               	clrc
  2246  0211  0CB2               	rrf	___awdiv@divisor+1,f
  2247  0212  0CB1               	rrf	___awdiv@divisor,f
  2248  0213  3EFF               	addlw	-1
  2249  0214  1D03               	skipz
  2250  0215  2A10               	goto	u1935
  2251  0216                     l2477:
  2252  0216  3001               	movlw	1
  2253  0217  02B5               	subwf	___awdiv@counter,f
  2254  0218  1D03               	btfss	3,2
  2255  0219  2A1B               	goto	u1941
  2256  021A  2A1C               	goto	u1940
  2257  021B                     u1941:
  2258  021B  29F7               	goto	l2469
  2259  021C                     u1940:
  2260  021C                     l2479:
  2261  021C  0836               	movf	___awdiv@sign,w
  2262  021D  1903               	btfsc	3,2
  2263  021E  2A20               	goto	u1951
  2264  021F  2A21               	goto	u1950
  2265  0220                     u1951:
  2266  0220  2A26               	goto	l2483
  2267  0221                     u1950:
  2268  0221                     l2481:
  2269  0221  09B7               	comf	___awdiv@quotient,f
  2270  0222  09B8               	comf	___awdiv@quotient+1,f
  2271  0223  0AB7               	incf	___awdiv@quotient,f
  2272  0224  1903               	skipnz
  2273  0225  0AB8               	incf	___awdiv@quotient+1,f
  2274  0226                     l2483:
  2275  0226  0838               	movf	___awdiv@quotient+1,w
  2276  0227  00B2               	movwf	?___awdiv+1
  2277  0228  0837               	movf	___awdiv@quotient,w
  2278  0229  00B1               	movwf	?___awdiv
  2279  022A                     l606:
  2280  022A  0008               	return
  2281  022B                     __end_of___awdiv:
  2282                           
  2283                           	psect	text6
  2284  05CE                     __ptext6:	
  2285 ;; *************** function _on_state *****************
  2286 ;; Defined at:
  2287 ;;		line 166 in file "main.c"
  2288 ;; Parameters:    Size  Location     Type
  2289 ;;		None
  2290 ;; Auto vars:     Size  Location     Type
  2291 ;;		None
  2292 ;; Return value:  Size  Location     Type
  2293 ;;                  1    wreg      void 
  2294 ;; Registers used:
  2295 ;;		wreg, fsr0l, fsr0h, status,2, status,0, btemp+1, pclath, cstack
  2296 ;; Tracked objects:
  2297 ;;		On entry : 0/0
  2298 ;;		On exit  : 0/0
  2299 ;;		Unchanged: 0/0
  2300 ;; Data sizes:     COMMON   BANK0   BANK1   BANK3   BANK2
  2301 ;;      Params:         0       0       0       0       0
  2302 ;;      Locals:         0       0       0       0       0
  2303 ;;      Temps:          0       2       0       0       0
  2304 ;;      Totals:         0       2       0       0       0
  2305 ;;Total ram usage:        2 bytes
  2306 ;; Hardware stack levels used:    1
  2307 ;; Hardware stack levels required when called:    6
  2308 ;; This function calls:
  2309 ;;		_changeStatus
  2310 ;;		_coolerOn
  2311 ;;		_displayTempreture
  2312 ;;		_heaterOn
  2313 ;; This function is called by:
  2314 ;;		_main
  2315 ;; This function uses a non-reentrant model
  2316 ;;
  2317                           
  2318                           
  2319                           ;psect for function _on_state
  2320  05CE                     _on_state:
  2321  05CE                     l2639:	
  2322                           ;incstack = 0
  2323                           ; Regs used in _on_state: [wreg-fsr0h+status,2+status,0+btemp+1+pclath+cstack]
  2324                           
  2325                           
  2326                           ;main.c: 168:     TMR1ON = 1;
  2327  05CE  1283               	bcf	3,5	;RP0=0, select bank0
  2328  05CF  1303               	bcf	3,6	;RP1=0, select bank0
  2329  05D0  1410               	bsf	16,0	;volatile
  2330                           
  2331                           ;main.c: 169:     if(PORTBbits.RB3==0||PORTBbits.RB4==0)
  2332  05D1  1D86               	btfss	6,3	;volatile
  2333  05D2  2DD4               	goto	u2221
  2334  05D3  2DD5               	goto	u2220
  2335  05D4                     u2221:
  2336  05D4  2DD9               	goto	l2643
  2337  05D5                     u2220:
  2338  05D5                     l2641:
  2339  05D5  1A06               	btfsc	6,4	;volatile
  2340  05D6  2DD8               	goto	u2231
  2341  05D7  2DD9               	goto	u2230
  2342  05D8                     u2231:
  2343  05D8  2DDE               	goto	l2647
  2344  05D9                     u2230:
  2345  05D9                     l2643:
  2346                           
  2347                           ;main.c: 170:     {;main.c: 171:         state=SETTING_STATE;
  2348  05D9  3002               	movlw	2
  2349  05DA  00FF               	movwf	btemp+1
  2350  05DB  087F               	movf	btemp+1,w
  2351  05DC  00DE               	movwf	_state
  2352  05DD  2E0A               	goto	l138
  2353  05DE                     l2647:
  2354                           
  2355                           ;main.c: 174:     displayTempreture();
  2356  05DE  120A  118A  245B  120A  118A  	fcall	_displayTempreture
  2357  05E3                     l2649:
  2358                           
  2359                           ;main.c: 175:     changeStatus();
  2360  05E3  120A  118A  2681  120A  118A  	fcall	_changeStatus
  2361                           
  2362                           ;main.c: 177:     switch (temp_state)
  2363  05E8  2DF5               	goto	l2657
  2364  05E9                     l2651:
  2365                           
  2366                           ;main.c: 182:         heaterOn();
  2367  05E9  120A  118A  2740  120A  118A  	fcall	_heaterOn
  2368                           
  2369                           ;main.c: 183:         break;
  2370  05EE  2E0A               	goto	l138
  2371  05EF                     l2653:
  2372                           
  2373                           ;main.c: 185:         coolerOn();
  2374  05EF  120A  118A  2745  120A  118A  	fcall	_coolerOn
  2375                           
  2376                           ;main.c: 186:         break;
  2377  05F4  2E0A               	goto	l138
  2378  05F5                     l2657:
  2379  05F5  1283               	bcf	3,5	;RP0=0, select bank0
  2380  05F6  1303               	bcf	3,6	;RP1=0, select bank0
  2381  05F7  0849               	movf	_temp_state,w
  2382  05F8  00BC               	movwf	??_on_state
  2383  05F9  01BD               	clrf	??_on_state+1
  2384                           
  2385                           ; Switch on 2 bytes has been partitioned into a top level switch of size 1, and 1 sub-sw
      +                          itches
  2386                           ; Switch size 1, requested type "simple"
  2387                           ; Number of cases is 1, Range of values is 0 to 0
  2388                           ; switch strategies available:
  2389                           ; Name         Instructions Cycles
  2390                           ; simple_byte            4     3 (average)
  2391                           ; direct_byte           11     8 (fixed)
  2392                           ; jumptable            260     6 (fixed)
  2393                           ;	Chosen strategy is simple_byte
  2394  05FA  083D               	movf	??_on_state+1,w
  2395  05FB  3A00               	xorlw	0	; case 0
  2396  05FC  1903               	skipnz
  2397  05FD  2DFF               	goto	l2843
  2398  05FE  2E0A               	goto	l138
  2399  05FF                     l2843:
  2400                           
  2401                           ; Switch size 1, requested type "simple"
  2402                           ; Number of cases is 3, Range of values is 0 to 2
  2403                           ; switch strategies available:
  2404                           ; Name         Instructions Cycles
  2405                           ; simple_byte           10     6 (average)
  2406                           ; direct_byte           17     8 (fixed)
  2407                           ; jumptable            260     6 (fixed)
  2408                           ;	Chosen strategy is simple_byte
  2409  05FF  083C               	movf	??_on_state,w
  2410  0600  3A00               	xorlw	0	; case 0
  2411  0601  1903               	skipnz
  2412  0602  2E0A               	goto	l138
  2413  0603  3A01               	xorlw	1	; case 1
  2414  0604  1903               	skipnz
  2415  0605  2DE9               	goto	l2651
  2416  0606  3A03               	xorlw	3	; case 2
  2417  0607  1903               	skipnz
  2418  0608  2DEF               	goto	l2653
  2419  0609  2E0A               	goto	l138
  2420  060A                     l138:
  2421  060A  0008               	return
  2422  060B                     __end_of_on_state:
  2423                           
  2424                           	psect	text7
  2425  0740                     __ptext7:	
  2426 ;; *************** function _heaterOn *****************
  2427 ;; Defined at:
  2428 ;;		line 152 in file "main.c"
  2429 ;; Parameters:    Size  Location     Type
  2430 ;;		None
  2431 ;; Auto vars:     Size  Location     Type
  2432 ;;		None
  2433 ;; Return value:  Size  Location     Type
  2434 ;;                  1    wreg      void 
  2435 ;; Registers used:
  2436 ;;		None
  2437 ;; Tracked objects:
  2438 ;;		On entry : 0/0
  2439 ;;		On exit  : 0/0
  2440 ;;		Unchanged: 0/0
  2441 ;; Data sizes:     COMMON   BANK0   BANK1   BANK3   BANK2
  2442 ;;      Params:         0       0       0       0       0
  2443 ;;      Locals:         0       0       0       0       0
  2444 ;;      Temps:          0       0       0       0       0
  2445 ;;      Totals:         0       0       0       0       0
  2446 ;;Total ram usage:        0 bytes
  2447 ;; Hardware stack levels used:    1
  2448 ;; Hardware stack levels required when called:    4
  2449 ;; This function calls:
  2450 ;;		Nothing
  2451 ;; This function is called by:
  2452 ;;		_on_state
  2453 ;; This function uses a non-reentrant model
  2454 ;;
  2455                           
  2456                           
  2457                           ;psect for function _heaterOn
  2458  0740                     _heaterOn:
  2459  0740                     l2083:	
  2460                           ;incstack = 0
  2461                           ; Regs used in _heaterOn: []
  2462                           
  2463                           
  2464                           ;main.c: 154:     RC2=0;
  2465  0740  1283               	bcf	3,5	;RP0=0, select bank0
  2466  0741  1303               	bcf	3,6	;RP1=0, select bank0
  2467  0742  1107               	bcf	7,2	;volatile
  2468                           
  2469                           ;main.c: 155:     RC5=1;
  2470  0743  1687               	bsf	7,5	;volatile
  2471  0744                     l129:
  2472  0744  0008               	return
  2473  0745                     __end_of_heaterOn:
  2474                           
  2475                           	psect	text8
  2476  045B                     __ptext8:	
  2477 ;; *************** function _displayTempreture *****************
  2478 ;; Defined at:
  2479 ;;		line 264 in file "main.c"
  2480 ;; Parameters:    Size  Location     Type
  2481 ;;		None
  2482 ;; Auto vars:     Size  Location     Type
  2483 ;;  high            1   27[BANK0 ] unsigned char 
  2484 ;;  low             1   26[BANK0 ] unsigned char 
  2485 ;; Return value:  Size  Location     Type
  2486 ;;                  1    wreg      void 
  2487 ;; Registers used:
  2488 ;;		wreg, fsr0l, fsr0h, status,2, status,0, btemp+1, pclath, cstack
  2489 ;; Tracked objects:
  2490 ;;		On entry : 0/0
  2491 ;;		On exit  : 0/0
  2492 ;;		Unchanged: 0/0
  2493 ;; Data sizes:     COMMON   BANK0   BANK1   BANK3   BANK2
  2494 ;;      Params:         0       0       0       0       0
  2495 ;;      Locals:         0       2       0       0       0
  2496 ;;      Temps:          0       2       0       0       0
  2497 ;;      Totals:         0       4       0       0       0
  2498 ;;Total ram usage:        4 bytes
  2499 ;; Hardware stack levels used:    1
  2500 ;; Hardware stack levels required when called:    5
  2501 ;; This function calls:
  2502 ;;		___lwdiv
  2503 ;;		___lwmod
  2504 ;;		_lcd_writeNumber
  2505 ;; This function is called by:
  2506 ;;		_on_state
  2507 ;; This function uses a non-reentrant model
  2508 ;;
  2509                           
  2510                           
  2511                           ;psect for function _displayTempreture
  2512  045B                     _displayTempreture:
  2513  045B                     l2621:	
  2514                           ;incstack = 0
  2515                           ; Regs used in _displayTempreture: [wreg-fsr0h+status,2+status,0+btemp+1+pclath+cstack]
  2516                           
  2517                           
  2518                           ;main.c: 266:     unsigned char low=TEMPRETURE%10;
  2519  045B  300A               	movlw	10
  2520  045C  1283               	bcf	3,5	;RP0=0, select bank0
  2521  045D  1303               	bcf	3,6	;RP1=0, select bank0
  2522  045E  00B1               	movwf	___lwmod@divisor
  2523  045F  3000               	movlw	0
  2524  0460  00B2               	movwf	___lwmod@divisor+1
  2525  0461  0844               	movf	_TEMPRETURE+1,w
  2526  0462  00B4               	movwf	___lwmod@dividend+1
  2527  0463  0843               	movf	_TEMPRETURE,w
  2528  0464  00B3               	movwf	___lwmod@dividend
  2529  0465  120A  118A  260B  120A  118A  	fcall	___lwmod
  2530  046A  1283               	bcf	3,5	;RP0=0, select bank0
  2531  046B  1303               	bcf	3,6	;RP1=0, select bank0
  2532  046C  0831               	movf	?___lwmod,w
  2533  046D  00FF               	movwf	btemp+1
  2534  046E  087F               	movf	btemp+1,w
  2535  046F  00BA               	movwf	displayTempreture@low
  2536                           
  2537                           ;main.c: 267:     unsigned char high=TEMPRETURE/10;
  2538  0470  300A               	movlw	10
  2539  0471  00B1               	movwf	___lwdiv@divisor
  2540  0472  3000               	movlw	0
  2541  0473  00B2               	movwf	___lwdiv@divisor+1
  2542  0474  0844               	movf	_TEMPRETURE+1,w
  2543  0475  00B4               	movwf	___lwdiv@dividend+1
  2544  0476  0843               	movf	_TEMPRETURE,w
  2545  0477  00B3               	movwf	___lwdiv@dividend
  2546  0478  120A  118A  24FE  120A  118A  	fcall	___lwdiv
  2547  047D  1283               	bcf	3,5	;RP0=0, select bank0
  2548  047E  1303               	bcf	3,6	;RP1=0, select bank0
  2549  047F  0831               	movf	?___lwdiv,w
  2550  0480  00FF               	movwf	btemp+1
  2551  0481  087F               	movf	btemp+1,w
  2552  0482  00BB               	movwf	displayTempreture@high
  2553  0483                     l2623:
  2554                           
  2555                           ;main.c: 268:      PORTAbits.RA5=1;
  2556  0483  1685               	bsf	5,5	;volatile
  2557  0484                     l2625:
  2558                           
  2559                           ;main.c: 269:     lcd_writeNumber(low);
  2560  0484  083A               	movf	displayTempreture@low,w
  2561  0485  120A  118A  26DE  120A  118A  	fcall	_lcd_writeNumber
  2562  048A                     l2627:
  2563                           
  2564                           ;main.c: 270:     _delay((unsigned long)((10)*(8000000/4000.0)));
  2565  048A  301A               	movlw	26
  2566  048B  1283               	bcf	3,5	;RP0=0, select bank0
  2567  048C  1303               	bcf	3,6	;RP1=0, select bank0
  2568  048D  00B9               	movwf	??_displayTempreture+1
  2569  048E  30F7               	movlw	247
  2570  048F  00B8               	movwf	??_displayTempreture
  2571  0490                     u2327:
  2572  0490  0BB8               	decfsz	??_displayTempreture,f
  2573  0491  2C90               	goto	u2327
  2574  0492  0BB9               	decfsz	??_displayTempreture+1,f
  2575  0493  2C90               	goto	u2327
  2576  0494  2C95               	nop2
  2577  0495                     l2629:
  2578                           
  2579                           ;main.c: 271:     PORTAbits.RA5=0;
  2580  0495  1283               	bcf	3,5	;RP0=0, select bank0
  2581  0496  1303               	bcf	3,6	;RP1=0, select bank0
  2582  0497  1285               	bcf	5,5	;volatile
  2583  0498                     l2631:
  2584                           
  2585                           ;main.c: 272:    lcd_writeNumber(high);
  2586  0498  083B               	movf	displayTempreture@high,w
  2587  0499  120A  118A  26DE  120A  118A  	fcall	_lcd_writeNumber
  2588  049E                     l2633:
  2589                           
  2590                           ;main.c: 273:    PORTAbits.RA4=1;
  2591  049E  1283               	bcf	3,5	;RP0=0, select bank0
  2592  049F  1303               	bcf	3,6	;RP1=0, select bank0
  2593  04A0  1605               	bsf	5,4	;volatile
  2594  04A1                     l2635:
  2595                           
  2596                           ;main.c: 274:    _delay((unsigned long)((10)*(8000000/4000.0)));
  2597  04A1  301A               	movlw	26
  2598  04A2  1283               	bcf	3,5	;RP0=0, select bank0
  2599  04A3  1303               	bcf	3,6	;RP1=0, select bank0
  2600  04A4  00B9               	movwf	??_displayTempreture+1
  2601  04A5  30F7               	movlw	247
  2602  04A6  00B8               	movwf	??_displayTempreture
  2603  04A7                     u2337:
  2604  04A7  0BB8               	decfsz	??_displayTempreture,f
  2605  04A8  2CA7               	goto	u2337
  2606  04A9  0BB9               	decfsz	??_displayTempreture+1,f
  2607  04AA  2CA7               	goto	u2337
  2608  04AB  2CAC               	nop2
  2609  04AC                     l2637:
  2610                           
  2611                           ;main.c: 275:     PORTAbits.RA4=0;
  2612  04AC  1283               	bcf	3,5	;RP0=0, select bank0
  2613  04AD  1303               	bcf	3,6	;RP1=0, select bank0
  2614  04AE  1205               	bcf	5,4	;volatile
  2615  04AF                     l164:
  2616  04AF  0008               	return
  2617  04B0                     __end_of_displayTempreture:
  2618                           
  2619                           	psect	text9
  2620  06DE                     __ptext9:	
  2621 ;; *************** function _lcd_writeNumber *****************
  2622 ;; Defined at:
  2623 ;;		line 7 in file "seven_segment.c"
  2624 ;; Parameters:    Size  Location     Type
  2625 ;;  number          1    wreg     unsigned char 
  2626 ;; Auto vars:     Size  Location     Type
  2627 ;;  number          1   18[BANK0 ] unsigned char 
  2628 ;;  code            1   17[BANK0 ] unsigned char 
  2629 ;; Return value:  Size  Location     Type
  2630 ;;                  1    wreg      void 
  2631 ;; Registers used:
  2632 ;;		wreg, fsr0l, fsr0h, status,2, status,0, btemp+1
  2633 ;; Tracked objects:
  2634 ;;		On entry : 0/0
  2635 ;;		On exit  : 0/0
  2636 ;;		Unchanged: 0/0
  2637 ;; Data sizes:     COMMON   BANK0   BANK1   BANK3   BANK2
  2638 ;;      Params:         0       0       0       0       0
  2639 ;;      Locals:         0       2       0       0       0
  2640 ;;      Temps:          0       0       0       0       0
  2641 ;;      Totals:         0       2       0       0       0
  2642 ;;Total ram usage:        2 bytes
  2643 ;; Hardware stack levels used:    1
  2644 ;; Hardware stack levels required when called:    4
  2645 ;; This function calls:
  2646 ;;		Nothing
  2647 ;; This function is called by:
  2648 ;;		_displayTempreture
  2649 ;;		_displayDeiredTempreture
  2650 ;; This function uses a non-reentrant model
  2651 ;;
  2652                           
  2653                           
  2654                           ;psect for function _lcd_writeNumber
  2655  06DE                     _lcd_writeNumber:
  2656                           
  2657                           ;incstack = 0
  2658                           ; Regs used in _lcd_writeNumber: [wreg-fsr0h+status,2+status,0+btemp+1]
  2659                           ;lcd_writeNumber@number stored from wreg
  2660  06DE  1283               	bcf	3,5	;RP0=0, select bank0
  2661  06DF  1303               	bcf	3,6	;RP1=0, select bank0
  2662  06E0  00B2               	movwf	lcd_writeNumber@number
  2663  06E1                     l2435:
  2664                           
  2665                           ;seven_segment.c: 7: void lcd_writeNumber(unsigned char number);seven_segment.c: 8: {;se
      +                          ven_segment.c: 9:     if(number>=0 && number<10 )
  2666  06E1  300A               	movlw	10
  2667  06E2  0232               	subwf	lcd_writeNumber@number,w
  2668  06E3  1803               	skipnc
  2669  06E4  2EE6               	goto	u1851
  2670  06E5  2EE7               	goto	u1850
  2671  06E6                     u1851:
  2672  06E6  2EF2               	goto	l2441
  2673  06E7                     u1850:
  2674  06E7                     l2437:
  2675                           
  2676                           ;seven_segment.c: 10:     {;seven_segment.c: 11:         unsigned char code=segments_cod
      +                          e[number];
  2677  06E7  0832               	movf	lcd_writeNumber@number,w
  2678  06E8  3E50               	addlw	(low (_segments_code| 0))& (0+255)
  2679  06E9  0084               	movwf	4
  2680  06EA  1383               	bcf	3,7	;select IRP bank0
  2681  06EB  0800               	movf	0,w
  2682  06EC  00FF               	movwf	btemp+1
  2683  06ED  087F               	movf	btemp+1,w
  2684  06EE  00B1               	movwf	lcd_writeNumber@code
  2685  06EF                     l2439:
  2686                           
  2687                           ;seven_segment.c: 12:         PORTD=code;
  2688  06EF  0831               	movf	lcd_writeNumber@code,w
  2689  06F0  0088               	movwf	8	;volatile
  2690                           
  2691                           ;seven_segment.c: 13:     }
  2692  06F1  2EF3               	goto	l274
  2693  06F2                     l2441:
  2694                           
  2695                           ;seven_segment.c: 15:         PORTD=0;
  2696  06F2  0188               	clrf	8	;volatile
  2697  06F3                     l274:
  2698  06F3  0008               	return
  2699  06F4                     __end_of_lcd_writeNumber:
  2700                           
  2701                           	psect	text10
  2702  060B                     __ptext10:	
  2703 ;; *************** function ___lwmod *****************
  2704 ;; Defined at:
  2705 ;;		line 5 in file "C:\Program Files\Microchip\xc8\v2.20\pic\sources\c90\common\lwmod.c"
  2706 ;; Parameters:    Size  Location     Type
  2707 ;;  divisor         2   17[BANK0 ] unsigned int 
  2708 ;;  dividend        2   19[BANK0 ] unsigned int 
  2709 ;; Auto vars:     Size  Location     Type
  2710 ;;  counter         1   21[BANK0 ] unsigned char 
  2711 ;; Return value:  Size  Location     Type
  2712 ;;                  2   17[BANK0 ] unsigned int 
  2713 ;; Registers used:
  2714 ;;		wreg, status,2, status,0, btemp+1
  2715 ;; Tracked objects:
  2716 ;;		On entry : 0/0
  2717 ;;		On exit  : 0/0
  2718 ;;		Unchanged: 0/0
  2719 ;; Data sizes:     COMMON   BANK0   BANK1   BANK3   BANK2
  2720 ;;      Params:         0       4       0       0       0
  2721 ;;      Locals:         0       1       0       0       0
  2722 ;;      Temps:          0       0       0       0       0
  2723 ;;      Totals:         0       5       0       0       0
  2724 ;;Total ram usage:        5 bytes
  2725 ;; Hardware stack levels used:    1
  2726 ;; Hardware stack levels required when called:    4
  2727 ;; This function calls:
  2728 ;;		Nothing
  2729 ;; This function is called by:
  2730 ;;		_displayTempreture
  2731 ;; This function uses a non-reentrant model
  2732 ;;
  2733                           
  2734                           
  2735                           ;psect for function ___lwmod
  2736  060B                     ___lwmod:
  2737  060B                     l1915:	
  2738                           ;incstack = 0
  2739                           ; Regs used in ___lwmod: [wreg+status,2+status,0+btemp+1]
  2740                           
  2741  060B  1283               	bcf	3,5	;RP0=0, select bank0
  2742  060C  1303               	bcf	3,6	;RP1=0, select bank0
  2743  060D  0831               	movf	___lwmod@divisor,w
  2744  060E  0432               	iorwf	___lwmod@divisor+1,w
  2745  060F  1903               	btfsc	3,2
  2746  0610  2E12               	goto	u1251
  2747  0611  2E13               	goto	u1250
  2748  0612                     u1251:
  2749  0612  2E42               	goto	l1933
  2750  0613                     u1250:
  2751  0613                     l1917:
  2752  0613  01B5               	clrf	___lwmod@counter
  2753  0614  0AB5               	incf	___lwmod@counter,f
  2754  0615  2E21               	goto	l1923
  2755  0616                     l1919:
  2756  0616  3001               	movlw	1
  2757  0617                     u1265:
  2758  0617  1003               	clrc
  2759  0618  0DB1               	rlf	___lwmod@divisor,f
  2760  0619  0DB2               	rlf	___lwmod@divisor+1,f
  2761  061A  3EFF               	addlw	-1
  2762  061B  1D03               	skipz
  2763  061C  2E17               	goto	u1265
  2764  061D                     l1921:
  2765  061D  3001               	movlw	1
  2766  061E  00FF               	movwf	btemp+1
  2767  061F  087F               	movf	btemp+1,w
  2768  0620  07B5               	addwf	___lwmod@counter,f
  2769  0621                     l1923:
  2770  0621  1FB2               	btfss	___lwmod@divisor+1,7
  2771  0622  2E24               	goto	u1271
  2772  0623  2E25               	goto	u1270
  2773  0624                     u1271:
  2774  0624  2E16               	goto	l1919
  2775  0625                     u1270:
  2776  0625                     l1925:
  2777  0625  0832               	movf	___lwmod@divisor+1,w
  2778  0626  0234               	subwf	___lwmod@dividend+1,w
  2779  0627  1D03               	skipz
  2780  0628  2E2B               	goto	u1285
  2781  0629  0831               	movf	___lwmod@divisor,w
  2782  062A  0233               	subwf	___lwmod@dividend,w
  2783  062B                     u1285:
  2784  062B  1C03               	skipc
  2785  062C  2E2E               	goto	u1281
  2786  062D  2E2F               	goto	u1280
  2787  062E                     u1281:
  2788  062E  2E35               	goto	l1929
  2789  062F                     u1280:
  2790  062F                     l1927:
  2791  062F  0831               	movf	___lwmod@divisor,w
  2792  0630  02B3               	subwf	___lwmod@dividend,f
  2793  0631  0832               	movf	___lwmod@divisor+1,w
  2794  0632  1C03               	skipc
  2795  0633  03B4               	decf	___lwmod@dividend+1,f
  2796  0634  02B4               	subwf	___lwmod@dividend+1,f
  2797  0635                     l1929:
  2798  0635  3001               	movlw	1
  2799  0636                     u1295:
  2800  0636  1003               	clrc
  2801  0637  0CB2               	rrf	___lwmod@divisor+1,f
  2802  0638  0CB1               	rrf	___lwmod@divisor,f
  2803  0639  3EFF               	addlw	-1
  2804  063A  1D03               	skipz
  2805  063B  2E36               	goto	u1295
  2806  063C                     l1931:
  2807  063C  3001               	movlw	1
  2808  063D  02B5               	subwf	___lwmod@counter,f
  2809  063E  1D03               	btfss	3,2
  2810  063F  2E41               	goto	u1301
  2811  0640  2E42               	goto	u1300
  2812  0641                     u1301:
  2813  0641  2E25               	goto	l1925
  2814  0642                     u1300:
  2815  0642                     l1933:
  2816  0642  0834               	movf	___lwmod@dividend+1,w
  2817  0643  00B2               	movwf	?___lwmod+1
  2818  0644  0833               	movf	___lwmod@dividend,w
  2819  0645  00B1               	movwf	?___lwmod
  2820  0646                     l735:
  2821  0646  0008               	return
  2822  0647                     __end_of___lwmod:
  2823                           
  2824                           	psect	text11
  2825  04FE                     __ptext11:	
  2826 ;; *************** function ___lwdiv *****************
  2827 ;; Defined at:
  2828 ;;		line 5 in file "C:\Program Files\Microchip\xc8\v2.20\pic\sources\c90\common\lwdiv.c"
  2829 ;; Parameters:    Size  Location     Type
  2830 ;;  divisor         2   17[BANK0 ] unsigned int 
  2831 ;;  dividend        2   19[BANK0 ] unsigned int 
  2832 ;; Auto vars:     Size  Location     Type
  2833 ;;  quotient        2   21[BANK0 ] unsigned int 
  2834 ;;  counter         1   23[BANK0 ] unsigned char 
  2835 ;; Return value:  Size  Location     Type
  2836 ;;                  2   17[BANK0 ] unsigned int 
  2837 ;; Registers used:
  2838 ;;		wreg, status,2, status,0, btemp+1
  2839 ;; Tracked objects:
  2840 ;;		On entry : 0/0
  2841 ;;		On exit  : 0/0
  2842 ;;		Unchanged: 0/0
  2843 ;; Data sizes:     COMMON   BANK0   BANK1   BANK3   BANK2
  2844 ;;      Params:         0       4       0       0       0
  2845 ;;      Locals:         0       3       0       0       0
  2846 ;;      Temps:          0       0       0       0       0
  2847 ;;      Totals:         0       7       0       0       0
  2848 ;;Total ram usage:        7 bytes
  2849 ;; Hardware stack levels used:    1
  2850 ;; Hardware stack levels required when called:    4
  2851 ;; This function calls:
  2852 ;;		Nothing
  2853 ;; This function is called by:
  2854 ;;		_displayTempreture
  2855 ;; This function uses a non-reentrant model
  2856 ;;
  2857                           
  2858                           
  2859                           ;psect for function ___lwdiv
  2860  04FE                     ___lwdiv:
  2861  04FE                     l1889:	
  2862                           ;incstack = 0
  2863                           ; Regs used in ___lwdiv: [wreg+status,2+status,0+btemp+1]
  2864                           
  2865  04FE  1283               	bcf	3,5	;RP0=0, select bank0
  2866  04FF  1303               	bcf	3,6	;RP1=0, select bank0
  2867  0500  01B5               	clrf	___lwdiv@quotient
  2868  0501  01B6               	clrf	___lwdiv@quotient+1
  2869  0502                     l1891:
  2870  0502  0831               	movf	___lwdiv@divisor,w
  2871  0503  0432               	iorwf	___lwdiv@divisor+1,w
  2872  0504  1903               	btfsc	3,2
  2873  0505  2D07               	goto	u1181
  2874  0506  2D08               	goto	u1180
  2875  0507                     u1181:
  2876  0507  2D3F               	goto	l1911
  2877  0508                     u1180:
  2878  0508                     l1893:
  2879  0508  01B7               	clrf	___lwdiv@counter
  2880  0509  0AB7               	incf	___lwdiv@counter,f
  2881  050A  2D16               	goto	l1899
  2882  050B                     l1895:
  2883  050B  3001               	movlw	1
  2884  050C                     u1195:
  2885  050C  1003               	clrc
  2886  050D  0DB1               	rlf	___lwdiv@divisor,f
  2887  050E  0DB2               	rlf	___lwdiv@divisor+1,f
  2888  050F  3EFF               	addlw	-1
  2889  0510  1D03               	skipz
  2890  0511  2D0C               	goto	u1195
  2891  0512                     l1897:
  2892  0512  3001               	movlw	1
  2893  0513  00FF               	movwf	btemp+1
  2894  0514  087F               	movf	btemp+1,w
  2895  0515  07B7               	addwf	___lwdiv@counter,f
  2896  0516                     l1899:
  2897  0516  1FB2               	btfss	___lwdiv@divisor+1,7
  2898  0517  2D19               	goto	u1201
  2899  0518  2D1A               	goto	u1200
  2900  0519                     u1201:
  2901  0519  2D0B               	goto	l1895
  2902  051A                     u1200:
  2903  051A                     l1901:
  2904  051A  3001               	movlw	1
  2905  051B                     u1215:
  2906  051B  1003               	clrc
  2907  051C  0DB5               	rlf	___lwdiv@quotient,f
  2908  051D  0DB6               	rlf	___lwdiv@quotient+1,f
  2909  051E  3EFF               	addlw	-1
  2910  051F  1D03               	skipz
  2911  0520  2D1B               	goto	u1215
  2912  0521  0832               	movf	___lwdiv@divisor+1,w
  2913  0522  0234               	subwf	___lwdiv@dividend+1,w
  2914  0523  1D03               	skipz
  2915  0524  2D27               	goto	u1225
  2916  0525  0831               	movf	___lwdiv@divisor,w
  2917  0526  0233               	subwf	___lwdiv@dividend,w
  2918  0527                     u1225:
  2919  0527  1C03               	skipc
  2920  0528  2D2A               	goto	u1221
  2921  0529  2D2B               	goto	u1220
  2922  052A                     u1221:
  2923  052A  2D32               	goto	l1907
  2924  052B                     u1220:
  2925  052B                     l1903:
  2926  052B  0831               	movf	___lwdiv@divisor,w
  2927  052C  02B3               	subwf	___lwdiv@dividend,f
  2928  052D  0832               	movf	___lwdiv@divisor+1,w
  2929  052E  1C03               	skipc
  2930  052F  03B4               	decf	___lwdiv@dividend+1,f
  2931  0530  02B4               	subwf	___lwdiv@dividend+1,f
  2932  0531                     l1905:
  2933  0531  1435               	bsf	___lwdiv@quotient,0
  2934  0532                     l1907:
  2935  0532  3001               	movlw	1
  2936  0533                     u1235:
  2937  0533  1003               	clrc
  2938  0534  0CB2               	rrf	___lwdiv@divisor+1,f
  2939  0535  0CB1               	rrf	___lwdiv@divisor,f
  2940  0536  3EFF               	addlw	-1
  2941  0537  1D03               	skipz
  2942  0538  2D33               	goto	u1235
  2943  0539                     l1909:
  2944  0539  3001               	movlw	1
  2945  053A  02B7               	subwf	___lwdiv@counter,f
  2946  053B  1D03               	btfss	3,2
  2947  053C  2D3E               	goto	u1241
  2948  053D  2D3F               	goto	u1240
  2949  053E                     u1241:
  2950  053E  2D1A               	goto	l1901
  2951  053F                     u1240:
  2952  053F                     l1911:
  2953  053F  0836               	movf	___lwdiv@quotient+1,w
  2954  0540  00B2               	movwf	?___lwdiv+1
  2955  0541  0835               	movf	___lwdiv@quotient,w
  2956  0542  00B1               	movwf	?___lwdiv
  2957  0543                     l725:
  2958  0543  0008               	return
  2959  0544                     __end_of___lwdiv:
  2960                           
  2961                           	psect	text12
  2962  0745                     __ptext12:	
  2963 ;; *************** function _coolerOn *****************
  2964 ;; Defined at:
  2965 ;;		line 158 in file "main.c"
  2966 ;; Parameters:    Size  Location     Type
  2967 ;;		None
  2968 ;; Auto vars:     Size  Location     Type
  2969 ;;		None
  2970 ;; Return value:  Size  Location     Type
  2971 ;;                  1    wreg      void 
  2972 ;; Registers used:
  2973 ;;		None
  2974 ;; Tracked objects:
  2975 ;;		On entry : 0/0
  2976 ;;		On exit  : 0/0
  2977 ;;		Unchanged: 0/0
  2978 ;; Data sizes:     COMMON   BANK0   BANK1   BANK3   BANK2
  2979 ;;      Params:         0       0       0       0       0
  2980 ;;      Locals:         0       0       0       0       0
  2981 ;;      Temps:          0       0       0       0       0
  2982 ;;      Totals:         0       0       0       0       0
  2983 ;;Total ram usage:        0 bytes
  2984 ;; Hardware stack levels used:    1
  2985 ;; Hardware stack levels required when called:    4
  2986 ;; This function calls:
  2987 ;;		Nothing
  2988 ;; This function is called by:
  2989 ;;		_on_state
  2990 ;; This function uses a non-reentrant model
  2991 ;;
  2992                           
  2993                           
  2994                           ;psect for function _coolerOn
  2995  0745                     _coolerOn:
  2996  0745                     l2085:	
  2997                           ;incstack = 0
  2998                           ; Regs used in _coolerOn: []
  2999                           
  3000                           
  3001                           ;main.c: 160:     RC5 = 0;
  3002  0745  1283               	bcf	3,5	;RP0=0, select bank0
  3003  0746  1303               	bcf	3,6	;RP1=0, select bank0
  3004  0747  1287               	bcf	7,5	;volatile
  3005                           
  3006                           ;main.c: 161:     RC2=1;
  3007  0748  1507               	bsf	7,2	;volatile
  3008  0749                     l132:
  3009  0749  0008               	return
  3010  074A                     __end_of_coolerOn:
  3011                           
  3012                           	psect	text13
  3013  0681                     __ptext13:	
  3014 ;; *************** function _changeStatus *****************
  3015 ;; Defined at:
  3016 ;;		line 130 in file "main.c"
  3017 ;; Parameters:    Size  Location     Type
  3018 ;;		None
  3019 ;; Auto vars:     Size  Location     Type
  3020 ;;		None
  3021 ;; Return value:  Size  Location     Type
  3022 ;;                  1    wreg      void 
  3023 ;; Registers used:
  3024 ;;		wreg, status,2, status,0, btemp+1
  3025 ;; Tracked objects:
  3026 ;;		On entry : 0/0
  3027 ;;		On exit  : 0/0
  3028 ;;		Unchanged: 0/0
  3029 ;; Data sizes:     COMMON   BANK0   BANK1   BANK3   BANK2
  3030 ;;      Params:         0       0       0       0       0
  3031 ;;      Locals:         0       0       0       0       0
  3032 ;;      Temps:          0       2       0       0       0
  3033 ;;      Totals:         0       2       0       0       0
  3034 ;;Total ram usage:        2 bytes
  3035 ;; Hardware stack levels used:    1
  3036 ;; Hardware stack levels required when called:    4
  3037 ;; This function calls:
  3038 ;;		Nothing
  3039 ;; This function is called by:
  3040 ;;		_on_state
  3041 ;; This function uses a non-reentrant model
  3042 ;;
  3043                           
  3044                           
  3045                           ;psect for function _changeStatus
  3046  0681                     _changeStatus:
  3047  0681                     l2063:	
  3048                           ;incstack = 0
  3049                           ; Regs used in _changeStatus: [wreg+status,2+status,0+btemp+1]
  3050                           
  3051                           
  3052                           ;main.c: 132:     if(TEMPRETURE<TargetTempreture+5 && canuse == 1)
  3053  0681  1283               	bcf	3,5	;RP0=0, select bank0
  3054  0682  1303               	bcf	3,6	;RP1=0, select bank0
  3055  0683  085A               	movf	_TargetTempreture,w
  3056  0684  3E05               	addlw	5
  3057  0685  00B1               	movwf	??_changeStatus
  3058  0686  085B               	movf	_TargetTempreture+1,w
  3059  0687  1803               	skipnc
  3060  0688  3E01               	addlw	1
  3061  0689  3E00               	addlw	0
  3062  068A  00B2               	movwf	??_changeStatus+1
  3063  068B  0832               	movf	??_changeStatus+1,w
  3064  068C  0244               	subwf	_TEMPRETURE+1,w
  3065  068D  1D03               	skipz
  3066  068E  2E91               	goto	u1615
  3067  068F  0831               	movf	??_changeStatus,w
  3068  0690  0243               	subwf	_TEMPRETURE,w
  3069  0691                     u1615:
  3070  0691  1803               	skipnc
  3071  0692  2E94               	goto	u1611
  3072  0693  2E95               	goto	u1610
  3073  0694                     u1611:
  3074  0694  2E9D               	goto	l2069
  3075  0695                     u1610:
  3076  0695                     l2065:
  3077  0695  035D               	decf	_canuse,w
  3078  0696  1D03               	btfss	3,2
  3079  0697  2E99               	goto	u1621
  3080  0698  2E9A               	goto	u1620
  3081  0699                     u1621:
  3082  0699  2E9D               	goto	l2069
  3083  069A                     u1620:
  3084  069A                     l2067:
  3085                           
  3086                           ;main.c: 133:     {;main.c: 134:         temp_state=UPOVE_state;
  3087  069A  01C9               	clrf	_temp_state
  3088  069B  0AC9               	incf	_temp_state,f
  3089                           
  3090                           ;main.c: 136:     }else{
  3091  069C  2EB2               	goto	l126
  3092  069D                     l2069:
  3093                           
  3094                           ;main.c: 137:         canuse= 0;
  3095  069D  01DD               	clrf	_canuse
  3096  069E                     l2071:
  3097                           
  3098                           ;main.c: 138:         if(TEMPRETURE>TargetTempreture && canuse == 0)
  3099  069E  0844               	movf	_TEMPRETURE+1,w
  3100  069F  025B               	subwf	_TargetTempreture+1,w
  3101  06A0  1D03               	skipz
  3102  06A1  2EA4               	goto	u1635
  3103  06A2  0843               	movf	_TEMPRETURE,w
  3104  06A3  025A               	subwf	_TargetTempreture,w
  3105  06A4                     u1635:
  3106  06A4  1803               	skipnc
  3107  06A5  2EA7               	goto	u1631
  3108  06A6  2EA8               	goto	u1630
  3109  06A7                     u1631:
  3110  06A7  2EAD               	goto	l124
  3111  06A8                     u1630:
  3112  06A8                     l2073:
  3113  06A8                     l2075:
  3114                           
  3115                           ;main.c: 139:         {;main.c: 140:             temp_state=DOWN_state;
  3116  06A8  3002               	movlw	2
  3117  06A9  00FF               	movwf	btemp+1
  3118  06AA  087F               	movf	btemp+1,w
  3119  06AB  00C9               	movwf	_temp_state
  3120                           
  3121                           ;main.c: 141:         }
  3122  06AC  2EB2               	goto	l126
  3123  06AD                     l124:	
  3124                           ;main.c: 142:         else{
  3125                           
  3126                           
  3127                           ;main.c: 143:             canuse= 1;
  3128  06AD  01DD               	clrf	_canuse
  3129  06AE  0ADD               	incf	_canuse,f
  3130  06AF                     l2077:
  3131                           
  3132                           ;main.c: 144:             temp_state=OK_state;
  3133  06AF  01C9               	clrf	_temp_state
  3134  06B0                     l2079:
  3135                           
  3136                           ;main.c: 145:             RC2=0;
  3137  06B0  1107               	bcf	7,2	;volatile
  3138  06B1                     l2081:
  3139                           
  3140                           ;main.c: 146:             RC5=0;
  3141  06B1  1287               	bcf	7,5	;volatile
  3142  06B2                     l126:
  3143  06B2  0008               	return
  3144  06B3                     __end_of_changeStatus:
  3145                           
  3146                           	psect	text14
  3147  074A                     __ptext14:	
  3148 ;; *************** function _off_state *****************
  3149 ;; Defined at:
  3150 ;;		line 47 in file "main.c"
  3151 ;; Parameters:    Size  Location     Type
  3152 ;;		None
  3153 ;; Auto vars:     Size  Location     Type
  3154 ;;		None
  3155 ;; Return value:  Size  Location     Type
  3156 ;;                  1    wreg      void 
  3157 ;; Registers used:
  3158 ;;		None
  3159 ;; Tracked objects:
  3160 ;;		On entry : 0/0
  3161 ;;		On exit  : 0/0
  3162 ;;		Unchanged: 0/0
  3163 ;; Data sizes:     COMMON   BANK0   BANK1   BANK3   BANK2
  3164 ;;      Params:         0       0       0       0       0
  3165 ;;      Locals:         0       0       0       0       0
  3166 ;;      Temps:          0       0       0       0       0
  3167 ;;      Totals:         0       0       0       0       0
  3168 ;;Total ram usage:        0 bytes
  3169 ;; Hardware stack levels used:    1
  3170 ;; Hardware stack levels required when called:    4
  3171 ;; This function calls:
  3172 ;;		Nothing
  3173 ;; This function is called by:
  3174 ;;		_main
  3175 ;; This function uses a non-reentrant model
  3176 ;;
  3177                           
  3178                           
  3179                           ;psect for function _off_state
  3180  074A                     _off_state:
  3181  074A                     l2171:	
  3182                           ;incstack = 0
  3183                           ; Regs used in _off_state: []
  3184                           
  3185                           
  3186                           ;main.c: 49:     RC2=0;
  3187  074A  1283               	bcf	3,5	;RP0=0, select bank0
  3188  074B  1303               	bcf	3,6	;RP1=0, select bank0
  3189  074C  1107               	bcf	7,2	;volatile
  3190                           
  3191                           ;main.c: 50:     RC5=0;
  3192  074D  1287               	bcf	7,5	;volatile
  3193  074E                     l97:
  3194  074E  0008               	return
  3195  074F                     __end_of_off_state:
  3196                           
  3197                           	psect	text15
  3198  0731                     __ptext15:	
  3199 ;; *************** function _adc_init *****************
  3200 ;; Defined at:
  3201 ;;		line 30 in file "adc.c"
  3202 ;; Parameters:    Size  Location     Type
  3203 ;;		None
  3204 ;; Auto vars:     Size  Location     Type
  3205 ;;		None
  3206 ;; Return value:  Size  Location     Type
  3207 ;;                  1    wreg      void 
  3208 ;; Registers used:
  3209 ;;		wreg
  3210 ;; Tracked objects:
  3211 ;;		On entry : 0/0
  3212 ;;		On exit  : 0/0
  3213 ;;		Unchanged: 0/0
  3214 ;; Data sizes:     COMMON   BANK0   BANK1   BANK3   BANK2
  3215 ;;      Params:         0       0       0       0       0
  3216 ;;      Locals:         0       0       0       0       0
  3217 ;;      Temps:          0       0       0       0       0
  3218 ;;      Totals:         0       0       0       0       0
  3219 ;;Total ram usage:        0 bytes
  3220 ;; Hardware stack levels used:    1
  3221 ;; Hardware stack levels required when called:    4
  3222 ;; This function calls:
  3223 ;;		Nothing
  3224 ;; This function is called by:
  3225 ;;		_main
  3226 ;; This function uses a non-reentrant model
  3227 ;;
  3228                           
  3229                           
  3230                           ;psect for function _adc_init
  3231  0731                     _adc_init:
  3232  0731                     l2217:	
  3233                           ;incstack = 0
  3234                           ; Regs used in _adc_init: [wreg]
  3235                           
  3236                           
  3237                           ;adc.c: 33:   ADCON1=0x02;
  3238  0731  3002               	movlw	2
  3239  0732  1683               	bsf	3,5	;RP0=1, select bank1
  3240  0733  1303               	bcf	3,6	;RP1=0, select bank1
  3241  0734  009F               	movwf	31	;volatile
  3242                           
  3243                           ;adc.c: 34:   ADCON0=0x41;
  3244  0735  3041               	movlw	65
  3245  0736  1283               	bcf	3,5	;RP0=0, select bank0
  3246  0737  1303               	bcf	3,6	;RP1=0, select bank0
  3247  0738  009F               	movwf	31	;volatile
  3248  0739                     l204:
  3249  0739  0008               	return
  3250  073A                     __end_of_adc_init:
  3251                           
  3252                           	psect	text16
  3253  0707                     __ptext16:	
  3254 ;; *************** function _TIMER1_init *****************
  3255 ;; Defined at:
  3256 ;;		line 370 in file "main.c"
  3257 ;; Parameters:    Size  Location     Type
  3258 ;;		None
  3259 ;; Auto vars:     Size  Location     Type
  3260 ;;		None
  3261 ;; Return value:  Size  Location     Type
  3262 ;;                  1    wreg      void 
  3263 ;; Registers used:
  3264 ;;		None
  3265 ;; Tracked objects:
  3266 ;;		On entry : 0/0
  3267 ;;		On exit  : 0/0
  3268 ;;		Unchanged: 0/0
  3269 ;; Data sizes:     COMMON   BANK0   BANK1   BANK3   BANK2
  3270 ;;      Params:         0       0       0       0       0
  3271 ;;      Locals:         0       0       0       0       0
  3272 ;;      Temps:          0       0       0       0       0
  3273 ;;      Totals:         0       0       0       0       0
  3274 ;;Total ram usage:        0 bytes
  3275 ;; Hardware stack levels used:    1
  3276 ;; Hardware stack levels required when called:    4
  3277 ;; This function calls:
  3278 ;;		Nothing
  3279 ;; This function is called by:
  3280 ;;		_main
  3281 ;; This function uses a non-reentrant model
  3282 ;;
  3283                           
  3284                           
  3285                           ;psect for function _TIMER1_init
  3286  0707                     _TIMER1_init:
  3287  0707                     l2201:	
  3288                           ;incstack = 0
  3289                           ; Regs used in _TIMER1_init: []
  3290                           
  3291                           
  3292                           ;main.c: 373:     TMR1 = 15535;
  3293  0707  303C               	movlw	60
  3294  0708  1283               	bcf	3,5	;RP0=0, select bank0
  3295  0709  1303               	bcf	3,6	;RP1=0, select bank0
  3296  070A  008F               	movwf	15	;volatile
  3297  070B  30AF               	movlw	175
  3298  070C  008E               	movwf	14	;volatile
  3299                           
  3300                           ;main.c: 375:     TMR1CS = 0;
  3301  070D  1090               	bcf	16,1	;volatile
  3302                           
  3303                           ;main.c: 377:     T1CKPS0 = 0;
  3304  070E  1210               	bcf	16,4	;volatile
  3305                           
  3306                           ;main.c: 378:     T1CKPS1 = 0;
  3307  070F  1290               	bcf	16,5	;volatile
  3308                           
  3309                           ;main.c: 381:     TMR1IE = 1;
  3310  0710  1683               	bsf	3,5	;RP0=1, select bank1
  3311  0711  1303               	bcf	3,6	;RP1=0, select bank1
  3312  0712  140C               	bsf	12,0	;volatile
  3313                           
  3314                           ;main.c: 382:     TMR1IF = 0;
  3315  0713  1283               	bcf	3,5	;RP0=0, select bank0
  3316  0714  1303               	bcf	3,6	;RP1=0, select bank0
  3317  0715  100C               	bcf	12,0	;volatile
  3318                           
  3319                           ;main.c: 383:     PEIE = 1;
  3320  0716  170B               	bsf	11,6	;volatile
  3321  0717                     l191:
  3322  0717  0008               	return
  3323  0718                     __end_of_TIMER1_init:
  3324                           
  3325                           	psect	text17
  3326  073A                     __ptext17:	
  3327 ;; *************** function _IRQ_RB0_init *****************
  3328 ;; Defined at:
  3329 ;;		line 360 in file "main.c"
  3330 ;; Parameters:    Size  Location     Type
  3331 ;;		None
  3332 ;; Auto vars:     Size  Location     Type
  3333 ;;		None
  3334 ;; Return value:  Size  Location     Type
  3335 ;;                  1    wreg      void 
  3336 ;; Registers used:
  3337 ;;		None
  3338 ;; Tracked objects:
  3339 ;;		On entry : 0/0
  3340 ;;		On exit  : 0/0
  3341 ;;		Unchanged: 0/0
  3342 ;; Data sizes:     COMMON   BANK0   BANK1   BANK3   BANK2
  3343 ;;      Params:         0       0       0       0       0
  3344 ;;      Locals:         0       0       0       0       0
  3345 ;;      Temps:          0       0       0       0       0
  3346 ;;      Totals:         0       0       0       0       0
  3347 ;;Total ram usage:        0 bytes
  3348 ;; Hardware stack levels used:    1
  3349 ;; Hardware stack levels required when called:    4
  3350 ;; This function calls:
  3351 ;;		Nothing
  3352 ;; This function is called by:
  3353 ;;		_main
  3354 ;; This function uses a non-reentrant model
  3355 ;;
  3356                           
  3357                           
  3358                           ;psect for function _IRQ_RB0_init
  3359  073A                     _IRQ_RB0_init:
  3360  073A                     l2203:	
  3361                           ;incstack = 0
  3362                           ; Regs used in _IRQ_RB0_init: []
  3363                           
  3364                           
  3365                           ;main.c: 362:     INTE = 1;
  3366  073A  160B               	bsf	11,4	;volatile
  3367                           
  3368                           ;main.c: 364:     INTEDG = 0;
  3369  073B  1683               	bsf	3,5	;RP0=1, select bank1
  3370  073C  1303               	bcf	3,6	;RP1=0, select bank1
  3371  073D  1301               	bcf	1,6	;volatile
  3372                           
  3373                           ;main.c: 366:     GIE = 1;
  3374  073E  178B               	bsf	11,7	;volatile
  3375  073F                     l188:
  3376  073F  0008               	return
  3377  0740                     __end_of_IRQ_RB0_init:
  3378                           
  3379                           	psect	text18
  3380  0544                     __ptext18:	
  3381 ;; *************** function _I2C_Master_Init *****************
  3382 ;; Defined at:
  3383 ;;		line 9 in file "ext_eeprom.c"
  3384 ;; Parameters:    Size  Location     Type
  3385 ;;  baud            4    0[BANK1 ] const unsigned long 
  3386 ;; Auto vars:     Size  Location     Type
  3387 ;;		None
  3388 ;; Return value:  Size  Location     Type
  3389 ;;                  1    wreg      void 
  3390 ;; Registers used:
  3391 ;;		wreg, status,2, status,0, btemp+1, pclath, cstack
  3392 ;; Tracked objects:
  3393 ;;		On entry : 0/0
  3394 ;;		On exit  : 0/0
  3395 ;;		Unchanged: 0/0
  3396 ;; Data sizes:     COMMON   BANK0   BANK1   BANK3   BANK2
  3397 ;;      Params:         0       0       4       0       0
  3398 ;;      Locals:         0       0       0       0       0
  3399 ;;      Temps:          0       0       4       0       0
  3400 ;;      Totals:         0       0       8       0       0
  3401 ;;Total ram usage:        8 bytes
  3402 ;; Hardware stack levels used:    1
  3403 ;; Hardware stack levels required when called:    5
  3404 ;; This function calls:
  3405 ;;		___lldiv
  3406 ;; This function is called by:
  3407 ;;		_main
  3408 ;; This function uses a non-reentrant model
  3409 ;;
  3410                           
  3411                           
  3412                           ;psect for function _I2C_Master_Init
  3413  0544                     _I2C_Master_Init:
  3414  0544                     l2667:	
  3415                           ;incstack = 0
  3416                           ; Regs used in _I2C_Master_Init: [wreg+status,2+status,0+btemp+1+pclath+cstack]
  3417                           
  3418                           
  3419                           ;ext_eeprom.c: 9: void I2C_Master_Init(const unsigned long baud);ext_eeprom.c: 10: {;ext
      +                          _eeprom.c: 11:   SSPCON = 0b00101000;
  3420  0544  3028               	movlw	40
  3421  0545  1283               	bcf	3,5	;RP0=0, select bank0
  3422  0546  1303               	bcf	3,6	;RP1=0, select bank0
  3423  0547  0094               	movwf	20	;volatile
  3424  0548                     l2669:
  3425                           
  3426                           ;ext_eeprom.c: 12:   SSPCON2 = 0;
  3427  0548  1683               	bsf	3,5	;RP0=1, select bank1
  3428  0549  1303               	bcf	3,6	;RP1=0, select bank1
  3429  054A  0191               	clrf	17	;volatile
  3430  054B                     l2671:
  3431                           
  3432                           ;ext_eeprom.c: 13:   SSPADD = (8000000/(4*baud))-1;
  3433  054B  0820               	movf	I2C_Master_Init@baud^(0+128),w
  3434  054C  00A4               	movwf	??_I2C_Master_Init^(0+128)
  3435  054D  0821               	movf	(I2C_Master_Init@baud+1)^(0+128),w
  3436  054E  00A5               	movwf	(??_I2C_Master_Init^(0+128)+1)
  3437  054F  0822               	movf	(I2C_Master_Init@baud+2)^(0+128),w
  3438  0550  00A6               	movwf	(??_I2C_Master_Init^(0+128)+2)
  3439  0551  0823               	movf	(I2C_Master_Init@baud+3)^(0+128),w
  3440  0552  00A7               	movwf	(??_I2C_Master_Init^(0+128)+3)
  3441  0553  3002               	movlw	2
  3442  0554                     u2245:
  3443  0554  1003               	clrc
  3444  0555  0DA4               	rlf	??_I2C_Master_Init^(0+128),f
  3445  0556  0DA5               	rlf	(??_I2C_Master_Init^(0+128)+1),f
  3446  0557  0DA6               	rlf	(??_I2C_Master_Init^(0+128)+2),f
  3447  0558  0DA7               	rlf	(??_I2C_Master_Init^(0+128)+3),f
  3448  0559                     u2240:
  3449  0559  3EFF               	addlw	-1
  3450  055A  1D03               	skipz
  3451  055B  2D54               	goto	u2245
  3452  055C  0827               	movf	(??_I2C_Master_Init+3)^(0+128),w
  3453  055D  1283               	bcf	3,5	;RP0=0, select bank0
  3454  055E  1303               	bcf	3,6	;RP1=0, select bank0
  3455  055F  00B4               	movwf	___lldiv@divisor+3
  3456  0560  1683               	bsf	3,5	;RP0=1, select bank1
  3457  0561  1303               	bcf	3,6	;RP1=0, select bank1
  3458  0562  0826               	movf	(??_I2C_Master_Init+2)^(0+128),w
  3459  0563  1283               	bcf	3,5	;RP0=0, select bank0
  3460  0564  1303               	bcf	3,6	;RP1=0, select bank0
  3461  0565  00B3               	movwf	___lldiv@divisor+2
  3462  0566  1683               	bsf	3,5	;RP0=1, select bank1
  3463  0567  1303               	bcf	3,6	;RP1=0, select bank1
  3464  0568  0825               	movf	(??_I2C_Master_Init+1)^(0+128),w
  3465  0569  1283               	bcf	3,5	;RP0=0, select bank0
  3466  056A  1303               	bcf	3,6	;RP1=0, select bank0
  3467  056B  00B2               	movwf	___lldiv@divisor+1
  3468  056C  1683               	bsf	3,5	;RP0=1, select bank1
  3469  056D  1303               	bcf	3,6	;RP1=0, select bank1
  3470  056E  0824               	movf	??_I2C_Master_Init^(0+128),w
  3471  056F  1283               	bcf	3,5	;RP0=0, select bank0
  3472  0570  1303               	bcf	3,6	;RP1=0, select bank0
  3473  0571  00B1               	movwf	___lldiv@divisor
  3474  0572  3000               	movlw	0
  3475  0573  00B8               	movwf	___lldiv@dividend+3
  3476  0574  307A               	movlw	122
  3477  0575  00B7               	movwf	___lldiv@dividend+2
  3478  0576  3012               	movlw	18
  3479  0577  00B6               	movwf	___lldiv@dividend+1
  3480  0578  3000               	movlw	0
  3481  0579  00B5               	movwf	___lldiv@dividend
  3482  057A  120A  118A  222B  120A  118A  	fcall	___lldiv
  3483  057F  1283               	bcf	3,5	;RP0=0, select bank0
  3484  0580  1303               	bcf	3,6	;RP1=0, select bank0
  3485  0581  0831               	movf	?___lldiv,w
  3486  0582  3EFF               	addlw	255
  3487  0583  1683               	bsf	3,5	;RP0=1, select bank1
  3488  0584  1303               	bcf	3,6	;RP1=0, select bank1
  3489  0585  0093               	movwf	19	;volatile
  3490  0586                     l2673:
  3491                           
  3492                           ;ext_eeprom.c: 14:   SSPSTAT = 0;
  3493  0586  0194               	clrf	20	;volatile
  3494  0587                     l2675:
  3495                           
  3496                           ;ext_eeprom.c: 15:   TRISC3 = 1;
  3497  0587  1587               	bsf	7,3	;volatile
  3498  0588                     l2677:
  3499                           
  3500                           ;ext_eeprom.c: 16:   TRISC4 = 1;
  3501  0588  1607               	bsf	7,4	;volatile
  3502  0589                     l307:
  3503  0589  0008               	return
  3504  058A                     __end_of_I2C_Master_Init:
  3505                           
  3506                           	psect	text19
  3507  022B                     __ptext19:	
  3508 ;; *************** function ___lldiv *****************
  3509 ;; Defined at:
  3510 ;;		line 5 in file "C:\Program Files\Microchip\xc8\v2.20\pic\sources\c90\common\__lldiv.c"
  3511 ;; Parameters:    Size  Location     Type
  3512 ;;  divisor         4   17[BANK0 ] unsigned long 
  3513 ;;  dividend        4   21[BANK0 ] unsigned long 
  3514 ;; Auto vars:     Size  Location     Type
  3515 ;;  quotient        4   26[BANK0 ] unsigned long 
  3516 ;;  counter         1   30[BANK0 ] unsigned char 
  3517 ;; Return value:  Size  Location     Type
  3518 ;;                  4   17[BANK0 ] unsigned long 
  3519 ;; Registers used:
  3520 ;;		wreg, status,2, status,0, btemp+1
  3521 ;; Tracked objects:
  3522 ;;		On entry : 0/0
  3523 ;;		On exit  : 0/0
  3524 ;;		Unchanged: 0/0
  3525 ;; Data sizes:     COMMON   BANK0   BANK1   BANK3   BANK2
  3526 ;;      Params:         0       8       0       0       0
  3527 ;;      Locals:         0       5       0       0       0
  3528 ;;      Temps:          0       1       0       0       0
  3529 ;;      Totals:         0      14       0       0       0
  3530 ;;Total ram usage:       14 bytes
  3531 ;; Hardware stack levels used:    1
  3532 ;; Hardware stack levels required when called:    4
  3533 ;; This function calls:
  3534 ;;		Nothing
  3535 ;; This function is called by:
  3536 ;;		_I2C_Master_Init
  3537 ;; This function uses a non-reentrant model
  3538 ;;
  3539                           
  3540                           
  3541                           ;psect for function ___lldiv
  3542  022B                     ___lldiv:
  3543  022B                     l2145:	
  3544                           ;incstack = 0
  3545                           ; Regs used in ___lldiv: [wreg+status,2+status,0+btemp+1]
  3546                           
  3547  022B  3000               	movlw	0
  3548  022C  1283               	bcf	3,5	;RP0=0, select bank0
  3549  022D  1303               	bcf	3,6	;RP1=0, select bank0
  3550  022E  00BD               	movwf	___lldiv@quotient+3
  3551  022F  3000               	movlw	0
  3552  0230  00BC               	movwf	___lldiv@quotient+2
  3553  0231  3000               	movlw	0
  3554  0232  00BB               	movwf	___lldiv@quotient+1
  3555  0233  3000               	movlw	0
  3556  0234  00BA               	movwf	___lldiv@quotient
  3557  0235  0834               	movf	___lldiv@divisor+3,w
  3558  0236  0433               	iorwf	___lldiv@divisor+2,w
  3559  0237  0432               	iorwf	___lldiv@divisor+1,w
  3560  0238  0431               	iorwf	___lldiv@divisor,w
  3561  0239  1903               	skipnz
  3562  023A  2A3C               	goto	u1711
  3563  023B  2A3D               	goto	u1710
  3564  023C                     u1711:
  3565  023C  2A8A               	goto	l2167
  3566  023D                     u1710:
  3567  023D                     l2147:
  3568  023D  01BE               	clrf	___lldiv@counter
  3569  023E  0ABE               	incf	___lldiv@counter,f
  3570  023F  2A4D               	goto	l2153
  3571  0240                     l2149:
  3572  0240  3001               	movlw	1
  3573  0241  00B9               	movwf	??___lldiv
  3574  0242                     u1725:
  3575  0242  1003               	clrc
  3576  0243  0DB1               	rlf	___lldiv@divisor,f
  3577  0244  0DB2               	rlf	___lldiv@divisor+1,f
  3578  0245  0DB3               	rlf	___lldiv@divisor+2,f
  3579  0246  0DB4               	rlf	___lldiv@divisor+3,f
  3580  0247  0BB9               	decfsz	??___lldiv,f
  3581  0248  2A42               	goto	u1725
  3582  0249                     l2151:
  3583  0249  3001               	movlw	1
  3584  024A  00FF               	movwf	btemp+1
  3585  024B  087F               	movf	btemp+1,w
  3586  024C  07BE               	addwf	___lldiv@counter,f
  3587  024D                     l2153:
  3588  024D  1FB4               	btfss	___lldiv@divisor+3,7
  3589  024E  2A50               	goto	u1731
  3590  024F  2A51               	goto	u1730
  3591  0250                     u1731:
  3592  0250  2A40               	goto	l2149
  3593  0251                     u1730:
  3594  0251                     l2155:
  3595  0251  3001               	movlw	1
  3596  0252  00B9               	movwf	??___lldiv
  3597  0253                     u1745:
  3598  0253  1003               	clrc
  3599  0254  0DBA               	rlf	___lldiv@quotient,f
  3600  0255  0DBB               	rlf	___lldiv@quotient+1,f
  3601  0256  0DBC               	rlf	___lldiv@quotient+2,f
  3602  0257  0DBD               	rlf	___lldiv@quotient+3,f
  3603  0258  0BB9               	decfsz	??___lldiv,f
  3604  0259  2A53               	goto	u1745
  3605  025A                     l2157:
  3606  025A  0834               	movf	___lldiv@divisor+3,w
  3607  025B  0238               	subwf	___lldiv@dividend+3,w
  3608  025C  1D03               	skipz
  3609  025D  2A68               	goto	u1755
  3610  025E  0833               	movf	___lldiv@divisor+2,w
  3611  025F  0237               	subwf	___lldiv@dividend+2,w
  3612  0260  1D03               	skipz
  3613  0261  2A68               	goto	u1755
  3614  0262  0832               	movf	___lldiv@divisor+1,w
  3615  0263  0236               	subwf	___lldiv@dividend+1,w
  3616  0264  1D03               	skipz
  3617  0265  2A68               	goto	u1755
  3618  0266  0831               	movf	___lldiv@divisor,w
  3619  0267  0235               	subwf	___lldiv@dividend,w
  3620  0268                     u1755:
  3621  0268  1C03               	skipc
  3622  0269  2A6B               	goto	u1751
  3623  026A  2A6C               	goto	u1750
  3624  026B                     u1751:
  3625  026B  2A7B               	goto	l2163
  3626  026C                     u1750:
  3627  026C                     l2159:
  3628  026C  0831               	movf	___lldiv@divisor,w
  3629  026D  02B5               	subwf	___lldiv@dividend,f
  3630  026E  0832               	movf	___lldiv@divisor+1,w
  3631  026F  1C03               	skipc
  3632  0270  0F32               	incfsz	___lldiv@divisor+1,w
  3633  0271  02B6               	subwf	___lldiv@dividend+1,f
  3634  0272  0833               	movf	___lldiv@divisor+2,w
  3635  0273  1C03               	skipc
  3636  0274  0F33               	incfsz	___lldiv@divisor+2,w
  3637  0275  02B7               	subwf	___lldiv@dividend+2,f
  3638  0276  0834               	movf	___lldiv@divisor+3,w
  3639  0277  1C03               	skipc
  3640  0278  0F34               	incfsz	___lldiv@divisor+3,w
  3641  0279  02B8               	subwf	___lldiv@dividend+3,f
  3642  027A                     l2161:
  3643  027A  143A               	bsf	___lldiv@quotient,0
  3644  027B                     l2163:
  3645  027B  3001               	movlw	1
  3646  027C                     u1765:
  3647  027C  1003               	clrc
  3648  027D  0CB4               	rrf	___lldiv@divisor+3,f
  3649  027E  0CB3               	rrf	___lldiv@divisor+2,f
  3650  027F  0CB2               	rrf	___lldiv@divisor+1,f
  3651  0280  0CB1               	rrf	___lldiv@divisor,f
  3652  0281  3EFF               	addlw	-1
  3653  0282  1D03               	skipz
  3654  0283  2A7C               	goto	u1765
  3655  0284                     l2165:
  3656  0284  3001               	movlw	1
  3657  0285  02BE               	subwf	___lldiv@counter,f
  3658  0286  1D03               	btfss	3,2
  3659  0287  2A89               	goto	u1771
  3660  0288  2A8A               	goto	u1770
  3661  0289                     u1771:
  3662  0289  2A51               	goto	l2155
  3663  028A                     u1770:
  3664  028A                     l2167:
  3665  028A  083D               	movf	___lldiv@quotient+3,w
  3666  028B  00B4               	movwf	?___lldiv+3
  3667  028C  083C               	movf	___lldiv@quotient+2,w
  3668  028D  00B3               	movwf	?___lldiv+2
  3669  028E  083B               	movf	___lldiv@quotient+1,w
  3670  028F  00B2               	movwf	?___lldiv+1
  3671  0290  083A               	movf	___lldiv@quotient,w
  3672  0291  00B1               	movwf	?___lldiv
  3673  0292                     l489:
  3674  0292  0008               	return
  3675  0293                     __end_of___lldiv:
  3676                           
  3677                           	psect	text20
  3678  0293                     __ptext20:	
  3679 ;; *************** function _ISR *****************
  3680 ;; Defined at:
  3681 ;;		line 304 in file "main.c"
  3682 ;; Parameters:    Size  Location     Type
  3683 ;;		None
  3684 ;; Auto vars:     Size  Location     Type
  3685 ;;		None
  3686 ;; Return value:  Size  Location     Type
  3687 ;;                  1    wreg      void 
  3688 ;; Registers used:
  3689 ;;		wreg, fsr0l, fsr0h, status,2, status,0, btemp+1, pclath, cstack
  3690 ;; Tracked objects:
  3691 ;;		On entry : 0/0
  3692 ;;		On exit  : 0/0
  3693 ;;		Unchanged: 0/0
  3694 ;; Data sizes:     COMMON   BANK0   BANK1   BANK3   BANK2
  3695 ;;      Params:         0       0       0       0       0
  3696 ;;      Locals:         0       0       0       0       0
  3697 ;;      Temps:          0       6       0       0       0
  3698 ;;      Totals:         0       6       0       0       0
  3699 ;;Total ram usage:        6 bytes
  3700 ;; Hardware stack levels used:    1
  3701 ;; Hardware stack levels required when called:    3
  3702 ;; This function calls:
  3703 ;;		_update_tempreture
  3704 ;;		i1___lwdiv
  3705 ;; This function is called by:
  3706 ;;		Interrupt level 1
  3707 ;; This function uses a non-reentrant model
  3708 ;;
  3709                           
  3710                           
  3711                           ;psect for function _ISR
  3712  0293                     _ISR:
  3713  0293                     i1l2293:
  3714                           
  3715                           ;main.c: 307:   if (INTF)
  3716  0293  1C8B               	btfss	11,1	;volatile
  3717  0294  2A96               	goto	u181_21
  3718  0295  2A97               	goto	u181_20
  3719  0296                     u181_21:
  3720  0296  2AB4               	goto	i1l175
  3721  0297                     u181_20:
  3722  0297                     i1l2295:
  3723                           
  3724                           ;main.c: 308:   {;main.c: 309:     INTF = 0;
  3725  0297  108B               	bcf	11,1	;volatile
  3726                           
  3727                           ;main.c: 310:     switch(state)
  3728  0298  2AA1               	goto	i1l2301
  3729  0299                     i1l177:	
  3730                           ;main.c: 311:     {;main.c: 312:         case ON_STATE:
  3731                           
  3732                           
  3733                           ;main.c: 313:             TMR1ON = 0;
  3734  0299  1010               	bcf	16,0	;volatile
  3735                           
  3736                           ;main.c: 314:             TMR1IF = 0;
  3737  029A  100C               	bcf	12,0	;volatile
  3738                           
  3739                           ;main.c: 315:             state=OFF_STATE;
  3740  029B  01DE               	clrf	_state
  3741  029C  0ADE               	incf	_state,f
  3742                           
  3743                           ;main.c: 316:             break;
  3744  029D  2AB4               	goto	i1l175
  3745  029E                     i1l179:	
  3746                           ;main.c: 317:         case OFF_STATE:
  3747                           
  3748                           
  3749                           ;main.c: 318:             TMR1ON = 1;
  3750  029E  1410               	bsf	16,0	;volatile
  3751  029F                     i1l2297:
  3752                           
  3753                           ;main.c: 319:             state=ON_STATE;
  3754  029F  01DE               	clrf	_state
  3755                           
  3756                           ;main.c: 320:             break;
  3757  02A0  2AB4               	goto	i1l175
  3758  02A1                     i1l2301:
  3759  02A1  085E               	movf	_state,w
  3760  02A2  00AB               	movwf	??_ISR
  3761  02A3  01AC               	clrf	??_ISR+1
  3762                           
  3763                           ; Switch on 2 bytes has been partitioned into a top level switch of size 1, and 1 sub-sw
      +                          itches
  3764                           ; Switch size 1, requested type "simple"
  3765                           ; Number of cases is 1, Range of values is 0 to 0
  3766                           ; switch strategies available:
  3767                           ; Name         Instructions Cycles
  3768                           ; simple_byte            4     3 (average)
  3769                           ; direct_byte           11     8 (fixed)
  3770                           ; jumptable            260     6 (fixed)
  3771                           ;	Chosen strategy is simple_byte
  3772  02A4  082C               	movf	??_ISR+1,w
  3773  02A5  3A00               	xorlw	0	; case 0
  3774  02A6  1903               	skipnz
  3775  02A7  2AA9               	goto	i1l2845
  3776  02A8  2AB4               	goto	i1l175
  3777  02A9                     i1l2845:
  3778                           
  3779                           ; Switch size 1, requested type "simple"
  3780                           ; Number of cases is 3, Range of values is 0 to 2
  3781                           ; switch strategies available:
  3782                           ; Name         Instructions Cycles
  3783                           ; simple_byte           10     6 (average)
  3784                           ; direct_byte           17     8 (fixed)
  3785                           ; jumptable            260     6 (fixed)
  3786                           ;	Chosen strategy is simple_byte
  3787  02A9  082B               	movf	??_ISR,w
  3788  02AA  3A00               	xorlw	0	; case 0
  3789  02AB  1903               	skipnz
  3790  02AC  2A99               	goto	i1l177
  3791  02AD  3A01               	xorlw	1	; case 1
  3792  02AE  1903               	skipnz
  3793  02AF  2A9E               	goto	i1l179
  3794  02B0  3A03               	xorlw	3	; case 2
  3795  02B1  1903               	skipnz
  3796  02B2  2A99               	goto	i1l177
  3797  02B3  2AB4               	goto	i1l175
  3798  02B4                     i1l175:	
  3799                           ;main.c: 331:     }
  3800                           
  3801                           
  3802                           ;main.c: 334:    if (TMR1IF)
  3803  02B4  1C0C               	btfss	12,0	;volatile
  3804  02B5  2AB7               	goto	u182_21
  3805  02B6  2AB8               	goto	u182_20
  3806  02B7                     u182_21:
  3807  02B7  2AF0               	goto	i1l185
  3808  02B8                     u182_20:
  3809  02B8                     i1l2303:
  3810                           
  3811                           ;main.c: 335:    {;main.c: 336:            TMR1IF = 0;
  3812  02B8  100C               	bcf	12,0	;volatile
  3813  02B9                     i1l2305:
  3814                           
  3815                           ;main.c: 337:            timer1counter++;
  3816  02B9  3001               	movlw	1
  3817  02BA  00FF               	movwf	btemp+1
  3818  02BB  087F               	movf	btemp+1,w
  3819  02BC  07C7               	addwf	_timer1counter,f
  3820  02BD                     i1l2307:
  3821                           
  3822                           ;main.c: 338:            ReadTemp=0;
  3823  02BD  01C6               	clrf	_ReadTemp
  3824  02BE                     i1l2309:
  3825                           
  3826                           ;main.c: 339:            if (timer1counter == 4){
  3827  02BE  3004               	movlw	4
  3828  02BF  0647               	xorwf	_timer1counter,w
  3829  02C0  1D03               	btfss	3,2
  3830  02C1  2AC3               	goto	u183_21
  3831  02C2  2AC4               	goto	u183_20
  3832  02C3                     u183_21:
  3833  02C3  2AD0               	goto	i1l2319
  3834  02C4                     u183_20:
  3835  02C4                     i1l2311:
  3836                           
  3837                           ;main.c: 340:                 ReadTemp=1;
  3838  02C4  01C6               	clrf	_ReadTemp
  3839  02C5  0AC6               	incf	_ReadTemp,f
  3840  02C6                     i1l2313:
  3841                           
  3842                           ;main.c: 341:                 Number_Tempreture++;
  3843  02C6  3001               	movlw	1
  3844  02C7  00FF               	movwf	btemp+1
  3845  02C8  087F               	movf	btemp+1,w
  3846  02C9  07C8               	addwf	_Number_Tempreture,f
  3847  02CA                     i1l2315:
  3848                           
  3849                           ;main.c: 342:                 timer1counter = 0;
  3850  02CA  01C7               	clrf	_timer1counter
  3851  02CB                     i1l2317:
  3852                           
  3853                           ;main.c: 343:                 update_tempreture();
  3854  02CB  120A  118A  2356  120A  118A  	fcall	_update_tempreture
  3855  02D0                     i1l2319:
  3856                           
  3857                           ;main.c: 345:             if(Number_Tempreture==10)
  3858  02D0  300A               	movlw	10
  3859  02D1  1283               	bcf	3,5	;RP0=0, select bank0
  3860  02D2  1303               	bcf	3,6	;RP1=0, select bank0
  3861  02D3  0648               	xorwf	_Number_Tempreture,w
  3862  02D4  1D03               	btfss	3,2
  3863  02D5  2AD7               	goto	u184_21
  3864  02D6  2AD8               	goto	u184_20
  3865  02D7                     u184_21:
  3866  02D7  2AF0               	goto	i1l185
  3867  02D8                     u184_20:
  3868  02D8                     i1l2321:
  3869                           
  3870                           ;main.c: 346:             {;main.c: 347:                TEMPRETURE=accumilated_tmeperatu
      +                          re/10;
  3871  02D8  300A               	movlw	10
  3872  02D9  00F5               	movwf	i1___lwdiv@divisor
  3873  02DA  3000               	movlw	0
  3874  02DB  00F6               	movwf	i1___lwdiv@divisor+1
  3875  02DC  0842               	movf	_accumilated_tmeperature+1,w
  3876  02DD  00F8               	movwf	i1___lwdiv@dividend+1
  3877  02DE  0841               	movf	_accumilated_tmeperature,w
  3878  02DF  00F7               	movwf	i1___lwdiv@dividend
  3879  02E0  120A  118A  258A  120A  118A  	fcall	i1___lwdiv
  3880  02E5  0876               	movf	?i1___lwdiv+1,w
  3881  02E6  1283               	bcf	3,5	;RP0=0, select bank0
  3882  02E7  1303               	bcf	3,6	;RP1=0, select bank0
  3883  02E8  00C4               	movwf	_TEMPRETURE+1
  3884  02E9  0875               	movf	?i1___lwdiv,w
  3885  02EA  00C3               	movwf	_TEMPRETURE
  3886  02EB                     i1l2323:
  3887                           
  3888                           ;main.c: 349:                 RB5 = ~RB5;
  3889  02EB  3020               	movlw	32
  3890  02EC  0686               	xorwf	6,f
  3891  02ED                     i1l2325:
  3892                           
  3893                           ;main.c: 351:                 Number_Tempreture = 0;
  3894  02ED  01C8               	clrf	_Number_Tempreture
  3895  02EE                     i1l2327:
  3896                           
  3897                           ;main.c: 352:                 accumilated_tmeperature= 0;
  3898  02EE  01C1               	clrf	_accumilated_tmeperature
  3899  02EF  01C2               	clrf	_accumilated_tmeperature+1
  3900  02F0                     i1l185:
  3901  02F0  0830               	movf	??_ISR+5,w
  3902  02F1  00FF               	movwf	btemp+1
  3903  02F2  082F               	movf	??_ISR+4,w
  3904  02F3  008A               	movwf	10
  3905  02F4  082E               	movf	??_ISR+3,w
  3906  02F5  0084               	movwf	4
  3907  02F6  0E2D               	swapf	(??_ISR+2)^0,w
  3908  02F7  0083               	movwf	3
  3909  02F8  0EFE               	swapf	btemp,f
  3910  02F9  0E7E               	swapf	btemp,w
  3911  02FA  0009               	retfie
  3912  02FB                     __end_of_ISR:
  3913                           
  3914                           	psect	intentry
  3915  0004                     __pintentry:	
  3916                           ;incstack = 0
  3917                           ; Regs used in _ISR: [wreg-fsr0h+status,2+status,0+btemp+1+pclath+cstack]
  3918                           
  3919  0004                     interrupt_function:
  3920  007E                     saved_w	set	btemp
  3921  0004  00FE               	movwf	btemp
  3922  0005  0E03               	swapf	3,w
  3923  0006  1283               	bcf	3,5	;RP0=0, select bank0
  3924  0007  1303               	bcf	3,6	;RP1=0, select bank0
  3925  0008  00AD               	movwf	??_ISR+2
  3926  0009  0804               	movf	4,w
  3927  000A  00AE               	movwf	??_ISR+3
  3928  000B  080A               	movf	10,w
  3929  000C  00AF               	movwf	??_ISR+4
  3930  000D  087F               	movf	btemp+1,w
  3931  000E  00B0               	movwf	??_ISR+5
  3932  000F  120A  118A  2A93   	ljmp	_ISR
  3933                           
  3934                           	psect	text21
  3935  0356                     __ptext21:	
  3936 ;; *************** function _update_tempreture *****************
  3937 ;; Defined at:
  3938 ;;		line 292 in file "main.c"
  3939 ;; Parameters:    Size  Location     Type
  3940 ;;		None
  3941 ;; Auto vars:     Size  Location     Type
  3942 ;;  temp            2    7[BANK0 ] unsigned int 
  3943 ;;  x               1   10[BANK0 ] unsigned char 
  3944 ;;  y               1    9[BANK0 ] unsigned char 
  3945 ;; Return value:  Size  Location     Type
  3946 ;;                  1    wreg      void 
  3947 ;; Registers used:
  3948 ;;		wreg, fsr0l, fsr0h, status,2, status,0, btemp+1, pclath, cstack
  3949 ;; Tracked objects:
  3950 ;;		On entry : 0/0
  3951 ;;		On exit  : 0/0
  3952 ;;		Unchanged: 0/0
  3953 ;; Data sizes:     COMMON   BANK0   BANK1   BANK3   BANK2
  3954 ;;      Params:         0       0       0       0       0
  3955 ;;      Locals:         0       4       0       0       0
  3956 ;;      Temps:          0       4       0       0       0
  3957 ;;      Totals:         0       8       0       0       0
  3958 ;;Total ram usage:        8 bytes
  3959 ;; Hardware stack levels used:    1
  3960 ;; Hardware stack levels required when called:    2
  3961 ;; This function calls:
  3962 ;;		___wmul
  3963 ;;		_adc_amostra
  3964 ;;		_itoa
  3965 ;; This function is called by:
  3966 ;;		_ISR
  3967 ;; This function uses a non-reentrant model
  3968 ;;
  3969                           
  3970                           
  3971                           ;psect for function _update_tempreture
  3972  0356                     _update_tempreture:
  3973  0356                     i1l2219:	
  3974                           ;incstack = 0
  3975                           ; Regs used in _update_tempreture: [wreg-fsr0h+status,2+status,0+btemp+1+pclath+cstack]
  3976                           
  3977                           
  3978                           ;main.c: 294:     unsigned int temp=(adc_amostra(2)*10)/2;
  3979  0356  3002               	movlw	2
  3980  0357  120A  118A  24B0  120A  118A  	fcall	_adc_amostra
  3981  035C  0871               	movf	?_adc_amostra+1,w
  3982  035D  00FB               	movwf	___wmul@multiplier+1
  3983  035E  0870               	movf	?_adc_amostra,w
  3984  035F  00FA               	movwf	___wmul@multiplier
  3985  0360  300A               	movlw	10
  3986  0361  00FC               	movwf	___wmul@multiplicand
  3987  0362  3000               	movlw	0
  3988  0363  00FD               	movwf	___wmul@multiplicand+1
  3989  0364  120A  118A  26B3  120A  118A  	fcall	___wmul
  3990  0369  087A               	movf	?___wmul,w
  3991  036A  1283               	bcf	3,5	;RP0=0, select bank0
  3992  036B  1303               	bcf	3,6	;RP1=0, select bank0
  3993  036C  00A3               	movwf	??_update_tempreture
  3994  036D  087B               	movf	?___wmul+1,w
  3995  036E  00A4               	movwf	??_update_tempreture+1
  3996  036F  1003               	clrc
  3997  0370  0CA4               	rrf	??_update_tempreture+1,f
  3998  0371  0CA3               	rrf	??_update_tempreture,f
  3999  0372  0823               	movf	??_update_tempreture,w
  4000  0373  00A7               	movwf	update_tempreture@temp
  4001  0374  0824               	movf	??_update_tempreture+1,w
  4002  0375  00A8               	movwf	update_tempreture@temp+1
  4003  0376                     i1l2221:
  4004                           
  4005                           ;main.c: 295:     itoa(temp,str);
  4006  0376  0828               	movf	update_tempreture@temp+1,w
  4007  0377  00A1               	movwf	itoa@val+1
  4008  0378  0827               	movf	update_tempreture@temp,w
  4009  0379  00A0               	movwf	itoa@val
  4010  037A  304A               	movlw	(low (_str| 0))& (0+255)
  4011  037B  00FF               	movwf	btemp+1
  4012  037C  087F               	movf	btemp+1,w
  4013  037D  00A2               	movwf	itoa@str
  4014  037E  120A  118A  23AE  120A  118A  	fcall	_itoa
  4015  0383                     i1l2223:
  4016                           
  4017                           ;main.c: 296:     unsigned char y= str[2];
  4018  0383  1283               	bcf	3,5	;RP0=0, select bank0
  4019  0384  1303               	bcf	3,6	;RP1=0, select bank0
  4020  0385  084C               	movf	_str+2,w
  4021  0386  00FF               	movwf	btemp+1
  4022  0387  087F               	movf	btemp+1,w
  4023  0388  00A9               	movwf	update_tempreture@y
  4024  0389                     i1l2225:
  4025                           
  4026                           ;main.c: 297:     unsigned char x= str[3];
  4027  0389  084D               	movf	_str+3,w
  4028  038A  00FF               	movwf	btemp+1
  4029  038B  087F               	movf	btemp+1,w
  4030  038C  00AA               	movwf	update_tempreture@x
  4031  038D                     i1l2227:
  4032                           
  4033                           ;main.c: 298:     accumilated_tmeperature += (y*10)+x;
  4034  038D  0829               	movf	update_tempreture@y,w
  4035  038E  00A3               	movwf	??_update_tempreture
  4036  038F  01A4               	clrf	??_update_tempreture+1
  4037  0390  0823               	movf	??_update_tempreture,w
  4038  0391  00FA               	movwf	___wmul@multiplier
  4039  0392  0824               	movf	??_update_tempreture+1,w
  4040  0393  00FB               	movwf	___wmul@multiplier+1
  4041  0394  300A               	movlw	10
  4042  0395  00FC               	movwf	___wmul@multiplicand
  4043  0396  3000               	movlw	0
  4044  0397  00FD               	movwf	___wmul@multiplicand+1
  4045  0398  120A  118A  26B3  120A  118A  	fcall	___wmul
  4046  039D  1283               	bcf	3,5	;RP0=0, select bank0
  4047  039E  1303               	bcf	3,6	;RP1=0, select bank0
  4048  039F  082A               	movf	update_tempreture@x,w
  4049  03A0  077A               	addwf	?___wmul,w
  4050  03A1  00A5               	movwf	??_update_tempreture+2
  4051  03A2  3000               	movlw	0
  4052  03A3  1803               	skipnc
  4053  03A4  3001               	movlw	1
  4054  03A5  077B               	addwf	?___wmul+1,w
  4055  03A6  00A6               	movwf	??_update_tempreture+3
  4056  03A7  0825               	movf	??_update_tempreture+2,w
  4057  03A8  07C1               	addwf	_accumilated_tmeperature,f
  4058  03A9  1803               	skipnc
  4059  03AA  0AC2               	incf	_accumilated_tmeperature+1,f
  4060  03AB  0826               	movf	??_update_tempreture+3,w
  4061  03AC  07C2               	addwf	_accumilated_tmeperature+1,f
  4062  03AD                     i1l170:
  4063  03AD  0008               	return
  4064  03AE                     __end_of_update_tempreture:
  4065                           
  4066                           	psect	text22
  4067  03AE                     __ptext22:	
  4068 ;; *************** function _itoa *****************
  4069 ;; Defined at:
  4070 ;;		line 27 in file "itoa.c"
  4071 ;; Parameters:    Size  Location     Type
  4072 ;;  val             2    0[BANK0 ] unsigned int 
  4073 ;;  str             1    2[BANK0 ] PTR unsigned char 
  4074 ;;		 -> str(6), 
  4075 ;; Auto vars:     Size  Location     Type
  4076 ;;		None
  4077 ;; Return value:  Size  Location     Type
  4078 ;;                  1    wreg      void 
  4079 ;; Registers used:
  4080 ;;		wreg, fsr0l, fsr0h, status,2, status,0, btemp+1, pclath, cstack
  4081 ;; Tracked objects:
  4082 ;;		On entry : 0/0
  4083 ;;		On exit  : 0/0
  4084 ;;		Unchanged: 0/0
  4085 ;; Data sizes:     COMMON   BANK0   BANK1   BANK3   BANK2
  4086 ;;      Params:         0       3       0       0       0
  4087 ;;      Locals:         0       0       0       0       0
  4088 ;;      Temps:          0       0       0       0       0
  4089 ;;      Totals:         0       3       0       0       0
  4090 ;;Total ram usage:        3 bytes
  4091 ;; Hardware stack levels used:    1
  4092 ;; Hardware stack levels required when called:    1
  4093 ;; This function calls:
  4094 ;;		i1___lwdiv
  4095 ;;		i1___lwmod
  4096 ;; This function is called by:
  4097 ;;		_update_tempreture
  4098 ;; This function uses a non-reentrant model
  4099 ;;
  4100                           
  4101                           
  4102                           ;psect for function _itoa
  4103  03AE                     _itoa:
  4104  03AE                     i1l2125:	
  4105                           ;incstack = 0
  4106                           ; Regs used in _itoa: [wreg-fsr0h+status,2+status,0+btemp+1+pclath+cstack]
  4107                           
  4108                           
  4109                           ;itoa.c: 27: void itoa(unsigned int val, unsigned char* str );itoa.c: 28: {;itoa.c: 32: 
      +                            str[2]=((val%1000)/100);
  4110  03AE  3064               	movlw	100
  4111  03AF  00F5               	movwf	i1___lwdiv@divisor
  4112  03B0  3000               	movlw	0
  4113  03B1  00F6               	movwf	i1___lwdiv@divisor+1
  4114  03B2  1283               	bcf	3,5	;RP0=0, select bank0
  4115  03B3  1303               	bcf	3,6	;RP1=0, select bank0
  4116  03B4  0821               	movf	itoa@val+1,w
  4117  03B5  00F3               	movwf	i1___lwmod@dividend+1
  4118  03B6  0820               	movf	itoa@val,w
  4119  03B7  00F2               	movwf	i1___lwmod@dividend
  4120  03B8  30E8               	movlw	232
  4121  03B9  00F0               	movwf	i1___lwmod@divisor
  4122  03BA  3003               	movlw	3
  4123  03BB  00F1               	movwf	i1___lwmod@divisor+1
  4124  03BC  120A  118A  2647  120A  118A  	fcall	i1___lwmod
  4125  03C1  0871               	movf	?i1___lwmod+1,w
  4126  03C2  00F8               	movwf	i1___lwdiv@dividend+1
  4127  03C3  0870               	movf	?i1___lwmod,w
  4128  03C4  00F7               	movwf	i1___lwdiv@dividend
  4129  03C5  120A  118A  258A  120A  118A  	fcall	i1___lwdiv
  4130  03CA  0875               	movf	?i1___lwdiv,w
  4131  03CB  00FF               	movwf	btemp+1
  4132  03CC  1283               	bcf	3,5	;RP0=0, select bank0
  4133  03CD  1303               	bcf	3,6	;RP1=0, select bank0
  4134  03CE  0822               	movf	itoa@str,w
  4135  03CF  3E02               	addlw	2
  4136  03D0  0084               	movwf	4
  4137  03D1  087F               	movf	btemp+1,w
  4138  03D2  1383               	bcf	3,7	;select IRP bank0
  4139  03D3  0080               	movwf	0
  4140                           
  4141                           ;itoa.c: 33:   str[3]=((val%100)/10);
  4142  03D4  300A               	movlw	10
  4143  03D5  00F5               	movwf	i1___lwdiv@divisor
  4144  03D6  3000               	movlw	0
  4145  03D7  00F6               	movwf	i1___lwdiv@divisor+1
  4146  03D8  0821               	movf	itoa@val+1,w
  4147  03D9  00F3               	movwf	i1___lwmod@dividend+1
  4148  03DA  0820               	movf	itoa@val,w
  4149  03DB  00F2               	movwf	i1___lwmod@dividend
  4150  03DC  3064               	movlw	100
  4151  03DD  00F0               	movwf	i1___lwmod@divisor
  4152  03DE  3000               	movlw	0
  4153  03DF  00F1               	movwf	i1___lwmod@divisor+1
  4154  03E0  120A  118A  2647  120A  118A  	fcall	i1___lwmod
  4155  03E5  0871               	movf	?i1___lwmod+1,w
  4156  03E6  00F8               	movwf	i1___lwdiv@dividend+1
  4157  03E7  0870               	movf	?i1___lwmod,w
  4158  03E8  00F7               	movwf	i1___lwdiv@dividend
  4159  03E9  120A  118A  258A  120A  118A  	fcall	i1___lwdiv
  4160  03EE  0875               	movf	?i1___lwdiv,w
  4161  03EF  00FF               	movwf	btemp+1
  4162  03F0  1283               	bcf	3,5	;RP0=0, select bank0
  4163  03F1  1303               	bcf	3,6	;RP1=0, select bank0
  4164  03F2  0822               	movf	itoa@str,w
  4165  03F3  3E03               	addlw	3
  4166  03F4  0084               	movwf	4
  4167  03F5  087F               	movf	btemp+1,w
  4168  03F6  1383               	bcf	3,7	;select IRP bank0
  4169  03F7  0080               	movwf	0
  4170  03F8                     i1l2127:
  4171                           
  4172                           ;itoa.c: 34:   if (str[3] != 0)
  4173  03F8  0822               	movf	itoa@str,w
  4174  03F9  3E03               	addlw	3
  4175  03FA  0084               	movwf	4
  4176  03FB  0800               	movf	0,w
  4177  03FC  1903               	btfsc	3,2
  4178  03FD  2BFF               	goto	u166_21
  4179  03FE  2C00               	goto	u166_20
  4180  03FF                     u166_21:
  4181  03FF  2C05               	goto	i1l219
  4182  0400                     u166_20:
  4183  0400                     i1l2129:
  4184                           
  4185                           ;itoa.c: 35:       str[3]-=1;
  4186  0400  0822               	movf	itoa@str,w
  4187  0401  3E03               	addlw	3
  4188  0402  0084               	movwf	4
  4189  0403  3001               	movlw	1
  4190  0404  0280               	subwf	0,f
  4191  0405                     i1l219:
  4192  0405  0008               	return
  4193  0406                     __end_of_itoa:
  4194                           
  4195                           	psect	text23
  4196  0647                     __ptext23:	
  4197 ;; *************** function i1___lwmod *****************
  4198 ;; Defined at:
  4199 ;;		line 5 in file "C:\Program Files\Microchip\xc8\v2.20\pic\sources\c90\common\lwmod.c"
  4200 ;; Parameters:    Size  Location     Type
  4201 ;;  divisor         2    0[COMMON] unsigned int 
  4202 ;;  dividend        2    2[COMMON] unsigned int 
  4203 ;; Auto vars:     Size  Location     Type
  4204 ;;  counter         1    4[COMMON] unsigned char 
  4205 ;; Return value:  Size  Location     Type
  4206 ;;                  2    0[COMMON] unsigned int 
  4207 ;; Registers used:
  4208 ;;		wreg, status,2, status,0, btemp+1
  4209 ;; Tracked objects:
  4210 ;;		On entry : 0/0
  4211 ;;		On exit  : 0/0
  4212 ;;		Unchanged: 0/0
  4213 ;; Data sizes:     COMMON   BANK0   BANK1   BANK3   BANK2
  4214 ;;      Params:         4       0       0       0       0
  4215 ;;      Locals:         1       0       0       0       0
  4216 ;;      Temps:          0       0       0       0       0
  4217 ;;      Totals:         5       0       0       0       0
  4218 ;;Total ram usage:        5 bytes
  4219 ;; Hardware stack levels used:    1
  4220 ;; This function calls:
  4221 ;;		Nothing
  4222 ;; This function is called by:
  4223 ;;		_itoa
  4224 ;; This function uses a non-reentrant model
  4225 ;;
  4226                           
  4227                           
  4228                           ;psect for function i1___lwmod
  4229  0647                     i1___lwmod:
  4230  0647                     i1l1963:	
  4231                           ;incstack = 0
  4232                           ; Regs used in i1___lwmod: [wreg+status,2+status,0+btemp+1]
  4233                           
  4234  0647  0870               	movf	i1___lwmod@divisor,w
  4235  0648  0471               	iorwf	i1___lwmod@divisor+1,w
  4236  0649  1903               	btfsc	3,2
  4237  064A  2E4C               	goto	u138_21
  4238  064B  2E4D               	goto	u138_20
  4239  064C                     u138_21:
  4240  064C  2E7C               	goto	i1l1981
  4241  064D                     u138_20:
  4242  064D                     i1l1965:
  4243  064D  01F4               	clrf	i1___lwmod@counter
  4244  064E  0AF4               	incf	i1___lwmod@counter,f
  4245  064F  2E5B               	goto	i1l1971
  4246  0650                     i1l1967:
  4247  0650  3001               	movlw	1
  4248  0651                     u139_25:
  4249  0651  1003               	clrc
  4250  0652  0DF0               	rlf	i1___lwmod@divisor,f
  4251  0653  0DF1               	rlf	i1___lwmod@divisor+1,f
  4252  0654  3EFF               	addlw	-1
  4253  0655  1D03               	skipz
  4254  0656  2E51               	goto	u139_25
  4255  0657                     i1l1969:
  4256  0657  3001               	movlw	1
  4257  0658  00FF               	movwf	btemp+1
  4258  0659  087F               	movf	btemp+1,w
  4259  065A  07F4               	addwf	i1___lwmod@counter,f
  4260  065B                     i1l1971:
  4261  065B  1FF1               	btfss	i1___lwmod@divisor+1,7
  4262  065C  2E5E               	goto	u140_21
  4263  065D  2E5F               	goto	u140_20
  4264  065E                     u140_21:
  4265  065E  2E50               	goto	i1l1967
  4266  065F                     u140_20:
  4267  065F                     i1l1973:
  4268  065F  0871               	movf	i1___lwmod@divisor+1,w
  4269  0660  0273               	subwf	i1___lwmod@dividend+1,w
  4270  0661  1D03               	skipz
  4271  0662  2E65               	goto	u141_25
  4272  0663  0870               	movf	i1___lwmod@divisor,w
  4273  0664  0272               	subwf	i1___lwmod@dividend,w
  4274  0665                     u141_25:
  4275  0665  1C03               	skipc
  4276  0666  2E68               	goto	u141_21
  4277  0667  2E69               	goto	u141_20
  4278  0668                     u141_21:
  4279  0668  2E6F               	goto	i1l1977
  4280  0669                     u141_20:
  4281  0669                     i1l1975:
  4282  0669  0870               	movf	i1___lwmod@divisor,w
  4283  066A  02F2               	subwf	i1___lwmod@dividend,f
  4284  066B  0871               	movf	i1___lwmod@divisor+1,w
  4285  066C  1C03               	skipc
  4286  066D  03F3               	decf	i1___lwmod@dividend+1,f
  4287  066E  02F3               	subwf	i1___lwmod@dividend+1,f
  4288  066F                     i1l1977:
  4289  066F  3001               	movlw	1
  4290  0670                     u142_25:
  4291  0670  1003               	clrc
  4292  0671  0CF1               	rrf	i1___lwmod@divisor+1,f
  4293  0672  0CF0               	rrf	i1___lwmod@divisor,f
  4294  0673  3EFF               	addlw	-1
  4295  0674  1D03               	skipz
  4296  0675  2E70               	goto	u142_25
  4297  0676                     i1l1979:
  4298  0676  3001               	movlw	1
  4299  0677  02F4               	subwf	i1___lwmod@counter,f
  4300  0678  1D03               	btfss	3,2
  4301  0679  2E7B               	goto	u143_21
  4302  067A  2E7C               	goto	u143_20
  4303  067B                     u143_21:
  4304  067B  2E5F               	goto	i1l1973
  4305  067C                     u143_20:
  4306  067C                     i1l1981:
  4307  067C  0873               	movf	i1___lwmod@dividend+1,w
  4308  067D  00F1               	movwf	?i1___lwmod+1
  4309  067E  0872               	movf	i1___lwmod@dividend,w
  4310  067F  00F0               	movwf	?i1___lwmod
  4311  0680                     i1l735:
  4312  0680  0008               	return
  4313  0681                     __end_ofi1___lwmod:
  4314                           
  4315                           	psect	text24
  4316  058A                     __ptext24:	
  4317 ;; *************** function i1___lwdiv *****************
  4318 ;; Defined at:
  4319 ;;		line 5 in file "C:\Program Files\Microchip\xc8\v2.20\pic\sources\c90\common\lwdiv.c"
  4320 ;; Parameters:    Size  Location     Type
  4321 ;;  divisor         2    5[COMMON] unsigned int 
  4322 ;;  dividend        2    7[COMMON] unsigned int 
  4323 ;; Auto vars:     Size  Location     Type
  4324 ;;  quotient        2    9[COMMON] unsigned int 
  4325 ;;  counter         1   11[COMMON] unsigned char 
  4326 ;; Return value:  Size  Location     Type
  4327 ;;                  2    5[COMMON] unsigned int 
  4328 ;; Registers used:
  4329 ;;		wreg, status,2, status,0, btemp+1
  4330 ;; Tracked objects:
  4331 ;;		On entry : 0/0
  4332 ;;		On exit  : 0/0
  4333 ;;		Unchanged: 0/0
  4334 ;; Data sizes:     COMMON   BANK0   BANK1   BANK3   BANK2
  4335 ;;      Params:         4       0       0       0       0
  4336 ;;      Locals:         3       0       0       0       0
  4337 ;;      Temps:          0       0       0       0       0
  4338 ;;      Totals:         7       0       0       0       0
  4339 ;;Total ram usage:        7 bytes
  4340 ;; Hardware stack levels used:    1
  4341 ;; This function calls:
  4342 ;;		Nothing
  4343 ;; This function is called by:
  4344 ;;		_ISR
  4345 ;;		_itoa
  4346 ;; This function uses a non-reentrant model
  4347 ;;
  4348                           
  4349                           
  4350                           ;psect for function i1___lwdiv
  4351  058A                     i1___lwdiv:
  4352  058A                     i1l1937:	
  4353                           ;incstack = 0
  4354                           ; Regs used in i1___lwdiv: [wreg+status,2+status,0+btemp+1]
  4355                           
  4356  058A  01F9               	clrf	i1___lwdiv@quotient
  4357  058B  01FA               	clrf	i1___lwdiv@quotient+1
  4358  058C                     i1l1939:
  4359  058C  0875               	movf	i1___lwdiv@divisor,w
  4360  058D  0476               	iorwf	i1___lwdiv@divisor+1,w
  4361  058E  1903               	btfsc	3,2
  4362  058F  2D91               	goto	u131_21
  4363  0590  2D92               	goto	u131_20
  4364  0591                     u131_21:
  4365  0591  2DC9               	goto	i1l1959
  4366  0592                     u131_20:
  4367  0592                     i1l1941:
  4368  0592  01FB               	clrf	i1___lwdiv@counter
  4369  0593  0AFB               	incf	i1___lwdiv@counter,f
  4370  0594  2DA0               	goto	i1l1947
  4371  0595                     i1l1943:
  4372  0595  3001               	movlw	1
  4373  0596                     u132_25:
  4374  0596  1003               	clrc
  4375  0597  0DF5               	rlf	i1___lwdiv@divisor,f
  4376  0598  0DF6               	rlf	i1___lwdiv@divisor+1,f
  4377  0599  3EFF               	addlw	-1
  4378  059A  1D03               	skipz
  4379  059B  2D96               	goto	u132_25
  4380  059C                     i1l1945:
  4381  059C  3001               	movlw	1
  4382  059D  00FF               	movwf	btemp+1
  4383  059E  087F               	movf	btemp+1,w
  4384  059F  07FB               	addwf	i1___lwdiv@counter,f
  4385  05A0                     i1l1947:
  4386  05A0  1FF6               	btfss	i1___lwdiv@divisor+1,7
  4387  05A1  2DA3               	goto	u133_21
  4388  05A2  2DA4               	goto	u133_20
  4389  05A3                     u133_21:
  4390  05A3  2D95               	goto	i1l1943
  4391  05A4                     u133_20:
  4392  05A4                     i1l1949:
  4393  05A4  3001               	movlw	1
  4394  05A5                     u134_25:
  4395  05A5  1003               	clrc
  4396  05A6  0DF9               	rlf	i1___lwdiv@quotient,f
  4397  05A7  0DFA               	rlf	i1___lwdiv@quotient+1,f
  4398  05A8  3EFF               	addlw	-1
  4399  05A9  1D03               	skipz
  4400  05AA  2DA5               	goto	u134_25
  4401  05AB  0876               	movf	i1___lwdiv@divisor+1,w
  4402  05AC  0278               	subwf	i1___lwdiv@dividend+1,w
  4403  05AD  1D03               	skipz
  4404  05AE  2DB1               	goto	u135_25
  4405  05AF  0875               	movf	i1___lwdiv@divisor,w
  4406  05B0  0277               	subwf	i1___lwdiv@dividend,w
  4407  05B1                     u135_25:
  4408  05B1  1C03               	skipc
  4409  05B2  2DB4               	goto	u135_21
  4410  05B3  2DB5               	goto	u135_20
  4411  05B4                     u135_21:
  4412  05B4  2DBC               	goto	i1l1955
  4413  05B5                     u135_20:
  4414  05B5                     i1l1951:
  4415  05B5  0875               	movf	i1___lwdiv@divisor,w
  4416  05B6  02F7               	subwf	i1___lwdiv@dividend,f
  4417  05B7  0876               	movf	i1___lwdiv@divisor+1,w
  4418  05B8  1C03               	skipc
  4419  05B9  03F8               	decf	i1___lwdiv@dividend+1,f
  4420  05BA  02F8               	subwf	i1___lwdiv@dividend+1,f
  4421  05BB                     i1l1953:
  4422  05BB  1479               	bsf	i1___lwdiv@quotient,0
  4423  05BC                     i1l1955:
  4424  05BC  3001               	movlw	1
  4425  05BD                     u136_25:
  4426  05BD  1003               	clrc
  4427  05BE  0CF6               	rrf	i1___lwdiv@divisor+1,f
  4428  05BF  0CF5               	rrf	i1___lwdiv@divisor,f
  4429  05C0  3EFF               	addlw	-1
  4430  05C1  1D03               	skipz
  4431  05C2  2DBD               	goto	u136_25
  4432  05C3                     i1l1957:
  4433  05C3  3001               	movlw	1
  4434  05C4  02FB               	subwf	i1___lwdiv@counter,f
  4435  05C5  1D03               	btfss	3,2
  4436  05C6  2DC8               	goto	u137_21
  4437  05C7  2DC9               	goto	u137_20
  4438  05C8                     u137_21:
  4439  05C8  2DA4               	goto	i1l1949
  4440  05C9                     u137_20:
  4441  05C9                     i1l1959:
  4442  05C9  087A               	movf	i1___lwdiv@quotient+1,w
  4443  05CA  00F6               	movwf	?i1___lwdiv+1
  4444  05CB  0879               	movf	i1___lwdiv@quotient,w
  4445  05CC  00F5               	movwf	?i1___lwdiv
  4446  05CD                     i1l725:
  4447  05CD  0008               	return
  4448  05CE                     __end_ofi1___lwdiv:
  4449                           
  4450                           	psect	text25
  4451  04B0                     __ptext25:	
  4452 ;; *************** function _adc_amostra *****************
  4453 ;; Defined at:
  4454 ;;		line 44 in file "adc.c"
  4455 ;; Parameters:    Size  Location     Type
  4456 ;;  canal           1    wreg     unsigned char 
  4457 ;; Auto vars:     Size  Location     Type
  4458 ;;  canal           1    9[COMMON] unsigned char 
  4459 ;; Return value:  Size  Location     Type
  4460 ;;                  2    0[COMMON] unsigned int 
  4461 ;; Registers used:
  4462 ;;		wreg, fsr0l, fsr0h, status,2, status,0
  4463 ;; Tracked objects:
  4464 ;;		On entry : 0/0
  4465 ;;		On exit  : 0/0
  4466 ;;		Unchanged: 0/0
  4467 ;; Data sizes:     COMMON   BANK0   BANK1   BANK3   BANK2
  4468 ;;      Params:         2       0       0       0       0
  4469 ;;      Locals:         1       0       0       0       0
  4470 ;;      Temps:          7       0       0       0       0
  4471 ;;      Totals:        10       0       0       0       0
  4472 ;;Total ram usage:       10 bytes
  4473 ;; Hardware stack levels used:    1
  4474 ;; This function calls:
  4475 ;;		Nothing
  4476 ;; This function is called by:
  4477 ;;		_update_tempreture
  4478 ;; This function uses a non-reentrant model
  4479 ;;
  4480                           
  4481                           
  4482                           ;psect for function _adc_amostra
  4483  04B0                     _adc_amostra:
  4484                           
  4485                           ;incstack = 0
  4486                           ; Regs used in _adc_amostra: [wreg-fsr0h+status,2+status,0]
  4487                           ;adc_amostra@canal stored from wreg
  4488  04B0  00F9               	movwf	adc_amostra@canal
  4489  04B1                     i1l2105:
  4490                           
  4491                           ;adc.c: 44: unsigned int adc_amostra(unsigned char canal);adc.c: 45: {;adc.c: 62:      s
      +                          witch(canal)
  4492  04B1  2CC1               	goto	i1l2115
  4493  04B2                     i1l2107:
  4494                           
  4495                           ;adc.c: 65:         ADCON0=0x01;
  4496  04B2  3001               	movlw	1
  4497  04B3  1283               	bcf	3,5	;RP0=0, select bank0
  4498  04B4  1303               	bcf	3,6	;RP1=0, select bank0
  4499  04B5  009F               	movwf	31	;volatile
  4500                           
  4501                           ;adc.c: 66:         break;
  4502  04B6  2CD4               	goto	i1l209
  4503  04B7                     i1l2109:
  4504                           
  4505                           ;adc.c: 68:         ADCON0=0x09;
  4506  04B7  3009               	movlw	9
  4507  04B8  1283               	bcf	3,5	;RP0=0, select bank0
  4508  04B9  1303               	bcf	3,6	;RP1=0, select bank0
  4509  04BA  009F               	movwf	31	;volatile
  4510                           
  4511                           ;adc.c: 69:         break;
  4512  04BB  2CD4               	goto	i1l209
  4513  04BC                     i1l2111:
  4514                           
  4515                           ;adc.c: 71:         ADCON0=0x11;
  4516  04BC  3011               	movlw	17
  4517  04BD  1283               	bcf	3,5	;RP0=0, select bank0
  4518  04BE  1303               	bcf	3,6	;RP1=0, select bank0
  4519  04BF  009F               	movwf	31	;volatile
  4520                           
  4521                           ;adc.c: 72:         break;
  4522  04C0  2CD4               	goto	i1l209
  4523  04C1                     i1l2115:
  4524  04C1  0879               	movf	adc_amostra@canal,w
  4525  04C2  00F2               	movwf	??_adc_amostra
  4526  04C3  01F3               	clrf	??_adc_amostra+1
  4527                           
  4528                           ; Switch on 2 bytes has been partitioned into a top level switch of size 1, and 1 sub-sw
      +                          itches
  4529                           ; Switch size 1, requested type "simple"
  4530                           ; Number of cases is 1, Range of values is 0 to 0
  4531                           ; switch strategies available:
  4532                           ; Name         Instructions Cycles
  4533                           ; simple_byte            4     3 (average)
  4534                           ; direct_byte           11     8 (fixed)
  4535                           ; jumptable            260     6 (fixed)
  4536                           ;	Chosen strategy is simple_byte
  4537  04C4  0873               	movf	??_adc_amostra+1,w
  4538  04C5  3A00               	xorlw	0	; case 0
  4539  04C6  1903               	skipnz
  4540  04C7  2CC9               	goto	i1l2847
  4541  04C8  2CD4               	goto	i1l209
  4542  04C9                     i1l2847:
  4543                           
  4544                           ; Switch size 1, requested type "simple"
  4545                           ; Number of cases is 3, Range of values is 0 to 2
  4546                           ; switch strategies available:
  4547                           ; Name         Instructions Cycles
  4548                           ; simple_byte           10     6 (average)
  4549                           ; direct_byte           17     8 (fixed)
  4550                           ; jumptable            260     6 (fixed)
  4551                           ;	Chosen strategy is simple_byte
  4552  04C9  0872               	movf	??_adc_amostra,w
  4553  04CA  3A00               	xorlw	0	; case 0
  4554  04CB  1903               	skipnz
  4555  04CC  2CB2               	goto	i1l2107
  4556  04CD  3A01               	xorlw	1	; case 1
  4557  04CE  1903               	skipnz
  4558  04CF  2CB7               	goto	i1l2109
  4559  04D0  3A03               	xorlw	3	; case 2
  4560  04D1  1903               	skipnz
  4561  04D2  2CBC               	goto	i1l2111
  4562  04D3  2CD4               	goto	i1l209
  4563  04D4                     i1l209:
  4564                           
  4565                           ;adc.c: 77:     ADCON0bits.GO=1;
  4566  04D4  1283               	bcf	3,5	;RP0=0, select bank0
  4567  04D5  1303               	bcf	3,6	;RP1=0, select bank0
  4568  04D6  151F               	bsf	31,2	;volatile
  4569  04D7                     i1l212:	
  4570                           ;adc.c: 78:     while(ADCON0bits.GO == 1);
  4571                           
  4572  04D7  191F               	btfsc	31,2	;volatile
  4573  04D8  2CDA               	goto	u164_21
  4574  04D9  2CDB               	goto	u164_20
  4575  04DA                     u164_21:
  4576  04DA  2CD7               	goto	i1l212
  4577  04DB                     u164_20:
  4578  04DB                     i1l2117:
  4579                           
  4580                           ;adc.c: 80:    return ((((unsigned int)ADRESH)<<2)|(ADRESL>>6));
  4581  04DB  1683               	bsf	3,5	;RP0=1, select bank1
  4582  04DC  1303               	bcf	3,6	;RP1=0, select bank1
  4583  04DD  081E               	movf	30,w	;volatile
  4584  04DE  00F2               	movwf	??_adc_amostra
  4585  04DF  3006               	movlw	6
  4586  04E0                     u165_25:
  4587  04E0  1003               	clrc
  4588  04E1  0CF2               	rrf	??_adc_amostra,f
  4589  04E2  3EFF               	addlw	-1
  4590  04E3  1D03               	skipz
  4591  04E4  2CE0               	goto	u165_25
  4592  04E5  0872               	movf	??_adc_amostra,w
  4593  04E6  00F3               	movwf	??_adc_amostra+1
  4594  04E7  01F4               	clrf	??_adc_amostra+2
  4595  04E8  1283               	bcf	3,5	;RP0=0, select bank0
  4596  04E9  1303               	bcf	3,6	;RP1=0, select bank0
  4597  04EA  081E               	movf	30,w	;volatile
  4598  04EB  00F5               	movwf	??_adc_amostra+3
  4599  04EC  01F6               	clrf	??_adc_amostra+4
  4600  04ED  1003               	clrc
  4601  04EE  0DF5               	rlf	??_adc_amostra+3,f
  4602  04EF  0DF6               	rlf	??_adc_amostra+4,f
  4603  04F0  1003               	clrc
  4604  04F1  0DF5               	rlf	??_adc_amostra+3,f
  4605  04F2  0DF6               	rlf	??_adc_amostra+4,f
  4606  04F3  0873               	movf	??_adc_amostra+1,w
  4607  04F4  0475               	iorwf	??_adc_amostra+3,w
  4608  04F5  00F7               	movwf	??_adc_amostra+5
  4609  04F6  0874               	movf	??_adc_amostra+2,w
  4610  04F7  0476               	iorwf	??_adc_amostra+4,w
  4611  04F8  00F8               	movwf	??_adc_amostra+6
  4612  04F9  0877               	movf	??_adc_amostra+5,w
  4613  04FA  00F0               	movwf	?_adc_amostra
  4614  04FB  0878               	movf	??_adc_amostra+6,w
  4615  04FC  00F1               	movwf	?_adc_amostra+1
  4616  04FD                     i1l215:
  4617  04FD  0008               	return
  4618  04FE                     __end_of_adc_amostra:
  4619                           
  4620                           	psect	text26
  4621  06B3                     __ptext26:	
  4622 ;; *************** function ___wmul *****************
  4623 ;; Defined at:
  4624 ;;		line 15 in file "C:\Program Files\Microchip\xc8\v2.20\pic\sources\c90\common\Umul16.c"
  4625 ;; Parameters:    Size  Location     Type
  4626 ;;  multiplier      2   10[COMMON] unsigned int 
  4627 ;;  multiplicand    2   12[COMMON] unsigned int 
  4628 ;; Auto vars:     Size  Location     Type
  4629 ;;  product         2    0[BANK0 ] unsigned int 
  4630 ;; Return value:  Size  Location     Type
  4631 ;;                  2   10[COMMON] unsigned int 
  4632 ;; Registers used:
  4633 ;;		wreg, status,2, status,0
  4634 ;; Tracked objects:
  4635 ;;		On entry : 0/0
  4636 ;;		On exit  : 0/0
  4637 ;;		Unchanged: 0/0
  4638 ;; Data sizes:     COMMON   BANK0   BANK1   BANK3   BANK2
  4639 ;;      Params:         4       0       0       0       0
  4640 ;;      Locals:         0       2       0       0       0
  4641 ;;      Temps:          0       0       0       0       0
  4642 ;;      Totals:         4       2       0       0       0
  4643 ;;Total ram usage:        6 bytes
  4644 ;; Hardware stack levels used:    1
  4645 ;; This function calls:
  4646 ;;		Nothing
  4647 ;; This function is called by:
  4648 ;;		_update_tempreture
  4649 ;; This function uses a non-reentrant model
  4650 ;;
  4651                           
  4652                           
  4653                           ;psect for function ___wmul
  4654  06B3                     ___wmul:
  4655  06B3                     i1l2131:	
  4656                           ;incstack = 0
  4657                           ; Regs used in ___wmul: [wreg+status,2+status,0]
  4658                           
  4659  06B3  1283               	bcf	3,5	;RP0=0, select bank0
  4660  06B4  1303               	bcf	3,6	;RP1=0, select bank0
  4661  06B5  01A0               	clrf	___wmul@product
  4662  06B6  01A1               	clrf	___wmul@product+1
  4663  06B7                     i1l2133:
  4664  06B7  1C7A               	btfss	___wmul@multiplier,0
  4665  06B8  2EBA               	goto	u167_21
  4666  06B9  2EBB               	goto	u167_20
  4667  06BA                     u167_21:
  4668  06BA  2EC3               	goto	i1l453
  4669  06BB                     u167_20:
  4670  06BB                     i1l2135:
  4671  06BB  087C               	movf	___wmul@multiplicand,w
  4672  06BC  1283               	bcf	3,5	;RP0=0, select bank0
  4673  06BD  1303               	bcf	3,6	;RP1=0, select bank0
  4674  06BE  07A0               	addwf	___wmul@product,f
  4675  06BF  1803               	skipnc
  4676  06C0  0AA1               	incf	___wmul@product+1,f
  4677  06C1  087D               	movf	___wmul@multiplicand+1,w
  4678  06C2  07A1               	addwf	___wmul@product+1,f
  4679  06C3                     i1l453:
  4680  06C3  3001               	movlw	1
  4681  06C4                     u168_25:
  4682  06C4  1003               	clrc
  4683  06C5  0DFC               	rlf	___wmul@multiplicand,f
  4684  06C6  0DFD               	rlf	___wmul@multiplicand+1,f
  4685  06C7  3EFF               	addlw	-1
  4686  06C8  1D03               	skipz
  4687  06C9  2EC4               	goto	u168_25
  4688  06CA                     i1l2137:
  4689  06CA  3001               	movlw	1
  4690  06CB                     u169_25:
  4691  06CB  1003               	clrc
  4692  06CC  0CFB               	rrf	___wmul@multiplier+1,f
  4693  06CD  0CFA               	rrf	___wmul@multiplier,f
  4694  06CE  3EFF               	addlw	-1
  4695  06CF  1D03               	skipz
  4696  06D0  2ECB               	goto	u169_25
  4697  06D1                     i1l2139:
  4698  06D1  087A               	movf	___wmul@multiplier,w
  4699  06D2  047B               	iorwf	___wmul@multiplier+1,w
  4700  06D3  1D03               	btfss	3,2
  4701  06D4  2ED6               	goto	u170_21
  4702  06D5  2ED7               	goto	u170_20
  4703  06D6                     u170_21:
  4704  06D6  2EB7               	goto	i1l2133
  4705  06D7                     u170_20:
  4706  06D7                     i1l2141:
  4707  06D7  1283               	bcf	3,5	;RP0=0, select bank0
  4708  06D8  1303               	bcf	3,6	;RP1=0, select bank0
  4709  06D9  0821               	movf	___wmul@product+1,w
  4710  06DA  00FB               	movwf	?___wmul+1
  4711  06DB  0820               	movf	___wmul@product,w
  4712  06DC  00FA               	movwf	?___wmul
  4713  06DD                     i1l455:
  4714  06DD  0008               	return
  4715  06DE                     __end_of___wmul:
  4716  007E                     btemp	set	126	;btemp
  4717  007E                     wtemp0	set	126
  4718                           
  4719                           	psect	config
  4720                           
  4721                           ;Config register CONFIG @ 0x2007
  4722                           ;	Oscillator Selection bits
  4723                           ;	FOSC = HS, HS oscillator
  4724                           ;	Watchdog Timer Enable bit
  4725                           ;	WDTE = OFF, WDT disabled
  4726                           ;	Power-up Timer Enable bit
  4727                           ;	PWRTE = OFF, PWRT disabled
  4728                           ;	Brown-out Reset Enable bit
  4729                           ;	BOREN = OFF, BOR disabled
  4730                           ;	Low-Voltage (Single-Supply) In-Circuit Serial Programming Enable bit
  4731                           ;	LVP = OFF, RB3 is digital I/O, HV on MCLR must be used for programming
  4732                           ;	Data EEPROM Memory Code Protection bit
  4733                           ;	CPD = OFF, Data EEPROM code protection off
  4734                           ;	Flash Program Memory Write Enable bits
  4735                           ;	WRT = OFF, Write protection off; all program memory may be written to by EECON control
  4736                           ;	In-Circuit Debugger Mode bit
  4737                           ;	DEBUG = 0x1, unprogrammed default
  4738                           ;	Flash Program Memory Code Protection bit
  4739                           ;	CP = OFF, Code protection off
  4740  2007                     	org	8199
  4741  2007  3F3A               	dw	16186

Data Sizes:
    Strings     0
    Constant    0
    Data        14
    BSS         15
    Persistent  1
    Stack       0

Auto Spaces:
    Space          Size  Autos    Used
    COMMON           14     14      14
    BANK0            80     33      63
    BANK1            80      8       8
    BANK3            96      0       0
    BANK2            96      0       0

Pointer List with Targets:

    itoa@str	PTR unsigned char  size(1) Largest target is 6
		 -> str(BANK0[6]), 


Critical Paths under _main in COMMON

    None.

Critical Paths under _ISR in COMMON

    _update_tempreture->___wmul
    _itoa->i1___lwdiv
    i1___lwdiv->i1___lwmod
    ___wmul->_adc_amostra

Critical Paths under _main in BANK0

    _setting_state->_flashDisplay
    _flashDisplay->_displayDeiredTempreture
    _displayDeiredTempreture->___awdiv
    _on_state->_displayTempreture
    _displayTempreture->___lwdiv
    _I2C_Master_Init->___lldiv

Critical Paths under _ISR in BANK0

    _ISR->_update_tempreture
    _update_tempreture->_itoa

Critical Paths under _main in BANK1

    _main->_I2C_Master_Init
    _setting_state->_flashDisplay

Critical Paths under _ISR in BANK1

    None.

Critical Paths under _main in BANK3

    None.

Critical Paths under _ISR in BANK3

    None.

Critical Paths under _main in BANK2

    None.

Critical Paths under _ISR in BANK2

    None.

Call Graph Tables:

 ---------------------------------------------------------------------------------
 (Depth) Function   	        Calls       Base Space   Used Autos Params    Refs
 ---------------------------------------------------------------------------------
 (0) _main                                                 2     2      0    3262
                                             31 BANK0      2     2      0
                    _I2C_Master_Init
                       _IRQ_RB0_init
                        _TIMER1_init
                           _adc_init
                          _off_state
                           _on_state
                      _setting_state
 ---------------------------------------------------------------------------------
 (1) _setting_state                                        0     0      0    1538
                       _flashDisplay
 ---------------------------------------------------------------------------------
 (2) _flashDisplay                                         6     6      0    1538
                                             29 BANK0      2     2      0
                                              0 BANK1      4     4      0
            _displayDeiredTempreture
 ---------------------------------------------------------------------------------
 (3) _displayDeiredTempreture                              4     4      0    1402
                                             25 BANK0      4     4      0
                            ___awdiv
                            ___awmod
                    _lcd_writeNumber
 ---------------------------------------------------------------------------------
 (4) ___awmod                                              6     2      4     613
                                             17 BANK0      6     2      4
 ---------------------------------------------------------------------------------
 (4) ___awdiv                                              8     4      4     625
                                             17 BANK0      8     4      4
 ---------------------------------------------------------------------------------
 (1) _on_state                                             2     2      0    1289
                                             28 BANK0      2     2      0
                       _changeStatus
                           _coolerOn
                  _displayTempreture
                           _heaterOn
 ---------------------------------------------------------------------------------
 (2) _heaterOn                                             0     0      0       0
 ---------------------------------------------------------------------------------
 (2) _displayTempreture                                    4     4      0    1289
                                             24 BANK0      4     4      0
                            ___lwdiv
                            ___lwmod
                    _lcd_writeNumber
 ---------------------------------------------------------------------------------
 (4) _lcd_writeNumber                                      2     2      0      96
                                             17 BANK0      2     2      0
 ---------------------------------------------------------------------------------
 (3) ___lwmod                                              5     1      4     511
                                             17 BANK0      5     1      4
 ---------------------------------------------------------------------------------
 (3) ___lwdiv                                              7     3      4     614
                                             17 BANK0      7     3      4
 ---------------------------------------------------------------------------------
 (2) _coolerOn                                             0     0      0       0
 ---------------------------------------------------------------------------------
 (2) _changeStatus                                         2     2      0       0
                                             17 BANK0      2     2      0
 ---------------------------------------------------------------------------------
 (1) _off_state                                            0     0      0       0
 ---------------------------------------------------------------------------------
 (1) _adc_init                                             0     0      0       0
 ---------------------------------------------------------------------------------
 (1) _TIMER1_init                                          0     0      0       0
 ---------------------------------------------------------------------------------
 (1) _IRQ_RB0_init                                         0     0      0       0
 ---------------------------------------------------------------------------------
 (1) _I2C_Master_Init                                      8     4      4     435
                                              0 BANK1      8     4      4
                            ___lldiv
 ---------------------------------------------------------------------------------
 (2) ___lldiv                                             14     6      8     314
                                             17 BANK0     14     6      8
 ---------------------------------------------------------------------------------
 Estimated maximum stack depth 4
 ---------------------------------------------------------------------------------
 (Depth) Function   	        Calls       Base Space   Used Autos Params    Refs
 ---------------------------------------------------------------------------------
 (5) _ISR                                                  6     6      0    1670
                                             11 BANK0      6     6      0
                  _update_tempreture
                          i1___lwdiv
 ---------------------------------------------------------------------------------
 (6) _update_tempreture                                    8     8      0    1352
                                              3 BANK0      8     8      0
                             ___wmul
                        _adc_amostra
                               _itoa
 ---------------------------------------------------------------------------------
 (7) _itoa                                                 3     0      3     865
                                              0 BANK0      3     0      3
                          i1___lwdiv
                          i1___lwmod
 ---------------------------------------------------------------------------------
 (8) i1___lwmod                                            5     1      4     263
                                              0 COMMON     5     1      4
 ---------------------------------------------------------------------------------
 (6) i1___lwdiv                                            7     3      4     318
                                              5 COMMON     7     3      4
                          i1___lwmod (ARG)
 ---------------------------------------------------------------------------------
 (7) _adc_amostra                                         10     8      2      22
                                              0 COMMON    10     8      2
 ---------------------------------------------------------------------------------
 (7) ___wmul                                               6     2      4     396
                                             10 COMMON     4     0      4
                                              0 BANK0      2     2      0
                        _adc_amostra (ARG)
 ---------------------------------------------------------------------------------
 Estimated maximum stack depth 8
 ---------------------------------------------------------------------------------

 Call Graph Graphs:

 _main (ROOT)
   _I2C_Master_Init
     ___lldiv
   _IRQ_RB0_init
   _TIMER1_init
   _adc_init
   _off_state
   _on_state
     _changeStatus
     _coolerOn
     _displayTempreture
       ___lwdiv
       ___lwmod
       _lcd_writeNumber
     _heaterOn
   _setting_state
     _flashDisplay
       _displayDeiredTempreture
         ___awdiv
         ___awmod
         _lcd_writeNumber

 _ISR (ROOT)
   _update_tempreture
     ___wmul
       _adc_amostra (ARG)
     _adc_amostra
     _itoa
       i1___lwdiv
         i1___lwmod (ARG)
       i1___lwmod
   i1___lwdiv
     i1___lwmod (ARG)

 Address spaces:
Name               Size   Autos  Total    Cost      Usage
BANK3               60      0       0       9        0.0%
BITBANK3            60      0       0       8        0.0%
SFR3                 0      0       0       4        0.0%
BITSFR3              0      0       0       4        0.0%
BANK2               60      0       0      11        0.0%
BITBANK2            60      0       0      10        0.0%
SFR2                 0      0       0       5        0.0%
BITSFR2              0      0       0       5        0.0%
BANK1               50      8       8       7       10.0%
BITBANK1            50      0       0       6        0.0%
SFR1                 0      0       0       2        0.0%
BITSFR1              0      0       0       2        0.0%
BANK0               50     21      3F       5       78.8%
BITBANK0            50      0       0       4        0.0%
SFR0                 0      0       0       1        0.0%
BITSFR0              0      0       0       1        0.0%
COMMON               E      E       E       1      100.0%
BITCOMMON            E      0       0       0        0.0%
CODE                 0      0       0       0        0.0%
DATA                 0      0      55      12        0.0%
ABS                  0      0      55       3        0.0%
NULL                 0      0       0       0        0.0%
STACK                0      0       0       2        0.0%
EEDATA             100      0       0       0        0.0%


Microchip Technology PIC Macro Assembler V2.20 build 20200408173844 
Symbol Table                                                                                   Sat Jul 11 22:13:36 2020

                               pc 0002                                l97 074E                      ___awdiv@sign 0036  
                              fsr 0004               ___wmul@multiplicand 007C              __size_of_adc_amostra 004E  
                             l105 0049                               l106 014C                               l204 0739  
                             l124 06AD                               l132 0749                               l109 00C9  
                             l126 06B2                               l129 0744                               l153 01AA  
                             l138 060A                               l307 0589                               l147 0730  
                             l164 04AF                               l191 0717                               l167 045A  
                             l274 06F3                               l188 073F                               l606 022A  
                             l619 0355                               l725 0543                               l735 0646  
                             l489 0292                               _GIE 005F                               _RC2 003A  
                             _RB5 0035                               _RC5 003D                               _RB7 0037  
                  ??_flashDisplay 003D              __end_of_changeStatus 06B3                               _PEN 048A  
                             _ISR 0293                               _SEN 0488                               fsr0 0004  
                             _str 004A                               indf 0000                      ___awmod@sign 0036  
                            ?_ISR 0070                              l2201 0707                              l2203 073A  
                            l2151 0249                              l2071 069E                              l2063 0681  
                            l2161 027A                              l2153 024D                              l2145 022B  
                            l2217 0731                              l2081 06B1                              l2073 06A8  
                            l2065 0695                              l2163 027B                              l2155 0251  
                            l2147 023D                              l2171 074A                              l2075 06A8  
                            l2067 069A                              l2083 0740                              l2165 0284  
                            l2157 025A                              l2149 0240                              l2077 06AF  
                            l2069 069D                              l2085 0745                              l2501 0318  
                            l2159 026C                              l2167 028A                              l2079 06B0  
                            l2511 0334                              l2503 031B                              l2441 06F2  
                            l2521 0351                              l2513 033A                              l2505 0322  
                            l2601 00E6                              l2435 06E1                              l2451 01D0  
                            l2443 01C2                              l2515 0341                              l2507 0326  
                            l2531 0435                              l2611 0114                              l2603 00F3  
                            l1901 051A                              l2437 06E7                              l2621 045B  
                            l2461 01E5                              l2453 01D4                              l2445 01C5  
                            l2509 032A                              l2517 0347                              l2541 0457  
                            l2533 0440                              l2525 0406                              l2613 0121  
                            l2605 0106                              l2701 017A                              l1903 052B  
                            l1911 053F                              l2439 06EF                              l2631 0498  
                            l2623 0483                              l2471 0208                              l2463 01E8  
                            l2455 01D9                              l2447 01C9                              l2519 034C  
                            l2535 0443                              l2527 042E                              l2615 0134  
                            l2607 0109                              l2543 0036                              l2711 0185  
                            l2703 017B                              l1905 0531                              l1921 061D  
                            l2633 049E                              l2625 0484                              l2641 05D5  
                            l2481 0221                              l2473 020E                              l2465 01EF  
                            l2457 01DD                              l2449 01CE                              l2537 0449  
                            l2529 042F                              l2609 010F                              l2617 0137  
                            l2545 003C                              l2721 0191                              l2713 018A  
                            l2705 017E                              l1907 0532                              l1931 063C  
                            l1923 0621                              l1915 060B                              l2635 04A1  
                            l2627 048A                              l2651 05E9                              l2643 05D9  
                            l2483 0226                              l2475 020F                              l2467 01F3  
                            l2459 01DF                              l2491 0302                              l2539 044C  
                            l2619 013F                              l2571 0070                              l2563 0053  
                            l2555 004B                              l2547 0040                              l2723 0193  
                            l2715 018E                              l2707 0181                              l1909 0539  
                            l1925 0625                              l1917 0613                              l1933 0642  
                            l2637 04AC                              l2629 0495                              l2653 05EF  
                            l2477 0216                              l2469 01F7                              l2493 0307  
                            l2581 009E                              l2573 0083                              l2565 0058  
                            l2549 0046                              l2557 004F                              l2725 0198  
                            l2733 01AA                              l2717 018F                              l2709 0184  
                            l2671 054B                              l1927 062F                              l1919 0616  
                            l2647 05DE                              l2639 05CE                              l2479 021C  
                            l2495 0309                              l2487 02FB                              l2583 00B1  
                            l2567 005E                              l2575 0086                              l2663 0726  
                            l2727 019E                              l2719 0190                              l2673 0586  
                            l1929 0635                              l2657 05F5                              l2649 05E3  
                            l2497 030D                              l2489 02FE                              l2577 008C  
                            l2585 00B4                              l2569 0063                              l2665 072B  
                            l2841 01B4                              l2729 01A4                              l2681 0157  
                            l2675 0587                              l2667 0544                              l1891 0502  
                            l2843 05FF                              l2499 0312                              l2595 00D1  
                            l2587 00BC                              l2579 0091                              l2691 0171  
                            l2683 0166                              l2677 0588                              l2669 0548  
                            l1893 0508                              l2597 00DB                              l2589 00CD  
                            l2693 0172                              l2685 016A                              l1895 050B  
                            l2599 00E1                              l2695 0175                              l2687 016B  
                            l2679 014D                              l1897 0512                              l1889 04FE  
                            l2697 0176                              l2689 016E                              l1899 0516  
                            l2699 0179                              u1200 051A                              u2000 032A  
                            u1201 0519                              u2001 0329                              u2010 0334  
                            u2011 0333                              u1220 052B                              u1300 0642  
                            u2100 0070                              u1221 052A                              u1301 0641  
                            u2101 006F                              u2030 0347                              u2110 008C  
                            u1215 051B                              u2031 0346                              u2015 0330  
                            u2111 008B                              u1240 053F                              u2040 034C  
                            u2200 0121                              u2120 0091                              u1241 053E  
                            u1225 0527                              u2041 034B                              u2025 033B  
                            u2201 0120                              u2121 0090                              u2105 006C  
                            u1250 0613                              u2210 014C                              u2130 009E  
                            u2050 003C                              u1235 0533                              u1251 0612  
                            u2211 014B                              u2131 009D                              u2051 003B  
                            u1180 0508                              u2220 05D5                              u2140 00C9  
                            u2060 0040                              u1181 0507                              u2221 05D4  
                            u2205 011D                              u2141 00C8                              u2061 003F  
                            u1270 0625                              u2230 05D9                              u2150 00E1  
                            u2070 0046                              u1271 0624                              u2231 05D8  
                            u2215 0148                              u2151 00E0                              u2135 009A  
                            u2071 0045                              u2240 0559                              u1280 062F  
                            u2160 00E6                              u2080 005E                              u1281 062E  
                            u1265 0617                              u2161 00E5                              u2145 00C5  
                            u2081 005D                              u1610 0695                              u2170 00F3  
                            u2090 0063                              u1611 0694                              u1195 050C  
                            u2307 043B                              u2171 00F2                              u2091 0062  
                            u1620 069A                              u2180 010F                              u2245 0554  
                            u1621 0699                              u1285 062B                              u2317 0452  
                            u2181 010E                              u1710 023D                              u1630 06A8  
                            u2190 0114                              u1711 023C                              u1631 06A7  
                            u1615 0691                              u1295 0636                              u2327 0490  
                            u2191 0113                              u2175 00EF                              u2337 04A7  
                            u2257 007E                              u1730 0251                              u1731 0250  
                            u1635 06A4                              u2267 00AC                              u1900 01F7  
                            u1725 0242                              u1901 01F6                              u2277 00D7  
                            u1750 026C                              u1751 026B                              u2287 0101  
                            u1920 0208                              u1745 0253                              u1921 0207  
                            u2297 012F                              u1770 028A                              u1850 06E7  
                            u1771 0289                              u1755 0268                              u1851 06E6  
                            u1915 01F8                              u1940 021C                              u1860 01C9  
                            u1765 027C                              u1941 021B                              u1925 0204  
                            u1861 01C8                              u1950 0221                              u1870 01D4  
                            u1951 0220                              u1935 0210                              u1871 01D3  
                            u1880 01E5                              u1960 0302                              u1881 01E4  
                            u1961 0301                              u1970 030D                              u1971 030C  
                            _PEIE 005E                              u1980 0318                              u1981 0317  
                            _INTE 005C                              _INTF 0059                              u1895 01E9  
                            u1995 031C                              _RCEN 048B                              _TMR1 000E  
                            _RSEN 0489                              _main 014D                              _itoa 03AE  
                            btemp 007E                              start 0012                             ??_ISR 002B  
        ?_displayDeiredTempreture 0070                  ?_I2C_Master_Init 00A0                             ?_main 0070  
                           _ACKEN 048C                             _ACKDT 048D                             ?_itoa 0020  
                 __end_of___awdiv 022B                   __end_of___awmod 0356                   __end_of___lldiv 0293  
                 ___awdiv@divisor 0031                   __end_of___lwdiv 0544                             i1l212 04D7  
                           i1l215 04FD                             i1l209 04D4                             i1l170 03AD  
                           i1l219 0405                             i1l175 02B4                             i1l185 02F0  
                           i1l177 0299                   __end_of___lwmod 0647                             i1l179 029E  
                           i1l453 06C3                             i1l455 06DD           flashDisplay@prev_status 005C  
                           i1l725 05CD                             i1l735 0680                   ___awdiv@counter 0035  
                _TargetTempreture 005A                             _PORTD 0008                             _TRISA 0085  
                           _TRISD 0088                             _SSPIF 0063           __end_of_lcd_writeNumber 06F4  
                 ??_setting_state 003F                i1___lwmod@dividend 0072                             _state 005E  
                           pclath 000A                             status 0003                             wtemp0 007E  
              __size_ofi1___lwdiv 0044                __size_ofi1___lwmod 003A                   __initialization 0015  
                    __end_of_main 01C2                      __end_of_itoa 0406                            ??_main 003F  
                          ??_itoa 007C                      ?_TIMER1_init 0070                            _ADCON0 001F  
                          _ADCON1 009F                            _ADRESH 001E                            _ADRESL 009E  
                ___awdiv@dividend 0033                  __end_of_adc_init 073A                            i1l2111 04BC  
                          i1l2105 04B1                            i1l2131 06B3                            i1l2107 04B2  
                          i1l2115 04C1                            i1l2141 06D7                            i1l2133 06B7  
                          i1l2117 04DB                            i1l2109 04B7                            i1l2125 03AE  
                          i1l2221 0376                            i1l2301 02A1                            i1l2135 06BB  
                          i1l2127 03F8                            i1l2223 0383                            i1l2311 02C4  
                          i1l2303 02B8                            i1l2137 06CA                            i1l2129 0400  
                          i1l2225 0389                            i1l2321 02D8                            i1l2313 02C6  
                          i1l2305 02B9                            i1l2139 06D1                            i1l2227 038D  
                          i1l2219 0356                            i1l2323 02EB                            i1l2315 02CA  
                          i1l2307 02BD                            i1l2325 02ED                            i1l2317 02CB  
                          i1l2309 02BE                            i1l2327 02EE                            i1l2319 02D0  
                          i1l2293 0293                            i1l2295 0297                            i1l2297 029F  
                          i1l1941 0592                            i1l1951 05B5                            i1l1943 0595  
                          u131_20 0592                            i1l1953 05BB                            i1l1945 059C  
                          u131_21 0591                            i1l1937 058A                            i1l1955 05BC  
                          i1l1947 05A0                            i1l1939 058C                            i1l1971 065B  
                          i1l1963 0647                            i1l1957 05C3                            i1l1949 05A4  
                          i1l1973 065F                            i1l1965 064D                            i1l1981 067C  
                          i1l2845 02A9                            i1l2847 04C9                            i1l1959 05C9  
                          i1l1975 0669                            i1l1967 0650                            u140_20 065F  
                          i1l1977 066F                            u140_21 065E                            i1l1969 0657  
                          i1l1979 0676                            u132_25 0596                            u133_20 05A4  
                          u141_20 0669                            u133_21 05A3                            u141_21 0668  
                          u141_25 0665                            _INTEDG 040E                            u134_25 05A5  
                          u142_25 0670                            u135_20 05B5                            u143_20 067C  
                          u135_21 05B4                            u143_21 067B                            u135_25 05B1  
                          u136_25 05BD                            u137_20 05C9                            u137_21 05C8  
                          u170_20 06D7                            u138_20 064D                            u170_21 06D6  
                          u138_21 064C                            u139_25 0651                            u164_20 04DB  
                          u164_21 04DA                            u181_20 0297                            u181_21 0296  
                          u165_25 04E0                            u166_20 0400                            u182_20 02B8  
                          u166_21 03FF                            u182_21 02B7                            u167_20 06BB  
                          u183_20 02C4                            u167_21 06BA                            u183_21 02C3  
                          u184_20 02D8                            u184_21 02D7                            u168_25 06C4  
                          u169_25 06CB                            _TMR1IE 0460                            _TMR1IF 0060  
                          _TMR1CS 0081                            _TMR1ON 0080                            _SSPADD 0093  
                          _TRISB3 0433                            _TRISC2 043A                            _TRISB4 0434  
                          _TRISB5 0435                            _TRISC3 043B                            _TRISC4 043C  
                          _TRISC5 043D                            _TRISB7 0437                            _SSPCON 0014  
                          _SSPBUF 0013              __end_of_flashDisplay 014D                  __end_of_heaterOn 0745  
                __end_of_coolerOn 074A                            ___wmul 06B3                         ??___awdiv 0035  
                       ??___awmod 0035                            _canuse 005D                         ??___lldiv 0039  
           __size_of_changeStatus 0032                         ??___lwdiv 0035                         ??___lwmod 0035  
                ___awdiv@quotient 0037                   ___awmod@divisor 0031                   ___awmod@counter 0035  
                __end_of_on_state 060B                 __end_ofi1___lwdiv 05CE                 __end_ofi1___lwmod 0681  
                          saved_w 007E                  ?_lcd_writeNumber 0070                     ?_IRQ_RB0_init 0070  
               _update_tempreture 0356                ?_update_tempreture 0070           __end_of__initialization 0032  
                    _changeStatus 0681               ??_update_tempreture 0023                    __pcstackCOMMON 0070  
                    __pidataBANK0 0718                    ??_IRQ_RB0_init 0031         __end_of_update_tempreture 03AE  
                      __pbssBANK0 0041        displayDeiredTempreture@low 003B                __size_of_off_state 0005  
                      __pmaintext 014D                           ?___wmul 007A                     ??_adc_amostra 0072  
                      __pintentry 0004                           _ACKSTAT 048E                         ?_adc_init 0070  
                         _T1CKPS0 0084                           _T1CKPS1 0085              __size_of_TIMER1_init 0011  
                       ?_heaterOn 0070  __size_of_displayDeiredTempreture 0055                           _SSPCON2 0091  
                         _SSPSTAT 0094                         ?_coolerOn 0070             __size_of_flashDisplay 0117  
                       ?_on_state 0070                           ___awdiv 01C2                           ___awmod 02FB  
                         ___lldiv 022B                   __size_of___wmul 002B                           ___lwdiv 04FE  
                         ___lwmod 060B                        ??_adc_init 0031                           __ptext1 0726  
                         __ptext2 0036                           __ptext3 0406                           __ptext4 02FB  
                         __ptext5 01C2                           __ptext6 05CE                           __ptext7 0740  
                         __ptext8 045B                           __ptext9 06DE              displayTempreture@low 003A  
               _Number_Tempreture 0048                      __size_of_ISR 0068                 i1___lwdiv@divisor 0075  
             __end_of_adc_amostra 04FE                 i1___lwdiv@counter 007B                 __end_of_off_state 074F  
                    _flashDisplay 0036                  ___awmod@dividend 0033        __size_of_update_tempreture 0058  
        __size_of_I2C_Master_Init 0046                        ??_heaterOn 0031             __end_of_setting_state 0731  
                      ??_coolerOn 0031              end_of_initialization 0032                           itoa@val 0020  
                         itoa@str 0022                   ___lldiv@divisor 0031                        ??_on_state 003C  
                 ___lldiv@counter 003E              __end_of_IRQ_RB0_init 0740                        _temp_state 0049  
                       _PORTAbits 0005                         _PORTBbits 0006                         _PORTEbits 0009  
                       i1___lwdiv 058A                         i1___lwmod 0647                       _adc_amostra 04B0  
                  __end_of___wmul 06DE                 i1___lwmod@divisor 0070                 i1___lwmod@counter 0074  
             start_initialization 0015                       __end_of_ISR 02FB           _displayDeiredTempreture 0406  
                      ?i1___lwdiv 0075                        ?i1___lwmod 0070                 ??_I2C_Master_Init 00A4  
        __size_of_lcd_writeNumber 0016                update_tempreture@x 002A                update_tempreture@y 0029  
                        ??___wmul 007E                        init_fetch0 06F4                       __pdataBANK0 0050  
               _displayTempreture 045B             lcd_writeNumber@number 0032                ?_displayTempreture 0070  
               __size_of_adc_init 0009                         ___latbits 0002                     __pcstackBANK0 0020  
                   __pcstackBANK1 00A0                     _segments_code 0050               ??_displayTempreture 0038  
     displayDeiredTempreture@high 003C                 __size_of_heaterOn 0005               lcd_writeNumber@code 0031  
           __size_of_IRQ_RB0_init 0006                 __size_of_coolerOn 0005                         __pnvBANK0 005E  
                ___lwdiv@dividend 0033                 __size_of_on_state 003D                          ?___awdiv 0031  
                        ?___awmod 0031         __end_of_displayTempreture 04B0                          ?___lldiv 0031  
                        ?___lwdiv 0031                          ?___lwmod 0031           _accumilated_tmeperature 0041  
       ??_displayDeiredTempreture 0039                     ??_TIMER1_init 0031                      _IRQ_RB0_init 073A  
                ___lwdiv@quotient 0035                       ??i1___lwdiv 0079                       ??i1___lwmod 0074  
                       _off_state 074A                 flashDisplay@i_172 00A2                 flashDisplay@count 0045  
               interrupt_function 0004                    ___wmul@product 0020                 ??_lcd_writeNumber 0031  
                      _ADCON0bits 001F                 ___wmul@multiplier 007A               I2C_Master_Init@baud 00A0  
                      ?_off_state 0070               __end_of_TIMER1_init 0718             update_tempreture@temp 0027  
                   _timer1counter 0047                          _ReadTemp 0046   __end_of_displayDeiredTempreture 045B  
                   ?_changeStatus 0070        __size_of_displayTempreture 0055                      ?_adc_amostra 0070  
                __size_of___awdiv 0069                  __size_of___awmod 005B                  __size_of___lldiv 0068  
          __size_of_setting_state 000B                  __size_of___lwdiv 0046                  __size_of___lwmod 003C  
                        _adc_init 0731                   _I2C_Master_Init 0544                   ___lwdiv@divisor 0031  
                 ___lwdiv@counter 0037                          __ptext10 060B                          __ptext11 04FE  
                        __ptext20 0293                          __ptext12 0745                          __ptext21 0356  
                        __ptext13 0681                          __ptext22 03AE                          __ptext14 074A  
                        __ptext23 0647                          __ptext15 0731                          __ptext24 058A  
                        __ptext16 0707                          __ptext25 04B0                          __ptext17 073A  
                        __ptext26 06B3                          __ptext18 0544                          __ptext19 022B  
                        _heaterOn 0740                          _coolerOn 0745             displayTempreture@high 003B  
              i1___lwdiv@dividend 0077                    ??_changeStatus 0031                     __size_of_main 0075  
                   __size_of_itoa 0058                          _on_state 05CE                i1___lwdiv@quotient 0079  
                     _TIMER1_init 0707                          init_ram0 06F8                       ??_off_state 0031  
                        intlevel1 0000                     _setting_state 0726                  ___lwmod@dividend 0033  
                ___lldiv@dividend 0035                        _TEMPRETURE 0043           __end_of_I2C_Master_Init 058A  
                   ?_flashDisplay 0070                  ___lldiv@quotient 003A                   ___lwmod@divisor 0031  
                 ___lwmod@counter 0035                  adc_amostra@canal 0079                    ?_setting_state 0070  
                 _lcd_writeNumber 06DE                     flashDisplay@i 00A0  
