

Microchip MPLAB XC8 Assembler V2.20 build 20200408173844 
                                                                                               Sat Jul 11 10:14:16 2020

Microchip MPLAB XC8 C Compiler v2.20 (Free license) build 20200408173844 Og1 
     1                           	processor	16F877A
     2                           	pagewidth 120
     3                           	opt	flic
     4                           	psect	idataBANK0,global,class=CODE,delta=2,noexec
     5                           	psect	nvBANK0,global,class=BANK0,space=1,delta=1,noexec
     6                           	psect	cinit,global,class=CODE,merge=1,delta=2
     7                           	psect	bssBANK0,global,class=BANK0,space=1,delta=1,noexec
     8                           	psect	dataBANK0,global,class=BANK0,space=1,delta=1,noexec
     9                           	psect	inittext,global,class=CODE,delta=2
    10                           	psect	cstackBANK1,global,class=BANK1,space=1,delta=1,noexec
    11                           	psect	cstackCOMMON,global,class=COMMON,space=1,delta=1,noexec
    12                           	psect	cstackBANK0,global,class=BANK0,space=1,delta=1,noexec
    13                           	psect	maintext,global,class=CODE,split=1,delta=2
    14                           	psect	text1,local,class=CODE,merge=1,delta=2
    15                           	psect	text2,local,class=CODE,merge=1,delta=2
    16                           	psect	text3,local,class=CODE,merge=1,delta=2
    17                           	psect	text4,local,class=CODE,merge=1,delta=2,group=1
    18                           	psect	text5,local,class=CODE,merge=1,delta=2,group=1
    19                           	psect	text6,local,class=CODE,merge=1,delta=2
    20                           	psect	text7,local,class=CODE,merge=1,delta=2
    21                           	psect	text8,local,class=CODE,merge=1,delta=2
    22                           	psect	text9,local,class=CODE,merge=1,delta=2
    23                           	psect	text10,local,class=CODE,merge=1,delta=2,group=1
    24                           	psect	text11,local,class=CODE,merge=1,delta=2,group=1
    25                           	psect	text12,local,class=CODE,merge=1,delta=2
    26                           	psect	text13,local,class=CODE,merge=1,delta=2
    27                           	psect	text14,local,class=CODE,merge=1,delta=2
    28                           	psect	text15,local,class=CODE,merge=1,delta=2
    29                           	psect	text16,local,class=CODE,merge=1,delta=2
    30                           	psect	text17,local,class=CODE,merge=1,delta=2
    31                           	psect	intentry,global,class=CODE,delta=2
    32                           	psect	text18,local,class=CODE,merge=1,delta=2
    33                           	psect	text19,local,class=CODE,merge=1,delta=2
    34                           	psect	text20,local,class=CODE,merge=1,delta=2
    35                           	psect	text21,local,class=CODE,merge=1,delta=2
    36                           	psect	text22,local,class=CODE,merge=1,delta=2
    37                           	psect	text23,local,class=CODE,merge=1,delta=2,group=1
    38                           	psect	config,global,abs,ovrld,class=CONFIG,space=4,delta=2,noexec
    39                           	dabs	1,0x7E,2
    40  0000                     
    41                           ; Version 2.20
    42                           ; Generated 12/02/2020 GMT
    43                           ; 
    44                           ; Copyright © 2020, Microchip Technology Inc. and its subsidiaries ("Microchip")
    45                           ; All rights reserved.
    46                           ; 
    47                           ; This software is developed by Microchip Technology Inc. and its subsidiaries ("Microch
      +                          ip").
    48                           ; 
    49                           ; Redistribution and use in source and binary forms, with or without modification, are
    50                           ; permitted provided that the following conditions are met:
    51                           ; 
    52                           ;     1. Redistributions of source code must retain the above copyright notice, this lis
      +                          t of
    53                           ;        conditions and the following disclaimer.
    54                           ; 
    55                           ;     2. Redistributions in binary form must reproduce the above copyright notice, this 
      +                          list
    56                           ;        of conditions and the following disclaimer in the documentation and/or other
    57                           ;        materials provided with the distribution.
    58                           ; 
    59                           ;     3. Microchip's name may not be used to endorse or promote products derived from th
      +                          is
    60                           ;        software without specific prior written permission.
    61                           ; 
    62                           ; THIS SOFTWARE IS PROVIDED BY MICROCHIP "AS IS" AND ANY EXPRESS OR IMPLIED WARRANTIES,
    63                           ; INCLUDING, BUT NOT LIMITED TO, THE IMPLIED WARRANTIES OF MERCHANTABILITY AND FITNESS F
      +                          OR
    64                           ; PURPOSE ARE DISCLAIMED.  IN NO EVENT SHALL MICROCHIP BE LIABLE FOR ANY DIRECT, INDIREC
      +                          T,
    65                           ; INCIDENTAL, SPECIAL, EXEMPLARY, OR CONSEQUENTIAL DAMAGES (INCLUDING BUT NOT LIMITED TO
    66                           ; PROCUREMENT OF SUBSTITUTE GOODS OR SERVICES; LOSS OF USE, DATA OR PROFITS; OR BUSINESS
    67                           ; INTERRUPTION) HOWSOEVER CAUSED AND ON ANY THEORY OF LIABILITY, WHETHER IN CONTRACT, ST
      +                          RICT
    68                           ; LIABILITY, OR TORT (INCLUDING NEGLIGENCE OR OTHERWISE) ARISING IN ANY WAY OUT OF THE U
      +                          SE OF
    69                           ; THIS SOFTWARE, EVEN IF ADVISED OF THE POSSIBILITY OF SUCH DAMAGE.
    70                           ; 
    71                           ; 
    72                           ; Code-generator required, PIC16F877A Definitions
    73                           ; 
    74                           ; SFR Addresses
    75  0000                     	;# 
    76  0001                     	;# 
    77  0002                     	;# 
    78  0003                     	;# 
    79  0004                     	;# 
    80  0005                     	;# 
    81  0006                     	;# 
    82  0007                     	;# 
    83  0008                     	;# 
    84  0009                     	;# 
    85  000A                     	;# 
    86  000B                     	;# 
    87  000C                     	;# 
    88  000D                     	;# 
    89  000E                     	;# 
    90  000E                     	;# 
    91  000F                     	;# 
    92  0010                     	;# 
    93  0011                     	;# 
    94  0012                     	;# 
    95  0013                     	;# 
    96  0014                     	;# 
    97  0015                     	;# 
    98  0015                     	;# 
    99  0016                     	;# 
   100  0017                     	;# 
   101  0018                     	;# 
   102  0019                     	;# 
   103  001A                     	;# 
   104  001B                     	;# 
   105  001B                     	;# 
   106  001C                     	;# 
   107  001D                     	;# 
   108  001E                     	;# 
   109  001F                     	;# 
   110  0081                     	;# 
   111  0085                     	;# 
   112  0086                     	;# 
   113  0087                     	;# 
   114  0088                     	;# 
   115  0089                     	;# 
   116  008C                     	;# 
   117  008D                     	;# 
   118  008E                     	;# 
   119  0091                     	;# 
   120  0092                     	;# 
   121  0093                     	;# 
   122  0094                     	;# 
   123  0098                     	;# 
   124  0099                     	;# 
   125  009C                     	;# 
   126  009D                     	;# 
   127  009E                     	;# 
   128  009F                     	;# 
   129  010C                     	;# 
   130  010D                     	;# 
   131  010E                     	;# 
   132  010F                     	;# 
   133  018C                     	;# 
   134  018D                     	;# 
   135  0000                     	;# 
   136  0001                     	;# 
   137  0002                     	;# 
   138  0003                     	;# 
   139  0004                     	;# 
   140  0005                     	;# 
   141  0006                     	;# 
   142  0007                     	;# 
   143  0008                     	;# 
   144  0009                     	;# 
   145  000A                     	;# 
   146  000B                     	;# 
   147  000C                     	;# 
   148  000D                     	;# 
   149  000E                     	;# 
   150  000E                     	;# 
   151  000F                     	;# 
   152  0010                     	;# 
   153  0011                     	;# 
   154  0012                     	;# 
   155  0013                     	;# 
   156  0014                     	;# 
   157  0015                     	;# 
   158  0015                     	;# 
   159  0016                     	;# 
   160  0017                     	;# 
   161  0018                     	;# 
   162  0019                     	;# 
   163  001A                     	;# 
   164  001B                     	;# 
   165  001B                     	;# 
   166  001C                     	;# 
   167  001D                     	;# 
   168  001E                     	;# 
   169  001F                     	;# 
   170  0081                     	;# 
   171  0085                     	;# 
   172  0086                     	;# 
   173  0087                     	;# 
   174  0088                     	;# 
   175  0089                     	;# 
   176  008C                     	;# 
   177  008D                     	;# 
   178  008E                     	;# 
   179  0091                     	;# 
   180  0092                     	;# 
   181  0093                     	;# 
   182  0094                     	;# 
   183  0098                     	;# 
   184  0099                     	;# 
   185  009C                     	;# 
   186  009D                     	;# 
   187  009E                     	;# 
   188  009F                     	;# 
   189  010C                     	;# 
   190  010D                     	;# 
   191  010E                     	;# 
   192  010F                     	;# 
   193  018C                     	;# 
   194  018D                     	;# 
   195  0000                     	;# 
   196  0001                     	;# 
   197  0002                     	;# 
   198  0003                     	;# 
   199  0004                     	;# 
   200  0005                     	;# 
   201  0006                     	;# 
   202  0007                     	;# 
   203  0008                     	;# 
   204  0009                     	;# 
   205  000A                     	;# 
   206  000B                     	;# 
   207  000C                     	;# 
   208  000D                     	;# 
   209  000E                     	;# 
   210  000E                     	;# 
   211  000F                     	;# 
   212  0010                     	;# 
   213  0011                     	;# 
   214  0012                     	;# 
   215  0013                     	;# 
   216  0014                     	;# 
   217  0015                     	;# 
   218  0015                     	;# 
   219  0016                     	;# 
   220  0017                     	;# 
   221  0018                     	;# 
   222  0019                     	;# 
   223  001A                     	;# 
   224  001B                     	;# 
   225  001B                     	;# 
   226  001C                     	;# 
   227  001D                     	;# 
   228  001E                     	;# 
   229  001F                     	;# 
   230  0081                     	;# 
   231  0085                     	;# 
   232  0086                     	;# 
   233  0087                     	;# 
   234  0088                     	;# 
   235  0089                     	;# 
   236  008C                     	;# 
   237  008D                     	;# 
   238  008E                     	;# 
   239  0091                     	;# 
   240  0092                     	;# 
   241  0093                     	;# 
   242  0094                     	;# 
   243  0098                     	;# 
   244  0099                     	;# 
   245  009C                     	;# 
   246  009D                     	;# 
   247  009E                     	;# 
   248  009F                     	;# 
   249  010C                     	;# 
   250  010D                     	;# 
   251  010E                     	;# 
   252  010F                     	;# 
   253  018C                     	;# 
   254  018D                     	;# 
   255  0000                     	;# 
   256  0001                     	;# 
   257  0002                     	;# 
   258  0003                     	;# 
   259  0004                     	;# 
   260  0005                     	;# 
   261  0006                     	;# 
   262  0007                     	;# 
   263  0008                     	;# 
   264  0009                     	;# 
   265  000A                     	;# 
   266  000B                     	;# 
   267  000C                     	;# 
   268  000D                     	;# 
   269  000E                     	;# 
   270  000E                     	;# 
   271  000F                     	;# 
   272  0010                     	;# 
   273  0011                     	;# 
   274  0012                     	;# 
   275  0013                     	;# 
   276  0014                     	;# 
   277  0015                     	;# 
   278  0015                     	;# 
   279  0016                     	;# 
   280  0017                     	;# 
   281  0018                     	;# 
   282  0019                     	;# 
   283  001A                     	;# 
   284  001B                     	;# 
   285  001B                     	;# 
   286  001C                     	;# 
   287  001D                     	;# 
   288  001E                     	;# 
   289  001F                     	;# 
   290  0081                     	;# 
   291  0085                     	;# 
   292  0086                     	;# 
   293  0087                     	;# 
   294  0088                     	;# 
   295  0089                     	;# 
   296  008C                     	;# 
   297  008D                     	;# 
   298  008E                     	;# 
   299  0091                     	;# 
   300  0092                     	;# 
   301  0093                     	;# 
   302  0094                     	;# 
   303  0098                     	;# 
   304  0099                     	;# 
   305  009C                     	;# 
   306  009D                     	;# 
   307  009E                     	;# 
   308  009F                     	;# 
   309  010C                     	;# 
   310  010D                     	;# 
   311  010E                     	;# 
   312  010F                     	;# 
   313  018C                     	;# 
   314  018D                     	;# 
   315  0000                     	;# 
   316  0001                     	;# 
   317  0002                     	;# 
   318  0003                     	;# 
   319  0004                     	;# 
   320  0005                     	;# 
   321  0006                     	;# 
   322  0007                     	;# 
   323  0008                     	;# 
   324  0009                     	;# 
   325  000A                     	;# 
   326  000B                     	;# 
   327  000C                     	;# 
   328  000D                     	;# 
   329  000E                     	;# 
   330  000E                     	;# 
   331  000F                     	;# 
   332  0010                     	;# 
   333  0011                     	;# 
   334  0012                     	;# 
   335  0013                     	;# 
   336  0014                     	;# 
   337  0015                     	;# 
   338  0015                     	;# 
   339  0016                     	;# 
   340  0017                     	;# 
   341  0018                     	;# 
   342  0019                     	;# 
   343  001A                     	;# 
   344  001B                     	;# 
   345  001B                     	;# 
   346  001C                     	;# 
   347  001D                     	;# 
   348  001E                     	;# 
   349  001F                     	;# 
   350  0081                     	;# 
   351  0085                     	;# 
   352  0086                     	;# 
   353  0087                     	;# 
   354  0088                     	;# 
   355  0089                     	;# 
   356  008C                     	;# 
   357  008D                     	;# 
   358  008E                     	;# 
   359  0091                     	;# 
   360  0092                     	;# 
   361  0093                     	;# 
   362  0094                     	;# 
   363  0098                     	;# 
   364  0099                     	;# 
   365  009C                     	;# 
   366  009D                     	;# 
   367  009E                     	;# 
   368  009F                     	;# 
   369  010C                     	;# 
   370  010D                     	;# 
   371  010E                     	;# 
   372  010F                     	;# 
   373  018C                     	;# 
   374  018D                     	;# 
   375  0000                     	;# 
   376  0001                     	;# 
   377  0002                     	;# 
   378  0003                     	;# 
   379  0004                     	;# 
   380  0005                     	;# 
   381  0006                     	;# 
   382  0007                     	;# 
   383  0008                     	;# 
   384  0009                     	;# 
   385  000A                     	;# 
   386  000B                     	;# 
   387  000C                     	;# 
   388  000D                     	;# 
   389  000E                     	;# 
   390  000E                     	;# 
   391  000F                     	;# 
   392  0010                     	;# 
   393  0011                     	;# 
   394  0012                     	;# 
   395  0013                     	;# 
   396  0014                     	;# 
   397  0015                     	;# 
   398  0015                     	;# 
   399  0016                     	;# 
   400  0017                     	;# 
   401  0018                     	;# 
   402  0019                     	;# 
   403  001A                     	;# 
   404  001B                     	;# 
   405  001B                     	;# 
   406  001C                     	;# 
   407  001D                     	;# 
   408  001E                     	;# 
   409  001F                     	;# 
   410  0081                     	;# 
   411  0085                     	;# 
   412  0086                     	;# 
   413  0087                     	;# 
   414  0088                     	;# 
   415  0089                     	;# 
   416  008C                     	;# 
   417  008D                     	;# 
   418  008E                     	;# 
   419  0091                     	;# 
   420  0092                     	;# 
   421  0093                     	;# 
   422  0094                     	;# 
   423  0098                     	;# 
   424  0099                     	;# 
   425  009C                     	;# 
   426  009D                     	;# 
   427  009E                     	;# 
   428  009F                     	;# 
   429  010C                     	;# 
   430  010D                     	;# 
   431  010E                     	;# 
   432  010F                     	;# 
   433  018C                     	;# 
   434  018D                     	;# 
   435                           
   436                           	psect	idataBANK0
   437  064E                     __pidataBANK0:
   438                           
   439                           ;initializer for _segments_code
   440  064E  34BF               	retlw	191
   441  064F  3406               	retlw	6
   442  0650  345B               	retlw	91
   443  0651  344F               	retlw	79
   444  0652  3466               	retlw	102
   445  0653  346D               	retlw	109
   446  0654  347D               	retlw	125
   447  0655  3407               	retlw	7
   448  0656  34FF               	retlw	255
   449  0657  346F               	retlw	111
   450                           
   451                           ;initializer for _TargetTempreture
   452  0658  3428               	retlw	40
   453  0659  3400               	retlw	0
   454                           
   455                           ;initializer for flashDisplay@prev_status
   456  065A  3401               	retlw	1
   457                           
   458                           	psect	nvBANK0
   459  005D                     __pnvBANK0:
   460  005D                     _state:
   461  005D                     	ds	1
   462  000E                     _TMR1	set	14
   463  0009                     _PORTEbits	set	9
   464  001E                     _ADRESH	set	30
   465  001F                     _ADCON0bits	set	31
   466  001F                     _ADCON0	set	31
   467  0008                     _PORTD	set	8
   468  0005                     _PORTAbits	set	5
   469  0006                     _PORTBbits	set	6
   470  005E                     _PEIE	set	94
   471  0085                     _T1CKPS1	set	133
   472  0084                     _T1CKPS0	set	132
   473  0081                     _TMR1CS	set	129
   474  005F                     _GIE	set	95
   475  005C                     _INTE	set	92
   476  0060                     _TMR1IF	set	96
   477  0059                     _INTF	set	89
   478  0035                     _RB5	set	53
   479  0037                     _RB7	set	55
   480  0080                     _TMR1ON	set	128
   481  003D                     _RC5	set	61
   482  003A                     _RC2	set	58
   483  009E                     _ADRESL	set	158
   484  009F                     _ADCON1	set	159
   485  0088                     _TRISD	set	136
   486  0085                     _TRISA	set	133
   487  0460                     _TMR1IE	set	1120
   488  040E                     _INTEDG	set	1038
   489  0435                     _TRISB5	set	1077
   490  0434                     _TRISB4	set	1076
   491  0433                     _TRISB3	set	1075
   492  0437                     _TRISB7	set	1079
   493  043A                     _TRISC2	set	1082
   494  043D                     _TRISC5	set	1085
   495                           
   496                           	psect	cinit
   497  0015                     start_initialization:	
   498                           ; #config settings
   499                           
   500  0015                     __initialization:
   501                           
   502                           ; Initialize objects allocated to BANK0
   503  0015  1383               	bcf	3,7	;select IRP bank0
   504  0016  305D               	movlw	low (__pdataBANK0+13)
   505  0017  00FD               	movwf	btemp+-1
   506  0018  3006               	movlw	high __pidataBANK0
   507  0019  00FE               	movwf	btemp
   508  001A  304E               	movlw	low __pidataBANK0
   509  001B  00FF               	movwf	btemp+1
   510  001C  3050               	movlw	low __pdataBANK0
   511  001D  0084               	movwf	4
   512  001E  120A  118A  262E  120A  118A  	fcall	init_ram0
   513                           
   514                           ; Clear objects allocated to BANK0
   515  0023  01C1               	clrf	__pbssBANK0& (0+127)
   516  0024  01C2               	clrf	(__pbssBANK0+1)& (0+127)
   517  0025  01C3               	clrf	(__pbssBANK0+2)& (0+127)
   518  0026  01C4               	clrf	(__pbssBANK0+3)& (0+127)
   519  0027  01C5               	clrf	(__pbssBANK0+4)& (0+127)
   520  0028  01C6               	clrf	(__pbssBANK0+5)& (0+127)
   521  0029  01C7               	clrf	(__pbssBANK0+6)& (0+127)
   522  002A  01C8               	clrf	(__pbssBANK0+7)& (0+127)
   523  002B  01C9               	clrf	(__pbssBANK0+8)& (0+127)
   524  002C  01CA               	clrf	(__pbssBANK0+9)& (0+127)
   525  002D  01CB               	clrf	(__pbssBANK0+10)& (0+127)
   526  002E  01CC               	clrf	(__pbssBANK0+11)& (0+127)
   527  002F  01CD               	clrf	(__pbssBANK0+12)& (0+127)
   528  0030  01CE               	clrf	(__pbssBANK0+13)& (0+127)
   529  0031  01CF               	clrf	(__pbssBANK0+14)& (0+127)
   530  0032                     end_of_initialization:	
   531                           ;End of C runtime variable initialization code
   532                           
   533  0032                     __end_of__initialization:
   534  0032  0183               	clrf	3
   535  0033  120A  118A  2A1E   	ljmp	_main	;jump to C main() function
   536                           
   537                           	psect	bssBANK0
   538  0041                     __pbssBANK0:
   539  0041                     _accumilated_tmeperature:
   540  0041                     	ds	2
   541  0043                     _TEMPRETURE:
   542  0043                     	ds	2
   543  0045                     flashDisplay@count:
   544  0045                     	ds	1
   545  0046                     _ReadTemp:
   546  0046                     	ds	1
   547  0047                     _timer1counter:
   548  0047                     	ds	1
   549  0048                     _Number_Tempreture:
   550  0048                     	ds	1
   551  0049                     _temp_state:
   552  0049                     	ds	1
   553  004A                     _str:
   554  004A                     	ds	6
   555                           
   556                           	psect	dataBANK0
   557  0050                     __pdataBANK0:
   558  0050                     _segments_code:
   559  0050                     	ds	10
   560  005A                     _TargetTempreture:
   561  005A                     	ds	2
   562  005C                     flashDisplay@prev_status:
   563  005C                     	ds	1
   564                           
   565                           	psect	inittext
   566  062A                     init_fetch0:	
   567                           ;	Called with low address in FSR and high address in W
   568                           
   569  062A  087E               	movf	btemp,w
   570  062B  008A               	movwf	10
   571  062C  087F               	movf	btemp+1,w
   572  062D  0082               	movwf	2
   573  062E                     init_ram0:	
   574                           ;Called with:
   575                           ;	high address of idata address in btemp 
   576                           ;	low address of idata address in btemp+1 
   577                           ;	low address of data in FSR
   578                           ;	high address + 1 of data in btemp-1
   579                           
   580  062E  120A  118A  262A  120A  118A  	fcall	init_fetch0
   581  0633  0080               	movwf	0
   582  0634  0A84               	incf	4,f
   583  0635  0804               	movf	4,w
   584  0636  067D               	xorwf	btemp+-1,w
   585  0637  1903               	btfsc	3,2
   586  0638  3400               	retlw	0
   587  0639  0AFF               	incf	btemp+1,f
   588  063A  1903               	btfsc	3,2
   589  063B  0AFE               	incf	btemp,f
   590  063C  2E2E               	goto	init_ram0
   591                           
   592                           	psect	cstackBANK1
   593  00A0                     __pcstackBANK1:
   594  00A0                     flashDisplay@i:
   595                           
   596                           ; 2 bytes @ 0x0
   597  00A0                     	ds	2
   598  00A2                     flashDisplay@i_162:
   599                           
   600                           ; 2 bytes @ 0x2
   601  00A2                     	ds	2
   602                           
   603                           	psect	cstackCOMMON
   604  0070                     __pcstackCOMMON:
   605  0070                     ?_displayDeiredTempreture:
   606  0070                     ?_displayTempreture:	
   607                           ; 1 bytes @ 0x0
   608                           
   609  0070                     ?_TIMER1_init:	
   610                           ; 1 bytes @ 0x0
   611                           
   612  0070                     ?_IRQ_RB0_init:	
   613                           ; 1 bytes @ 0x0
   614                           
   615  0070                     ?_lcd_writeNumber:	
   616                           ; 1 bytes @ 0x0
   617                           
   618  0070                     ?_off_state:	
   619                           ; 1 bytes @ 0x0
   620                           
   621  0070                     ?_flashDisplay:	
   622                           ; 1 bytes @ 0x0
   623                           
   624  0070                     ?_changeStatus:	
   625                           ; 1 bytes @ 0x0
   626                           
   627  0070                     ?_heaterOn:	
   628                           ; 1 bytes @ 0x0
   629                           
   630  0070                     ?_coolerOn:	
   631                           ; 1 bytes @ 0x0
   632                           
   633  0070                     ?_on_state:	
   634                           ; 1 bytes @ 0x0
   635                           
   636  0070                     ?_setting_state:	
   637                           ; 1 bytes @ 0x0
   638                           
   639  0070                     ?_main:	
   640                           ; 1 bytes @ 0x0
   641                           
   642  0070                     ?_update_tempreture:	
   643                           ; 1 bytes @ 0x0
   644                           
   645  0070                     ?_ISR:	
   646                           ; 1 bytes @ 0x0
   647                           
   648  0070                     ?_adc_amostra:	
   649                           ; 1 bytes @ 0x0
   650                           
   651  0070                     ?i1___lwmod:	
   652                           ; 2 bytes @ 0x0
   653                           
   654  0070                     i1___lwmod@divisor:	
   655                           ; 2 bytes @ 0x0
   656                           
   657                           
   658                           ; 2 bytes @ 0x0
   659  0070                     	ds	2
   660  0072                     ??_adc_amostra:
   661  0072                     i1___lwmod@dividend:	
   662                           ; 1 bytes @ 0x2
   663                           
   664                           
   665                           ; 2 bytes @ 0x2
   666  0072                     	ds	2
   667  0074                     ??i1___lwmod:
   668  0074                     i1___lwmod@counter:	
   669                           ; 1 bytes @ 0x4
   670                           
   671                           
   672                           ; 1 bytes @ 0x4
   673  0074                     	ds	1
   674  0075                     ?i1___lwdiv:
   675  0075                     i1___lwdiv@divisor:	
   676                           ; 2 bytes @ 0x5
   677                           
   678                           
   679                           ; 2 bytes @ 0x5
   680  0075                     	ds	2
   681  0077                     i1___lwdiv@dividend:
   682                           
   683                           ; 2 bytes @ 0x7
   684  0077                     	ds	2
   685  0079                     ??i1___lwdiv:
   686  0079                     adc_amostra@canal:	
   687                           ; 1 bytes @ 0x9
   688                           
   689  0079                     i1___lwdiv@quotient:	
   690                           ; 1 bytes @ 0x9
   691                           
   692                           
   693                           ; 2 bytes @ 0x9
   694  0079                     	ds	1
   695  007A                     ?___wmul:
   696  007A                     ___wmul@multiplier:	
   697                           ; 2 bytes @ 0xA
   698                           
   699                           
   700                           ; 2 bytes @ 0xA
   701  007A                     	ds	1
   702  007B                     i1___lwdiv@counter:
   703                           
   704                           ; 1 bytes @ 0xB
   705  007B                     	ds	1
   706  007C                     ??_itoa:
   707  007C                     ___wmul@multiplicand:	
   708                           ; 1 bytes @ 0xC
   709                           
   710                           
   711                           ; 2 bytes @ 0xC
   712  007C                     	ds	2
   713  007E                     ??___wmul:
   714                           
   715                           	psect	cstackBANK0
   716  0020                     __pcstackBANK0:	
   717                           ; 1 bytes @ 0xE
   718                           
   719  0020                     ?_itoa:
   720  0020                     itoa@val:	
   721                           ; 1 bytes @ 0x0
   722                           
   723  0020                     ___wmul@product:	
   724                           ; 2 bytes @ 0x0
   725                           
   726                           
   727                           ; 2 bytes @ 0x0
   728  0020                     	ds	2
   729  0022                     itoa@str:
   730                           
   731                           ; 1 bytes @ 0x2
   732  0022                     	ds	1
   733  0023                     ??_update_tempreture:
   734                           
   735                           ; 1 bytes @ 0x3
   736  0023                     	ds	4
   737  0027                     update_tempreture@temp:
   738                           
   739                           ; 2 bytes @ 0x7
   740  0027                     	ds	2
   741  0029                     update_tempreture@y:
   742                           
   743                           ; 1 bytes @ 0x9
   744  0029                     	ds	1
   745  002A                     update_tempreture@x:
   746                           
   747                           ; 1 bytes @ 0xA
   748  002A                     	ds	1
   749  002B                     ??_ISR:
   750                           
   751                           ; 1 bytes @ 0xB
   752  002B                     	ds	6
   753  0031                     ??_TIMER1_init:
   754  0031                     ??_IRQ_RB0_init:	
   755                           ; 1 bytes @ 0x11
   756                           
   757  0031                     ??_lcd_writeNumber:	
   758                           ; 1 bytes @ 0x11
   759                           
   760  0031                     ??_off_state:	
   761                           ; 1 bytes @ 0x11
   762                           
   763  0031                     ??_changeStatus:	
   764                           ; 1 bytes @ 0x11
   765                           
   766  0031                     ??_heaterOn:	
   767                           ; 1 bytes @ 0x11
   768                           
   769  0031                     ??_coolerOn:	
   770                           ; 1 bytes @ 0x11
   771                           
   772  0031                     ?___awdiv:	
   773                           ; 1 bytes @ 0x11
   774                           
   775  0031                     ?___awmod:	
   776                           ; 2 bytes @ 0x11
   777                           
   778  0031                     ?___lwdiv:	
   779                           ; 2 bytes @ 0x11
   780                           
   781  0031                     ?___lwmod:	
   782                           ; 2 bytes @ 0x11
   783                           
   784  0031                     lcd_writeNumber@code:	
   785                           ; 2 bytes @ 0x11
   786                           
   787  0031                     ___awdiv@divisor:	
   788                           ; 1 bytes @ 0x11
   789                           
   790  0031                     ___awmod@divisor:	
   791                           ; 2 bytes @ 0x11
   792                           
   793  0031                     ___lwdiv@divisor:	
   794                           ; 2 bytes @ 0x11
   795                           
   796  0031                     ___lwmod@divisor:	
   797                           ; 2 bytes @ 0x11
   798                           
   799                           
   800                           ; 2 bytes @ 0x11
   801  0031                     	ds	1
   802  0032                     lcd_writeNumber@number:
   803                           
   804                           ; 1 bytes @ 0x12
   805  0032                     	ds	1
   806  0033                     ___awdiv@dividend:
   807  0033                     ___awmod@dividend:	
   808                           ; 2 bytes @ 0x13
   809                           
   810  0033                     ___lwdiv@dividend:	
   811                           ; 2 bytes @ 0x13
   812                           
   813  0033                     ___lwmod@dividend:	
   814                           ; 2 bytes @ 0x13
   815                           
   816                           
   817                           ; 2 bytes @ 0x13
   818  0033                     	ds	2
   819  0035                     ??___awdiv:
   820  0035                     ??___awmod:	
   821                           ; 1 bytes @ 0x15
   822                           
   823  0035                     ??___lwdiv:	
   824                           ; 1 bytes @ 0x15
   825                           
   826  0035                     ??___lwmod:	
   827                           ; 1 bytes @ 0x15
   828                           
   829  0035                     ___awdiv@counter:	
   830                           ; 1 bytes @ 0x15
   831                           
   832  0035                     ___awmod@counter:	
   833                           ; 1 bytes @ 0x15
   834                           
   835  0035                     ___lwmod@counter:	
   836                           ; 1 bytes @ 0x15
   837                           
   838  0035                     ___lwdiv@quotient:	
   839                           ; 1 bytes @ 0x15
   840                           
   841                           
   842                           ; 2 bytes @ 0x15
   843  0035                     	ds	1
   844  0036                     ___awdiv@sign:
   845  0036                     ___awmod@sign:	
   846                           ; 1 bytes @ 0x16
   847                           
   848                           
   849                           ; 1 bytes @ 0x16
   850  0036                     	ds	1
   851  0037                     ___lwdiv@counter:
   852  0037                     ___awdiv@quotient:	
   853                           ; 1 bytes @ 0x17
   854                           
   855                           
   856                           ; 2 bytes @ 0x17
   857  0037                     	ds	1
   858  0038                     ??_displayTempreture:
   859                           
   860                           ; 1 bytes @ 0x18
   861  0038                     	ds	1
   862  0039                     ??_displayDeiredTempreture:
   863                           
   864                           ; 1 bytes @ 0x19
   865  0039                     	ds	1
   866  003A                     displayTempreture@low:
   867                           
   868                           ; 1 bytes @ 0x1A
   869  003A                     	ds	1
   870  003B                     displayTempreture@high:
   871  003B                     displayDeiredTempreture@low:	
   872                           ; 1 bytes @ 0x1B
   873                           
   874                           
   875                           ; 1 bytes @ 0x1B
   876  003B                     	ds	1
   877  003C                     ??_on_state:
   878  003C                     displayDeiredTempreture@high:	
   879                           ; 1 bytes @ 0x1C
   880                           
   881                           
   882                           ; 1 bytes @ 0x1C
   883  003C                     	ds	1
   884  003D                     ??_flashDisplay:
   885                           
   886                           ; 1 bytes @ 0x1D
   887  003D                     	ds	2
   888  003F                     ??_setting_state:
   889  003F                     ??_main:	
   890                           ; 1 bytes @ 0x1F
   891                           
   892                           
   893                           ; 1 bytes @ 0x1F
   894  003F                     	ds	2
   895                           
   896                           	psect	maintext
   897  021E                     __pmaintext:	
   898 ;;
   899 ;;Main: autosize = 0, tempsize = 2, incstack = 0, save=0
   900 ;;
   901 ;; *************** function _main *****************
   902 ;; Defined at:
   903 ;;		line 189 in file "main.c"
   904 ;; Parameters:    Size  Location     Type
   905 ;;		None
   906 ;; Auto vars:     Size  Location     Type
   907 ;;		None
   908 ;; Return value:  Size  Location     Type
   909 ;;                  1    wreg      void 
   910 ;; Registers used:
   911 ;;		wreg, fsr0l, fsr0h, status,2, status,0, btemp+1, pclath, cstack
   912 ;; Tracked objects:
   913 ;;		On entry : B00/0
   914 ;;		On exit  : 0/0
   915 ;;		Unchanged: 0/0
   916 ;; Data sizes:     COMMON   BANK0   BANK1   BANK3   BANK2
   917 ;;      Params:         0       0       0       0       0
   918 ;;      Locals:         0       0       0       0       0
   919 ;;      Temps:          0       2       0       0       0
   920 ;;      Totals:         0       2       0       0       0
   921 ;;Total ram usage:        2 bytes
   922 ;; Hardware stack levels required when called:    8
   923 ;; This function calls:
   924 ;;		_IRQ_RB0_init
   925 ;;		_TIMER1_init
   926 ;;		_off_state
   927 ;;		_on_state
   928 ;;		_setting_state
   929 ;; This function is called by:
   930 ;;		Startup code after reset
   931 ;; This function uses a non-reentrant model
   932 ;;
   933                           
   934                           
   935                           ;psect for function _main
   936  021E                     _main:
   937  021E                     l2362:	
   938                           ;incstack = 0
   939                           ; Regs used in _main: [wreg-fsr0h+status,2+status,0+btemp+1+pclath+cstack]
   940                           
   941                           
   942                           ;main.c: 191:     TIMER1_init ();
   943  021E  120A  118A  263D  120A  118A  	fcall	_TIMER1_init
   944                           
   945                           ;main.c: 192:     IRQ_RB0_init ();
   946  0223  120A  118A  2666  120A  118A  	fcall	_IRQ_RB0_init
   947  0228                     l2364:
   948                           
   949                           ;main.c: 195:     TRISA = 0x07;
   950  0228  3007               	movlw	7
   951  0229  1683               	bsf	3,5	;RP0=1, select bank1
   952  022A  1303               	bcf	3,6	;RP1=0, select bank1
   953  022B  0085               	movwf	5	;volatile
   954  022C                     l2366:
   955                           
   956                           ;main.c: 197:     TRISD = 0x00;
   957  022C  0188               	clrf	8	;volatile
   958  022D                     l2368:
   959                           
   960                           ;main.c: 199:     PORTD = 0x00;
   961  022D  1283               	bcf	3,5	;RP0=0, select bank0
   962  022E  1303               	bcf	3,6	;RP1=0, select bank0
   963  022F  0188               	clrf	8	;volatile
   964  0230                     l2370:
   965                           
   966                           ;main.c: 201:     TRISC5 = 0;
   967  0230  1683               	bsf	3,5	;RP0=1, select bank1
   968  0231  1303               	bcf	3,6	;RP1=0, select bank1
   969  0232  1287               	bcf	7,5	;volatile
   970  0233                     l2372:
   971                           
   972                           ;main.c: 202:     TRISC2 = 0;
   973  0233  1107               	bcf	7,2	;volatile
   974  0234                     l2374:
   975                           
   976                           ;main.c: 203:     RC2 = 0;
   977  0234  1283               	bcf	3,5	;RP0=0, select bank0
   978  0235  1303               	bcf	3,6	;RP1=0, select bank0
   979  0236  1107               	bcf	7,2	;volatile
   980  0237                     l2376:
   981                           
   982                           ;main.c: 204:     RC5 = 0;
   983  0237  1287               	bcf	7,5	;volatile
   984  0238                     l2378:
   985                           
   986                           ;main.c: 205:     TRISB7 = 0;
   987  0238  1683               	bsf	3,5	;RP0=1, select bank1
   988  0239  1303               	bcf	3,6	;RP1=0, select bank1
   989  023A  1386               	bcf	6,7	;volatile
   990  023B                     l2380:
   991                           
   992                           ;main.c: 206:     TRISB3 = 1;
   993  023B  1586               	bsf	6,3	;volatile
   994  023C                     l2382:
   995                           
   996                           ;main.c: 207:     TRISB4 = 1;
   997  023C  1606               	bsf	6,4	;volatile
   998  023D                     l2384:
   999                           
  1000                           ;main.c: 208:     RB7 =0;
  1001  023D  1283               	bcf	3,5	;RP0=0, select bank0
  1002  023E  1303               	bcf	3,6	;RP1=0, select bank0
  1003  023F  1386               	bcf	6,7	;volatile
  1004  0240                     l2386:
  1005                           
  1006                           ;main.c: 209:     TRISB5 = 0;
  1007  0240  1683               	bsf	3,5	;RP0=1, select bank1
  1008  0241  1303               	bcf	3,6	;RP1=0, select bank1
  1009  0242  1286               	bcf	6,5	;volatile
  1010  0243                     l2388:
  1011                           
  1012                           ;main.c: 210:     RB5 =0;
  1013  0243  1283               	bcf	3,5	;RP0=0, select bank0
  1014  0244  1303               	bcf	3,6	;RP1=0, select bank0
  1015  0245  1286               	bcf	6,5	;volatile
  1016  0246                     l2390:
  1017                           
  1018                           ;main.c: 211:     Number_Tempreture=0;
  1019  0246  01C8               	clrf	_Number_Tempreture
  1020  0247                     l2392:
  1021                           
  1022                           ;main.c: 213:     state=OFF_STATE;
  1023  0247  01DD               	clrf	_state
  1024  0248  0ADD               	incf	_state,f
  1025  0249                     l2394:
  1026                           
  1027                           ;main.c: 214:     temp_state=OK_state;
  1028  0249  01C9               	clrf	_temp_state
  1029  024A                     l2396:
  1030                           
  1031                           ;main.c: 215:     ReadTemp=0;
  1032  024A  01C6               	clrf	_ReadTemp
  1033  024B                     l2398:
  1034                           
  1035                           ;main.c: 216:     timer1counter=0;
  1036  024B  01C7               	clrf	_timer1counter
  1037  024C                     l2400:
  1038                           
  1039                           ;main.c: 217:     accumilated_tmeperature=0;
  1040  024C  01C1               	clrf	_accumilated_tmeperature
  1041  024D  01C2               	clrf	_accumilated_tmeperature+1
  1042  024E  2A61               	goto	l2410
  1043  024F                     l2402:
  1044                           
  1045                           ;main.c: 223:             on_state();
  1046  024F  120A  118A  2506  120A  118A  	fcall	_on_state
  1047                           
  1048                           ;main.c: 224:             break;
  1049  0254  2A61               	goto	l2410
  1050  0255                     l2404:
  1051                           
  1052                           ;main.c: 226:             off_state();
  1053  0255  120A  118A  2676  120A  118A  	fcall	_off_state
  1054                           
  1055                           ;main.c: 227:             break;
  1056  025A  2A61               	goto	l2410
  1057  025B                     l2406:
  1058                           
  1059                           ;main.c: 229:             setting_state();
  1060  025B  120A  118A  265B  120A  118A  	fcall	_setting_state
  1061                           
  1062                           ;main.c: 230:             break;
  1063  0260  2A61               	goto	l2410
  1064  0261                     l147:
  1065  0261                     l2410:
  1066  0261  1283               	bcf	3,5	;RP0=0, select bank0
  1067  0262  1303               	bcf	3,6	;RP1=0, select bank0
  1068  0263  085D               	movf	_state,w
  1069  0264  00BF               	movwf	??_main
  1070  0265  01C0               	clrf	??_main+1
  1071                           
  1072                           ; Switch on 2 bytes has been partitioned into a top level switch of size 1, and 1 sub-sw
      +                          itches
  1073                           ; Switch size 1, requested type "simple"
  1074                           ; Number of cases is 1, Range of values is 0 to 0
  1075                           ; switch strategies available:
  1076                           ; Name         Instructions Cycles
  1077                           ; simple_byte            4     3 (average)
  1078                           ; direct_byte           11     8 (fixed)
  1079                           ; jumptable            260     6 (fixed)
  1080                           ;	Chosen strategy is simple_byte
  1081  0266  0840               	movf	??_main+1,w
  1082  0267  3A00               	xorlw	0	; case 0
  1083  0268  1903               	skipnz
  1084  0269  2A6B               	goto	l2518
  1085  026A  2A61               	goto	l147
  1086  026B                     l2518:
  1087                           
  1088                           ; Switch size 1, requested type "simple"
  1089                           ; Number of cases is 3, Range of values is 0 to 2
  1090                           ; switch strategies available:
  1091                           ; Name         Instructions Cycles
  1092                           ; simple_byte           10     6 (average)
  1093                           ; direct_byte           17     8 (fixed)
  1094                           ; jumptable            260     6 (fixed)
  1095                           ;	Chosen strategy is simple_byte
  1096  026B  083F               	movf	??_main,w
  1097  026C  3A00               	xorlw	0	; case 0
  1098  026D  1903               	skipnz
  1099  026E  2A4F               	goto	l2402
  1100  026F  3A01               	xorlw	1	; case 1
  1101  0270  1903               	skipnz
  1102  0271  2A55               	goto	l2404
  1103  0272  3A03               	xorlw	3	; case 2
  1104  0273  1903               	skipnz
  1105  0274  2A5B               	goto	l2406
  1106  0275  2A61               	goto	l147
  1107  0276  120A  118A  2812   	ljmp	start
  1108  0279                     __end_of_main:
  1109                           
  1110                           	psect	text1
  1111  065B                     __ptext1:	
  1112 ;; *************** function _setting_state *****************
  1113 ;; Defined at:
  1114 ;;		line 181 in file "main.c"
  1115 ;; Parameters:    Size  Location     Type
  1116 ;;		None
  1117 ;; Auto vars:     Size  Location     Type
  1118 ;;		None
  1119 ;; Return value:  Size  Location     Type
  1120 ;;                  1    wreg      void 
  1121 ;; Registers used:
  1122 ;;		wreg, fsr0l, fsr0h, status,2, status,0, btemp+1, pclath, cstack
  1123 ;; Tracked objects:
  1124 ;;		On entry : 0/0
  1125 ;;		On exit  : 0/0
  1126 ;;		Unchanged: 0/0
  1127 ;; Data sizes:     COMMON   BANK0   BANK1   BANK3   BANK2
  1128 ;;      Params:         0       0       0       0       0
  1129 ;;      Locals:         0       0       0       0       0
  1130 ;;      Temps:          0       0       0       0       0
  1131 ;;      Totals:         0       0       0       0       0
  1132 ;;Total ram usage:        0 bytes
  1133 ;; Hardware stack levels used:    1
  1134 ;; Hardware stack levels required when called:    7
  1135 ;; This function calls:
  1136 ;;		_flashDisplay
  1137 ;; This function is called by:
  1138 ;;		_main
  1139 ;; This function uses a non-reentrant model
  1140 ;;
  1141                           
  1142                           
  1143                           ;psect for function _setting_state
  1144  065B                     _setting_state:
  1145  065B                     l2358:	
  1146                           ;incstack = 0
  1147                           ; Regs used in _setting_state: [wreg-fsr0h+status,2+status,0+btemp+1+pclath+cstack]
  1148                           
  1149                           
  1150                           ;main.c: 183:      TMR1ON = 0;
  1151  065B  1283               	bcf	3,5	;RP0=0, select bank0
  1152  065C  1303               	bcf	3,6	;RP1=0, select bank0
  1153  065D  1010               	bcf	16,0	;volatile
  1154                           
  1155                           ;main.c: 184:      RC2=0;
  1156  065E  1107               	bcf	7,2	;volatile
  1157                           
  1158                           ;main.c: 185:      RC5=0;
  1159  065F  1287               	bcf	7,5	;volatile
  1160  0660                     l2360:
  1161                           
  1162                           ;main.c: 186:      flashDisplay();
  1163  0660  120A  118A  2036  120A  118A  	fcall	_flashDisplay
  1164  0665                     l141:
  1165  0665  0008               	return
  1166  0666                     __end_of_setting_state:
  1167                           
  1168                           	psect	text2
  1169  0036                     __ptext2:	
  1170 ;; *************** function _flashDisplay *****************
  1171 ;; Defined at:
  1172 ;;		line 51 in file "main.c"
  1173 ;; Parameters:    Size  Location     Type
  1174 ;;		None
  1175 ;; Auto vars:     Size  Location     Type
  1176 ;;  i               2    2[BANK1 ] int 
  1177 ;;  i               2    0[BANK1 ] int 
  1178 ;; Return value:  Size  Location     Type
  1179 ;;                  1    wreg      void 
  1180 ;; Registers used:
  1181 ;;		wreg, fsr0l, fsr0h, status,2, status,0, btemp+1, pclath, cstack
  1182 ;; Tracked objects:
  1183 ;;		On entry : 0/0
  1184 ;;		On exit  : 0/0
  1185 ;;		Unchanged: 0/0
  1186 ;; Data sizes:     COMMON   BANK0   BANK1   BANK3   BANK2
  1187 ;;      Params:         0       0       0       0       0
  1188 ;;      Locals:         0       0       4       0       0
  1189 ;;      Temps:          0       2       0       0       0
  1190 ;;      Totals:         0       2       4       0       0
  1191 ;;Total ram usage:        6 bytes
  1192 ;; Hardware stack levels used:    1
  1193 ;; Hardware stack levels required when called:    6
  1194 ;; This function calls:
  1195 ;;		_displayDeiredTempreture
  1196 ;; This function is called by:
  1197 ;;		_setting_state
  1198 ;; This function uses a non-reentrant model
  1199 ;;
  1200                           
  1201                           
  1202                           ;psect for function _flashDisplay
  1203  0036                     _flashDisplay:
  1204  0036                     l2238:	
  1205                           ;incstack = 0
  1206                           ; Regs used in _flashDisplay: [wreg-fsr0h+status,2+status,0+btemp+1+pclath+cstack]
  1207                           
  1208                           
  1209                           ;main.c: 53:     static unsigned char count=0;;main.c: 54:     static unsigned char prev
      +                          _status=PREV_STABLE;;main.c: 55:     if(PORTBbits.RB3&&PORTBbits.RB4)
  1210  0036  1283               	bcf	3,5	;RP0=0, select bank0
  1211  0037  1303               	bcf	3,6	;RP1=0, select bank0
  1212  0038  1D86               	btfss	6,3	;volatile
  1213  0039  283B               	goto	u1781
  1214  003A  283C               	goto	u1780
  1215  003B                     u1781:
  1216  003B  284F               	goto	l2252
  1217  003C                     u1780:
  1218  003C                     l2240:
  1219  003C  1E06               	btfss	6,4	;volatile
  1220  003D  283F               	goto	u1791
  1221  003E  2840               	goto	u1790
  1222  003F                     u1791:
  1223  003F  284F               	goto	l2252
  1224  0040                     u1790:
  1225  0040                     l2242:
  1226                           
  1227                           ;main.c: 56:     {;main.c: 57:         if(count==10)
  1228  0040  300A               	movlw	10
  1229  0041  0645               	xorwf	flashDisplay@count,w
  1230  0042  1D03               	btfss	3,2
  1231  0043  2845               	goto	u1801
  1232  0044  2846               	goto	u1800
  1233  0045                     u1801:
  1234  0045  2849               	goto	l99
  1235  0046                     u1800:
  1236  0046                     l2244:
  1237                           
  1238                           ;main.c: 58:         {;main.c: 59:             state=ON_STATE;
  1239  0046  01DD               	clrf	_state
  1240                           
  1241                           ;main.c: 60:             count=0;
  1242  0047  01C5               	clrf	flashDisplay@count
  1243  0048  294C               	goto	l100
  1244  0049                     l99:	
  1245                           ;main.c: 63:         else{
  1246                           
  1247                           
  1248                           ;main.c: 64:             prev_status=PREV_STABLE;
  1249  0049  01DC               	clrf	flashDisplay@prev_status
  1250  004A  0ADC               	incf	flashDisplay@prev_status,f
  1251  004B                     l2250:
  1252                           
  1253                           ;main.c: 65:             count++;
  1254  004B  3001               	movlw	1
  1255  004C  00FF               	movwf	btemp+1
  1256  004D  087F               	movf	btemp+1,w
  1257  004E  07C5               	addwf	flashDisplay@count,f
  1258  004F                     l2252:
  1259                           
  1260                           ;main.c: 69:    for(int i=0;i<25;i++)
  1261  004F  1683               	bsf	3,5	;RP0=1, select bank1
  1262  0050  1303               	bcf	3,6	;RP1=0, select bank1
  1263  0051  01A0               	clrf	flashDisplay@i^(0+128)
  1264  0052  01A1               	clrf	(flashDisplay@i+1)^(0+128)
  1265  0053                     l2258:
  1266                           
  1267                           ;main.c: 70:    {;main.c: 71:     displayDeiredTempreture();
  1268  0053  120A  118A  2384  120A  118A  	fcall	_displayDeiredTempreture
  1269  0058                     l2260:
  1270                           
  1271                           ;main.c: 72:     if(PORTBbits.RB3==0&&prev_status==PREV_STABLE)
  1272  0058  1283               	bcf	3,5	;RP0=0, select bank0
  1273  0059  1303               	bcf	3,6	;RP1=0, select bank0
  1274  005A  1986               	btfsc	6,3	;volatile
  1275  005B  285D               	goto	u1811
  1276  005C  285E               	goto	u1810
  1277  005D                     u1811:
  1278  005D  2886               	goto	l2270
  1279  005E                     u1810:
  1280  005E                     l2262:
  1281  005E  035C               	decf	flashDisplay@prev_status,w
  1282  005F  1D03               	btfss	3,2
  1283  0060  2862               	goto	u1821
  1284  0061  2863               	goto	u1820
  1285  0062                     u1821:
  1286  0062  2886               	goto	l2270
  1287  0063                     u1820:
  1288  0063                     l2264:
  1289                           
  1290                           ;main.c: 73:        {;main.c: 74:            if(TargetTempreture<75)
  1291  0063  085B               	movf	_TargetTempreture+1,w
  1292  0064  3A80               	xorlw	128
  1293  0065  00FF               	movwf	btemp+1
  1294  0066  3080               	movlw	128
  1295  0067  027F               	subwf	btemp+1,w
  1296  0068  1D03               	skipz
  1297  0069  286C               	goto	u1835
  1298  006A  304B               	movlw	75
  1299  006B  025A               	subwf	_TargetTempreture,w
  1300  006C                     u1835:
  1301  006C  1803               	skipnc
  1302  006D  286F               	goto	u1831
  1303  006E  2870               	goto	u1830
  1304  006F                     u1831:
  1305  006F  2886               	goto	l2270
  1306  0070                     u1830:
  1307  0070                     l2266:
  1308                           
  1309                           ;main.c: 75:            {;main.c: 76:                TargetTempreture += 5;
  1310  0070  3005               	movlw	5
  1311  0071  1283               	bcf	3,5	;RP0=0, select bank0
  1312  0072  1303               	bcf	3,6	;RP1=0, select bank0
  1313  0073  07DA               	addwf	_TargetTempreture,f
  1314  0074  1803               	skipnc
  1315  0075  0ADB               	incf	_TargetTempreture+1,f
  1316  0076  3000               	movlw	0
  1317  0077  07DB               	addwf	_TargetTempreture+1,f
  1318                           
  1319                           ;main.c: 77:            _delay((unsigned long)((30)*(8000000/4000.0)));
  1320  0078  304E               	movlw	78
  1321  0079  1283               	bcf	3,5	;RP0=0, select bank0
  1322  007A  1303               	bcf	3,6	;RP1=0, select bank0
  1323  007B  00BE               	movwf	??_flashDisplay+1
  1324  007C  30EA               	movlw	234
  1325  007D  00BD               	movwf	??_flashDisplay
  1326  007E                     u1977:
  1327  007E  0BBD               	decfsz	??_flashDisplay,f
  1328  007F  287E               	goto	u1977
  1329  0080  0BBE               	decfsz	??_flashDisplay+1,f
  1330  0081  287E               	goto	u1977
  1331  0082  0000               	nop
  1332  0083                     l2268:
  1333                           
  1334                           ;main.c: 78:            prev_status=PREV_UN_STABLE;
  1335  0083  1283               	bcf	3,5	;RP0=0, select bank0
  1336  0084  1303               	bcf	3,6	;RP1=0, select bank0
  1337  0085  01DC               	clrf	flashDisplay@prev_status
  1338  0086                     l2270:
  1339                           
  1340                           ;main.c: 82:     if(PORTBbits.RB4==0&&prev_status==PREV_STABLE)
  1341  0086  1283               	bcf	3,5	;RP0=0, select bank0
  1342  0087  1303               	bcf	3,6	;RP1=0, select bank0
  1343  0088  1A06               	btfsc	6,4	;volatile
  1344  0089  288B               	goto	u1841
  1345  008A  288C               	goto	u1840
  1346  008B                     u1841:
  1347  008B  28B4               	goto	l2280
  1348  008C                     u1840:
  1349  008C                     l2272:
  1350  008C  035C               	decf	flashDisplay@prev_status,w
  1351  008D  1D03               	btfss	3,2
  1352  008E  2890               	goto	u1851
  1353  008F  2891               	goto	u1850
  1354  0090                     u1851:
  1355  0090  28B4               	goto	l2280
  1356  0091                     u1850:
  1357  0091                     l2274:
  1358                           
  1359                           ;main.c: 83:     {;main.c: 84:         if(TargetTempreture>35)
  1360  0091  085B               	movf	_TargetTempreture+1,w
  1361  0092  3A80               	xorlw	128
  1362  0093  00FF               	movwf	btemp+1
  1363  0094  3080               	movlw	128
  1364  0095  027F               	subwf	btemp+1,w
  1365  0096  1D03               	skipz
  1366  0097  289A               	goto	u1865
  1367  0098  3024               	movlw	36
  1368  0099  025A               	subwf	_TargetTempreture,w
  1369  009A                     u1865:
  1370  009A  1C03               	skipc
  1371  009B  289D               	goto	u1861
  1372  009C  289E               	goto	u1860
  1373  009D                     u1861:
  1374  009D  28B4               	goto	l2280
  1375  009E                     u1860:
  1376  009E                     l2276:
  1377                           
  1378                           ;main.c: 85:         {;main.c: 86:          TargetTempreture -= 5;
  1379  009E  30FB               	movlw	251
  1380  009F  1283               	bcf	3,5	;RP0=0, select bank0
  1381  00A0  1303               	bcf	3,6	;RP1=0, select bank0
  1382  00A1  07DA               	addwf	_TargetTempreture,f
  1383  00A2  1803               	skipnc
  1384  00A3  0ADB               	incf	_TargetTempreture+1,f
  1385  00A4  30FF               	movlw	255
  1386  00A5  07DB               	addwf	_TargetTempreture+1,f
  1387                           
  1388                           ;main.c: 87:         _delay((unsigned long)((30)*(8000000/4000.0)));
  1389  00A6  304E               	movlw	78
  1390  00A7  1283               	bcf	3,5	;RP0=0, select bank0
  1391  00A8  1303               	bcf	3,6	;RP1=0, select bank0
  1392  00A9  00BE               	movwf	??_flashDisplay+1
  1393  00AA  30EA               	movlw	234
  1394  00AB  00BD               	movwf	??_flashDisplay
  1395  00AC                     u1987:
  1396  00AC  0BBD               	decfsz	??_flashDisplay,f
  1397  00AD  28AC               	goto	u1987
  1398  00AE  0BBE               	decfsz	??_flashDisplay+1,f
  1399  00AF  28AC               	goto	u1987
  1400  00B0  0000               	nop
  1401  00B1                     l2278:
  1402                           
  1403                           ;main.c: 88:          prev_status=PREV_UN_STABLE;
  1404  00B1  1283               	bcf	3,5	;RP0=0, select bank0
  1405  00B2  1303               	bcf	3,6	;RP1=0, select bank0
  1406  00B3  01DC               	clrf	flashDisplay@prev_status
  1407  00B4                     l2280:
  1408                           
  1409                           ;main.c: 94:    }
  1410  00B4  3001               	movlw	1
  1411  00B5  1683               	bsf	3,5	;RP0=1, select bank1
  1412  00B6  1303               	bcf	3,6	;RP1=0, select bank1
  1413  00B7  07A0               	addwf	flashDisplay@i^(0+128),f
  1414  00B8  1803               	skipnc
  1415  00B9  0AA1               	incf	(flashDisplay@i+1)^(0+128),f
  1416  00BA  3000               	movlw	0
  1417  00BB  07A1               	addwf	(flashDisplay@i+1)^(0+128),f
  1418  00BC                     l2282:
  1419  00BC  0821               	movf	(flashDisplay@i+1)^(0+128),w
  1420  00BD  3A80               	xorlw	128
  1421  00BE  00FF               	movwf	btemp+1
  1422  00BF  3080               	movlw	128
  1423  00C0  027F               	subwf	btemp+1,w
  1424  00C1  1D03               	skipz
  1425  00C2  28C5               	goto	u1875
  1426  00C3  3019               	movlw	25
  1427  00C4  0220               	subwf	flashDisplay@i^(0+128),w
  1428  00C5                     u1875:
  1429  00C5  1C03               	skipc
  1430  00C6  28C8               	goto	u1871
  1431  00C7  28C9               	goto	u1870
  1432  00C8                     u1871:
  1433  00C8  2853               	goto	l2258
  1434  00C9                     u1870:
  1435  00C9                     l103:
  1436                           
  1437                           ;main.c: 95:     PORTAbits.RA4=0;
  1438  00C9  1283               	bcf	3,5	;RP0=0, select bank0
  1439  00CA  1303               	bcf	3,6	;RP1=0, select bank0
  1440  00CB  1205               	bcf	5,4	;volatile
  1441                           
  1442                           ;main.c: 96:     PORTAbits.RA5=0;
  1443  00CC  1285               	bcf	5,5	;volatile
  1444  00CD                     l2284:
  1445                           
  1446                           ;main.c: 99:       for(int i=0;i<25;i++)
  1447  00CD  1683               	bsf	3,5	;RP0=1, select bank1
  1448  00CE  1303               	bcf	3,6	;RP1=0, select bank1
  1449  00CF  01A2               	clrf	flashDisplay@i_162^(0+128)
  1450  00D0  01A3               	clrf	(flashDisplay@i_162+1)^(0+128)
  1451  00D1                     l2290:
  1452                           
  1453                           ;main.c: 100:    {;main.c: 101:        _delay((unsigned long)((20)*(8000000/4000.0)));
  1454  00D1  3034               	movlw	52
  1455  00D2  1283               	bcf	3,5	;RP0=0, select bank0
  1456  00D3  1303               	bcf	3,6	;RP1=0, select bank0
  1457  00D4  00BE               	movwf	??_flashDisplay+1
  1458  00D5  30F1               	movlw	241
  1459  00D6  00BD               	movwf	??_flashDisplay
  1460  00D7                     u1997:
  1461  00D7  0BBD               	decfsz	??_flashDisplay,f
  1462  00D8  28D7               	goto	u1997
  1463  00D9  0BBE               	decfsz	??_flashDisplay+1,f
  1464  00DA  28D7               	goto	u1997
  1465  00DB                     l2292:
  1466                           
  1467                           ;main.c: 102:        if(PORTBbits.RB3==0&&prev_status==PREV_STABLE)
  1468  00DB  1283               	bcf	3,5	;RP0=0, select bank0
  1469  00DC  1303               	bcf	3,6	;RP1=0, select bank0
  1470  00DD  1986               	btfsc	6,3	;volatile
  1471  00DE  28E0               	goto	u1881
  1472  00DF  28E1               	goto	u1880
  1473  00E0                     u1881:
  1474  00E0  2909               	goto	l2302
  1475  00E1                     u1880:
  1476  00E1                     l2294:
  1477  00E1  035C               	decf	flashDisplay@prev_status,w
  1478  00E2  1D03               	btfss	3,2
  1479  00E3  28E5               	goto	u1891
  1480  00E4  28E6               	goto	u1890
  1481  00E5                     u1891:
  1482  00E5  2909               	goto	l2302
  1483  00E6                     u1890:
  1484  00E6                     l2296:
  1485                           
  1486                           ;main.c: 103:        {;main.c: 104:            if(TargetTempreture<75)
  1487  00E6  085B               	movf	_TargetTempreture+1,w
  1488  00E7  3A80               	xorlw	128
  1489  00E8  00FF               	movwf	btemp+1
  1490  00E9  3080               	movlw	128
  1491  00EA  027F               	subwf	btemp+1,w
  1492  00EB  1D03               	skipz
  1493  00EC  28EF               	goto	u1905
  1494  00ED  304B               	movlw	75
  1495  00EE  025A               	subwf	_TargetTempreture,w
  1496  00EF                     u1905:
  1497  00EF  1803               	skipnc
  1498  00F0  28F2               	goto	u1901
  1499  00F1  28F3               	goto	u1900
  1500  00F2                     u1901:
  1501  00F2  2909               	goto	l2302
  1502  00F3                     u1900:
  1503  00F3                     l2298:
  1504                           
  1505                           ;main.c: 105:            {;main.c: 106:                TargetTempreture += 5;
  1506  00F3  3005               	movlw	5
  1507  00F4  1283               	bcf	3,5	;RP0=0, select bank0
  1508  00F5  1303               	bcf	3,6	;RP1=0, select bank0
  1509  00F6  07DA               	addwf	_TargetTempreture,f
  1510  00F7  1803               	skipnc
  1511  00F8  0ADB               	incf	_TargetTempreture+1,f
  1512  00F9  3000               	movlw	0
  1513  00FA  07DB               	addwf	_TargetTempreture+1,f
  1514                           
  1515                           ;main.c: 107:            _delay((unsigned long)((30)*(8000000/4000.0)));
  1516  00FB  304E               	movlw	78
  1517  00FC  1283               	bcf	3,5	;RP0=0, select bank0
  1518  00FD  1303               	bcf	3,6	;RP1=0, select bank0
  1519  00FE  00BE               	movwf	??_flashDisplay+1
  1520  00FF  30EA               	movlw	234
  1521  0100  00BD               	movwf	??_flashDisplay
  1522  0101                     u2007:
  1523  0101  0BBD               	decfsz	??_flashDisplay,f
  1524  0102  2901               	goto	u2007
  1525  0103  0BBE               	decfsz	??_flashDisplay+1,f
  1526  0104  2901               	goto	u2007
  1527  0105  0000               	nop
  1528  0106                     l2300:
  1529                           
  1530                           ;main.c: 108:            prev_status=PREV_UN_STABLE;
  1531  0106  1283               	bcf	3,5	;RP0=0, select bank0
  1532  0107  1303               	bcf	3,6	;RP1=0, select bank0
  1533  0108  01DC               	clrf	flashDisplay@prev_status
  1534  0109                     l2302:
  1535                           
  1536                           ;main.c: 113:      if(PORTBbits.RB4==0&&prev_status==PREV_STABLE)
  1537  0109  1283               	bcf	3,5	;RP0=0, select bank0
  1538  010A  1303               	bcf	3,6	;RP1=0, select bank0
  1539  010B  1A06               	btfsc	6,4	;volatile
  1540  010C  290E               	goto	u1911
  1541  010D  290F               	goto	u1910
  1542  010E                     u1911:
  1543  010E  2937               	goto	l2312
  1544  010F                     u1910:
  1545  010F                     l2304:
  1546  010F  035C               	decf	flashDisplay@prev_status,w
  1547  0110  1D03               	btfss	3,2
  1548  0111  2913               	goto	u1921
  1549  0112  2914               	goto	u1920
  1550  0113                     u1921:
  1551  0113  2937               	goto	l2312
  1552  0114                     u1920:
  1553  0114                     l2306:
  1554                           
  1555                           ;main.c: 114:      {;main.c: 115:         if(TargetTempreture>35)
  1556  0114  085B               	movf	_TargetTempreture+1,w
  1557  0115  3A80               	xorlw	128
  1558  0116  00FF               	movwf	btemp+1
  1559  0117  3080               	movlw	128
  1560  0118  027F               	subwf	btemp+1,w
  1561  0119  1D03               	skipz
  1562  011A  291D               	goto	u1935
  1563  011B  3024               	movlw	36
  1564  011C  025A               	subwf	_TargetTempreture,w
  1565  011D                     u1935:
  1566  011D  1C03               	skipc
  1567  011E  2920               	goto	u1931
  1568  011F  2921               	goto	u1930
  1569  0120                     u1931:
  1570  0120  2937               	goto	l2312
  1571  0121                     u1930:
  1572  0121                     l2308:
  1573                           
  1574                           ;main.c: 116:         {;main.c: 117:          TargetTempreture -= 5;
  1575  0121  30FB               	movlw	251
  1576  0122  1283               	bcf	3,5	;RP0=0, select bank0
  1577  0123  1303               	bcf	3,6	;RP1=0, select bank0
  1578  0124  07DA               	addwf	_TargetTempreture,f
  1579  0125  1803               	skipnc
  1580  0126  0ADB               	incf	_TargetTempreture+1,f
  1581  0127  30FF               	movlw	255
  1582  0128  07DB               	addwf	_TargetTempreture+1,f
  1583                           
  1584                           ;main.c: 118:         _delay((unsigned long)((30)*(8000000/4000.0)));
  1585  0129  304E               	movlw	78
  1586  012A  1283               	bcf	3,5	;RP0=0, select bank0
  1587  012B  1303               	bcf	3,6	;RP1=0, select bank0
  1588  012C  00BE               	movwf	??_flashDisplay+1
  1589  012D  30EA               	movlw	234
  1590  012E  00BD               	movwf	??_flashDisplay
  1591  012F                     u2017:
  1592  012F  0BBD               	decfsz	??_flashDisplay,f
  1593  0130  292F               	goto	u2017
  1594  0131  0BBE               	decfsz	??_flashDisplay+1,f
  1595  0132  292F               	goto	u2017
  1596  0133  0000               	nop
  1597  0134                     l2310:
  1598                           
  1599                           ;main.c: 119:          prev_status=PREV_UN_STABLE;
  1600  0134  1283               	bcf	3,5	;RP0=0, select bank0
  1601  0135  1303               	bcf	3,6	;RP1=0, select bank0
  1602  0136  01DC               	clrf	flashDisplay@prev_status
  1603  0137                     l2312:
  1604                           
  1605                           ;main.c: 123:    }
  1606  0137  3001               	movlw	1
  1607  0138  1683               	bsf	3,5	;RP0=1, select bank1
  1608  0139  1303               	bcf	3,6	;RP1=0, select bank1
  1609  013A  07A2               	addwf	flashDisplay@i_162^(0+128),f
  1610  013B  1803               	skipnc
  1611  013C  0AA3               	incf	(flashDisplay@i_162+1)^(0+128),f
  1612  013D  3000               	movlw	0
  1613  013E  07A3               	addwf	(flashDisplay@i_162+1)^(0+128),f
  1614  013F                     l2314:
  1615  013F  0823               	movf	(flashDisplay@i_162+1)^(0+128),w
  1616  0140  3A80               	xorlw	128
  1617  0141  00FF               	movwf	btemp+1
  1618  0142  3080               	movlw	128
  1619  0143  027F               	subwf	btemp+1,w
  1620  0144  1D03               	skipz
  1621  0145  2948               	goto	u1945
  1622  0146  3019               	movlw	25
  1623  0147  0222               	subwf	flashDisplay@i_162^(0+128),w
  1624  0148                     u1945:
  1625  0148  1C03               	skipc
  1626  0149  294B               	goto	u1941
  1627  014A  294C               	goto	u1940
  1628  014B                     u1941:
  1629  014B  28D1               	goto	l2290
  1630  014C                     u1940:
  1631  014C                     l100:
  1632  014C  0008               	return
  1633  014D                     __end_of_flashDisplay:
  1634                           
  1635                           	psect	text3
  1636  0384                     __ptext3:	
  1637 ;; *************** function _displayDeiredTempreture *****************
  1638 ;; Defined at:
  1639 ;;		line 251 in file "main.c"
  1640 ;; Parameters:    Size  Location     Type
  1641 ;;		None
  1642 ;; Auto vars:     Size  Location     Type
  1643 ;;  high            1   28[BANK0 ] unsigned char 
  1644 ;;  low             1   27[BANK0 ] unsigned char 
  1645 ;; Return value:  Size  Location     Type
  1646 ;;                  1    wreg      void 
  1647 ;; Registers used:
  1648 ;;		wreg, fsr0l, fsr0h, status,2, status,0, btemp+1, pclath, cstack
  1649 ;; Tracked objects:
  1650 ;;		On entry : 0/0
  1651 ;;		On exit  : 0/0
  1652 ;;		Unchanged: 0/0
  1653 ;; Data sizes:     COMMON   BANK0   BANK1   BANK3   BANK2
  1654 ;;      Params:         0       0       0       0       0
  1655 ;;      Locals:         0       2       0       0       0
  1656 ;;      Temps:          0       2       0       0       0
  1657 ;;      Totals:         0       4       0       0       0
  1658 ;;Total ram usage:        4 bytes
  1659 ;; Hardware stack levels used:    1
  1660 ;; Hardware stack levels required when called:    5
  1661 ;; This function calls:
  1662 ;;		___awdiv
  1663 ;;		___awmod
  1664 ;;		_lcd_writeNumber
  1665 ;; This function is called by:
  1666 ;;		_flashDisplay
  1667 ;; This function uses a non-reentrant model
  1668 ;;
  1669                           
  1670                           
  1671                           ;psect for function _displayDeiredTempreture
  1672  0384                     _displayDeiredTempreture:
  1673  0384                     l2220:	
  1674                           ;incstack = 0
  1675                           ; Regs used in _displayDeiredTempreture: [wreg-fsr0h+status,2+status,0+btemp+1+pclath+cs
      +                          tack]
  1676                           
  1677                           
  1678                           ;main.c: 253:     unsigned char low=TargetTempreture%10;
  1679  0384  300A               	movlw	10
  1680  0385  1283               	bcf	3,5	;RP0=0, select bank0
  1681  0386  1303               	bcf	3,6	;RP1=0, select bank0
  1682  0387  00B1               	movwf	___awmod@divisor
  1683  0388  3000               	movlw	0
  1684  0389  00B2               	movwf	___awmod@divisor+1
  1685  038A  085B               	movf	_TargetTempreture+1,w
  1686  038B  00B4               	movwf	___awmod@dividend+1
  1687  038C  085A               	movf	_TargetTempreture,w
  1688  038D  00B3               	movwf	___awmod@dividend
  1689  038E  120A  118A  2279  120A  118A  	fcall	___awmod
  1690  0393  1283               	bcf	3,5	;RP0=0, select bank0
  1691  0394  1303               	bcf	3,6	;RP1=0, select bank0
  1692  0395  0831               	movf	?___awmod,w
  1693  0396  00FF               	movwf	btemp+1
  1694  0397  087F               	movf	btemp+1,w
  1695  0398  00BB               	movwf	displayDeiredTempreture@low
  1696                           
  1697                           ;main.c: 254:     unsigned char high=TargetTempreture/10;
  1698  0399  300A               	movlw	10
  1699  039A  00B1               	movwf	___awdiv@divisor
  1700  039B  3000               	movlw	0
  1701  039C  00B2               	movwf	___awdiv@divisor+1
  1702  039D  085B               	movf	_TargetTempreture+1,w
  1703  039E  00B4               	movwf	___awdiv@dividend+1
  1704  039F  085A               	movf	_TargetTempreture,w
  1705  03A0  00B3               	movwf	___awdiv@dividend
  1706  03A1  120A  118A  214D  120A  118A  	fcall	___awdiv
  1707  03A6  1283               	bcf	3,5	;RP0=0, select bank0
  1708  03A7  1303               	bcf	3,6	;RP1=0, select bank0
  1709  03A8  0831               	movf	?___awdiv,w
  1710  03A9  00FF               	movwf	btemp+1
  1711  03AA  087F               	movf	btemp+1,w
  1712  03AB  00BC               	movwf	displayDeiredTempreture@high
  1713  03AC                     l2222:
  1714                           
  1715                           ;main.c: 255:      PORTAbits.RA5=1;
  1716  03AC  1685               	bsf	5,5	;volatile
  1717  03AD                     l2224:
  1718                           
  1719                           ;main.c: 256:     lcd_writeNumber(low);
  1720  03AD  083B               	movf	displayDeiredTempreture@low,w
  1721  03AE  120A  118A  2614  120A  118A  	fcall	_lcd_writeNumber
  1722  03B3                     l2226:
  1723                           
  1724                           ;main.c: 257:     _delay((unsigned long)((10)*(8000000/4000.0)));
  1725  03B3  301A               	movlw	26
  1726  03B4  1283               	bcf	3,5	;RP0=0, select bank0
  1727  03B5  1303               	bcf	3,6	;RP1=0, select bank0
  1728  03B6  00BA               	movwf	??_displayDeiredTempreture+1
  1729  03B7  30F7               	movlw	247
  1730  03B8  00B9               	movwf	??_displayDeiredTempreture
  1731  03B9                     u2027:
  1732  03B9  0BB9               	decfsz	??_displayDeiredTempreture,f
  1733  03BA  2BB9               	goto	u2027
  1734  03BB  0BBA               	decfsz	??_displayDeiredTempreture+1,f
  1735  03BC  2BB9               	goto	u2027
  1736  03BD  2BBE               	nop2
  1737  03BE                     l2228:
  1738                           
  1739                           ;main.c: 258:     PORTAbits.RA5=0;
  1740  03BE  1283               	bcf	3,5	;RP0=0, select bank0
  1741  03BF  1303               	bcf	3,6	;RP1=0, select bank0
  1742  03C0  1285               	bcf	5,5	;volatile
  1743  03C1                     l2230:
  1744                           
  1745                           ;main.c: 259:    lcd_writeNumber(high);
  1746  03C1  083C               	movf	displayDeiredTempreture@high,w
  1747  03C2  120A  118A  2614  120A  118A  	fcall	_lcd_writeNumber
  1748  03C7                     l2232:
  1749                           
  1750                           ;main.c: 260:    PORTAbits.RA4=1;
  1751  03C7  1283               	bcf	3,5	;RP0=0, select bank0
  1752  03C8  1303               	bcf	3,6	;RP1=0, select bank0
  1753  03C9  1605               	bsf	5,4	;volatile
  1754  03CA                     l2234:
  1755                           
  1756                           ;main.c: 261:    _delay((unsigned long)((10)*(8000000/4000.0)));
  1757  03CA  301A               	movlw	26
  1758  03CB  1283               	bcf	3,5	;RP0=0, select bank0
  1759  03CC  1303               	bcf	3,6	;RP1=0, select bank0
  1760  03CD  00BA               	movwf	??_displayDeiredTempreture+1
  1761  03CE  30F7               	movlw	247
  1762  03CF  00B9               	movwf	??_displayDeiredTempreture
  1763  03D0                     u2037:
  1764  03D0  0BB9               	decfsz	??_displayDeiredTempreture,f
  1765  03D1  2BD0               	goto	u2037
  1766  03D2  0BBA               	decfsz	??_displayDeiredTempreture+1,f
  1767  03D3  2BD0               	goto	u2037
  1768  03D4  2BD5               	nop2
  1769  03D5                     l2236:
  1770                           
  1771                           ;main.c: 262:     PORTAbits.RA4=0;
  1772  03D5  1283               	bcf	3,5	;RP0=0, select bank0
  1773  03D6  1303               	bcf	3,6	;RP1=0, select bank0
  1774  03D7  1205               	bcf	5,4	;volatile
  1775  03D8                     l161:
  1776  03D8  0008               	return
  1777  03D9                     __end_of_displayDeiredTempreture:
  1778                           
  1779                           	psect	text4
  1780  0279                     __ptext4:	
  1781 ;; *************** function ___awmod *****************
  1782 ;; Defined at:
  1783 ;;		line 5 in file "/opt/microchip/xc8/v2.20/pic/sources/c90/common/awmod.c"
  1784 ;; Parameters:    Size  Location     Type
  1785 ;;  divisor         2   17[BANK0 ] int 
  1786 ;;  dividend        2   19[BANK0 ] int 
  1787 ;; Auto vars:     Size  Location     Type
  1788 ;;  sign            1   22[BANK0 ] unsigned char 
  1789 ;;  counter         1   21[BANK0 ] unsigned char 
  1790 ;; Return value:  Size  Location     Type
  1791 ;;                  2   17[BANK0 ] int 
  1792 ;; Registers used:
  1793 ;;		wreg, status,2, status,0, btemp+1
  1794 ;; Tracked objects:
  1795 ;;		On entry : 0/0
  1796 ;;		On exit  : 0/0
  1797 ;;		Unchanged: 0/0
  1798 ;; Data sizes:     COMMON   BANK0   BANK1   BANK3   BANK2
  1799 ;;      Params:         0       4       0       0       0
  1800 ;;      Locals:         0       2       0       0       0
  1801 ;;      Temps:          0       0       0       0       0
  1802 ;;      Totals:         0       6       0       0       0
  1803 ;;Total ram usage:        6 bytes
  1804 ;; Hardware stack levels used:    1
  1805 ;; Hardware stack levels required when called:    4
  1806 ;; This function calls:
  1807 ;;		Nothing
  1808 ;; This function is called by:
  1809 ;;		_displayDeiredTempreture
  1810 ;; This function uses a non-reentrant model
  1811 ;;
  1812                           
  1813                           
  1814                           ;psect for function ___awmod
  1815  0279                     ___awmod:
  1816  0279                     l2182:	
  1817                           ;incstack = 0
  1818                           ; Regs used in ___awmod: [wreg+status,2+status,0+btemp+1]
  1819                           
  1820  0279  1283               	bcf	3,5	;RP0=0, select bank0
  1821  027A  1303               	bcf	3,6	;RP1=0, select bank0
  1822  027B  01B6               	clrf	___awmod@sign
  1823  027C                     l2184:
  1824  027C  1FB4               	btfss	___awmod@dividend+1,7
  1825  027D  2A7F               	goto	u1691
  1826  027E  2A80               	goto	u1690
  1827  027F                     u1691:
  1828  027F  2A87               	goto	l2190
  1829  0280                     u1690:
  1830  0280                     l2186:
  1831  0280  09B3               	comf	___awmod@dividend,f
  1832  0281  09B4               	comf	___awmod@dividend+1,f
  1833  0282  0AB3               	incf	___awmod@dividend,f
  1834  0283  1903               	skipnz
  1835  0284  0AB4               	incf	___awmod@dividend+1,f
  1836  0285                     l2188:
  1837  0285  01B6               	clrf	___awmod@sign
  1838  0286  0AB6               	incf	___awmod@sign,f
  1839  0287                     l2190:
  1840  0287  1FB2               	btfss	___awmod@divisor+1,7
  1841  0288  2A8A               	goto	u1701
  1842  0289  2A8B               	goto	u1700
  1843  028A                     u1701:
  1844  028A  2A90               	goto	l2194
  1845  028B                     u1700:
  1846  028B                     l2192:
  1847  028B  09B1               	comf	___awmod@divisor,f
  1848  028C  09B2               	comf	___awmod@divisor+1,f
  1849  028D  0AB1               	incf	___awmod@divisor,f
  1850  028E  1903               	skipnz
  1851  028F  0AB2               	incf	___awmod@divisor+1,f
  1852  0290                     l2194:
  1853  0290  0831               	movf	___awmod@divisor,w
  1854  0291  0432               	iorwf	___awmod@divisor+1,w
  1855  0292  1903               	btfsc	3,2
  1856  0293  2A95               	goto	u1711
  1857  0294  2A96               	goto	u1710
  1858  0295                     u1711:
  1859  0295  2AC5               	goto	l2212
  1860  0296                     u1710:
  1861  0296                     l2196:
  1862  0296  01B5               	clrf	___awmod@counter
  1863  0297  0AB5               	incf	___awmod@counter,f
  1864  0298  2AA4               	goto	l2202
  1865  0299                     l2198:
  1866  0299  3001               	movlw	1
  1867  029A                     u1725:
  1868  029A  1003               	clrc
  1869  029B  0DB1               	rlf	___awmod@divisor,f
  1870  029C  0DB2               	rlf	___awmod@divisor+1,f
  1871  029D  3EFF               	addlw	-1
  1872  029E  1D03               	skipz
  1873  029F  2A9A               	goto	u1725
  1874  02A0                     l2200:
  1875  02A0  3001               	movlw	1
  1876  02A1  00FF               	movwf	btemp+1
  1877  02A2  087F               	movf	btemp+1,w
  1878  02A3  07B5               	addwf	___awmod@counter,f
  1879  02A4                     l2202:
  1880  02A4  1FB2               	btfss	___awmod@divisor+1,7
  1881  02A5  2AA7               	goto	u1731
  1882  02A6  2AA8               	goto	u1730
  1883  02A7                     u1731:
  1884  02A7  2A99               	goto	l2198
  1885  02A8                     u1730:
  1886  02A8                     l2204:
  1887  02A8  0832               	movf	___awmod@divisor+1,w
  1888  02A9  0234               	subwf	___awmod@dividend+1,w
  1889  02AA  1D03               	skipz
  1890  02AB  2AAE               	goto	u1745
  1891  02AC  0831               	movf	___awmod@divisor,w
  1892  02AD  0233               	subwf	___awmod@dividend,w
  1893  02AE                     u1745:
  1894  02AE  1C03               	skipc
  1895  02AF  2AB1               	goto	u1741
  1896  02B0  2AB2               	goto	u1740
  1897  02B1                     u1741:
  1898  02B1  2AB8               	goto	l2208
  1899  02B2                     u1740:
  1900  02B2                     l2206:
  1901  02B2  0831               	movf	___awmod@divisor,w
  1902  02B3  02B3               	subwf	___awmod@dividend,f
  1903  02B4  0832               	movf	___awmod@divisor+1,w
  1904  02B5  1C03               	skipc
  1905  02B6  03B4               	decf	___awmod@dividend+1,f
  1906  02B7  02B4               	subwf	___awmod@dividend+1,f
  1907  02B8                     l2208:
  1908  02B8  3001               	movlw	1
  1909  02B9                     u1755:
  1910  02B9  1003               	clrc
  1911  02BA  0CB2               	rrf	___awmod@divisor+1,f
  1912  02BB  0CB1               	rrf	___awmod@divisor,f
  1913  02BC  3EFF               	addlw	-1
  1914  02BD  1D03               	skipz
  1915  02BE  2AB9               	goto	u1755
  1916  02BF                     l2210:
  1917  02BF  3001               	movlw	1
  1918  02C0  02B5               	subwf	___awmod@counter,f
  1919  02C1  1D03               	btfss	3,2
  1920  02C2  2AC4               	goto	u1761
  1921  02C3  2AC5               	goto	u1760
  1922  02C4                     u1761:
  1923  02C4  2AA8               	goto	l2204
  1924  02C5                     u1760:
  1925  02C5                     l2212:
  1926  02C5  0836               	movf	___awmod@sign,w
  1927  02C6  1903               	btfsc	3,2
  1928  02C7  2AC9               	goto	u1771
  1929  02C8  2ACA               	goto	u1770
  1930  02C9                     u1771:
  1931  02C9  2ACF               	goto	l2216
  1932  02CA                     u1770:
  1933  02CA                     l2214:
  1934  02CA  09B3               	comf	___awmod@dividend,f
  1935  02CB  09B4               	comf	___awmod@dividend+1,f
  1936  02CC  0AB3               	incf	___awmod@dividend,f
  1937  02CD  1903               	skipnz
  1938  02CE  0AB4               	incf	___awmod@dividend+1,f
  1939  02CF                     l2216:
  1940  02CF  0834               	movf	___awmod@dividend+1,w
  1941  02D0  00B2               	movwf	?___awmod+1
  1942  02D1  0833               	movf	___awmod@dividend,w
  1943  02D2  00B1               	movwf	?___awmod
  1944  02D3                     l520:
  1945  02D3  0008               	return
  1946  02D4                     __end_of___awmod:
  1947                           
  1948                           	psect	text5
  1949  014D                     __ptext5:	
  1950 ;; *************** function ___awdiv *****************
  1951 ;; Defined at:
  1952 ;;		line 5 in file "/opt/microchip/xc8/v2.20/pic/sources/c90/common/awdiv.c"
  1953 ;; Parameters:    Size  Location     Type
  1954 ;;  divisor         2   17[BANK0 ] int 
  1955 ;;  dividend        2   19[BANK0 ] int 
  1956 ;; Auto vars:     Size  Location     Type
  1957 ;;  quotient        2   23[BANK0 ] int 
  1958 ;;  sign            1   22[BANK0 ] unsigned char 
  1959 ;;  counter         1   21[BANK0 ] unsigned char 
  1960 ;; Return value:  Size  Location     Type
  1961 ;;                  2   17[BANK0 ] int 
  1962 ;; Registers used:
  1963 ;;		wreg, status,2, status,0, btemp+1
  1964 ;; Tracked objects:
  1965 ;;		On entry : 0/0
  1966 ;;		On exit  : 0/0
  1967 ;;		Unchanged: 0/0
  1968 ;; Data sizes:     COMMON   BANK0   BANK1   BANK3   BANK2
  1969 ;;      Params:         0       4       0       0       0
  1970 ;;      Locals:         0       4       0       0       0
  1971 ;;      Temps:          0       0       0       0       0
  1972 ;;      Totals:         0       8       0       0       0
  1973 ;;Total ram usage:        8 bytes
  1974 ;; Hardware stack levels used:    1
  1975 ;; Hardware stack levels required when called:    4
  1976 ;; This function calls:
  1977 ;;		Nothing
  1978 ;; This function is called by:
  1979 ;;		_displayDeiredTempreture
  1980 ;; This function uses a non-reentrant model
  1981 ;;
  1982                           
  1983                           
  1984                           ;psect for function ___awdiv
  1985  014D                     ___awdiv:
  1986  014D                     l2138:	
  1987                           ;incstack = 0
  1988                           ; Regs used in ___awdiv: [wreg+status,2+status,0+btemp+1]
  1989                           
  1990  014D  1283               	bcf	3,5	;RP0=0, select bank0
  1991  014E  1303               	bcf	3,6	;RP1=0, select bank0
  1992  014F  01B6               	clrf	___awdiv@sign
  1993  0150                     l2140:
  1994  0150  1FB2               	btfss	___awdiv@divisor+1,7
  1995  0151  2953               	goto	u1591
  1996  0152  2954               	goto	u1590
  1997  0153                     u1591:
  1998  0153  295B               	goto	l2146
  1999  0154                     u1590:
  2000  0154                     l2142:
  2001  0154  09B1               	comf	___awdiv@divisor,f
  2002  0155  09B2               	comf	___awdiv@divisor+1,f
  2003  0156  0AB1               	incf	___awdiv@divisor,f
  2004  0157  1903               	skipnz
  2005  0158  0AB2               	incf	___awdiv@divisor+1,f
  2006  0159                     l2144:
  2007  0159  01B6               	clrf	___awdiv@sign
  2008  015A  0AB6               	incf	___awdiv@sign,f
  2009  015B                     l2146:
  2010  015B  1FB4               	btfss	___awdiv@dividend+1,7
  2011  015C  295E               	goto	u1601
  2012  015D  295F               	goto	u1600
  2013  015E                     u1601:
  2014  015E  2968               	goto	l2152
  2015  015F                     u1600:
  2016  015F                     l2148:
  2017  015F  09B3               	comf	___awdiv@dividend,f
  2018  0160  09B4               	comf	___awdiv@dividend+1,f
  2019  0161  0AB3               	incf	___awdiv@dividend,f
  2020  0162  1903               	skipnz
  2021  0163  0AB4               	incf	___awdiv@dividend+1,f
  2022  0164                     l2150:
  2023  0164  3001               	movlw	1
  2024  0165  00FF               	movwf	btemp+1
  2025  0166  087F               	movf	btemp+1,w
  2026  0167  06B6               	xorwf	___awdiv@sign,f
  2027  0168                     l2152:
  2028  0168  01B7               	clrf	___awdiv@quotient
  2029  0169  01B8               	clrf	___awdiv@quotient+1
  2030  016A                     l2154:
  2031  016A  0831               	movf	___awdiv@divisor,w
  2032  016B  0432               	iorwf	___awdiv@divisor+1,w
  2033  016C  1903               	btfsc	3,2
  2034  016D  296F               	goto	u1611
  2035  016E  2970               	goto	u1610
  2036  016F                     u1611:
  2037  016F  29A7               	goto	l2174
  2038  0170                     u1610:
  2039  0170                     l2156:
  2040  0170  01B5               	clrf	___awdiv@counter
  2041  0171  0AB5               	incf	___awdiv@counter,f
  2042  0172  297E               	goto	l2162
  2043  0173                     l2158:
  2044  0173  3001               	movlw	1
  2045  0174                     u1625:
  2046  0174  1003               	clrc
  2047  0175  0DB1               	rlf	___awdiv@divisor,f
  2048  0176  0DB2               	rlf	___awdiv@divisor+1,f
  2049  0177  3EFF               	addlw	-1
  2050  0178  1D03               	skipz
  2051  0179  2974               	goto	u1625
  2052  017A                     l2160:
  2053  017A  3001               	movlw	1
  2054  017B  00FF               	movwf	btemp+1
  2055  017C  087F               	movf	btemp+1,w
  2056  017D  07B5               	addwf	___awdiv@counter,f
  2057  017E                     l2162:
  2058  017E  1FB2               	btfss	___awdiv@divisor+1,7
  2059  017F  2981               	goto	u1631
  2060  0180  2982               	goto	u1630
  2061  0181                     u1631:
  2062  0181  2973               	goto	l2158
  2063  0182                     u1630:
  2064  0182                     l2164:
  2065  0182  3001               	movlw	1
  2066  0183                     u1645:
  2067  0183  1003               	clrc
  2068  0184  0DB7               	rlf	___awdiv@quotient,f
  2069  0185  0DB8               	rlf	___awdiv@quotient+1,f
  2070  0186  3EFF               	addlw	-1
  2071  0187  1D03               	skipz
  2072  0188  2983               	goto	u1645
  2073  0189  0832               	movf	___awdiv@divisor+1,w
  2074  018A  0234               	subwf	___awdiv@dividend+1,w
  2075  018B  1D03               	skipz
  2076  018C  298F               	goto	u1655
  2077  018D  0831               	movf	___awdiv@divisor,w
  2078  018E  0233               	subwf	___awdiv@dividend,w
  2079  018F                     u1655:
  2080  018F  1C03               	skipc
  2081  0190  2992               	goto	u1651
  2082  0191  2993               	goto	u1650
  2083  0192                     u1651:
  2084  0192  299A               	goto	l2170
  2085  0193                     u1650:
  2086  0193                     l2166:
  2087  0193  0831               	movf	___awdiv@divisor,w
  2088  0194  02B3               	subwf	___awdiv@dividend,f
  2089  0195  0832               	movf	___awdiv@divisor+1,w
  2090  0196  1C03               	skipc
  2091  0197  03B4               	decf	___awdiv@dividend+1,f
  2092  0198  02B4               	subwf	___awdiv@dividend+1,f
  2093  0199                     l2168:
  2094  0199  1437               	bsf	___awdiv@quotient,0
  2095  019A                     l2170:
  2096  019A  3001               	movlw	1
  2097  019B                     u1665:
  2098  019B  1003               	clrc
  2099  019C  0CB2               	rrf	___awdiv@divisor+1,f
  2100  019D  0CB1               	rrf	___awdiv@divisor,f
  2101  019E  3EFF               	addlw	-1
  2102  019F  1D03               	skipz
  2103  01A0  299B               	goto	u1665
  2104  01A1                     l2172:
  2105  01A1  3001               	movlw	1
  2106  01A2  02B5               	subwf	___awdiv@counter,f
  2107  01A3  1D03               	btfss	3,2
  2108  01A4  29A6               	goto	u1671
  2109  01A5  29A7               	goto	u1670
  2110  01A6                     u1671:
  2111  01A6  2982               	goto	l2164
  2112  01A7                     u1670:
  2113  01A7                     l2174:
  2114  01A7  0836               	movf	___awdiv@sign,w
  2115  01A8  1903               	btfsc	3,2
  2116  01A9  29AB               	goto	u1681
  2117  01AA  29AC               	goto	u1680
  2118  01AB                     u1681:
  2119  01AB  29B1               	goto	l2178
  2120  01AC                     u1680:
  2121  01AC                     l2176:
  2122  01AC  09B7               	comf	___awdiv@quotient,f
  2123  01AD  09B8               	comf	___awdiv@quotient+1,f
  2124  01AE  0AB7               	incf	___awdiv@quotient,f
  2125  01AF  1903               	skipnz
  2126  01B0  0AB8               	incf	___awdiv@quotient+1,f
  2127  01B1                     l2178:
  2128  01B1  0838               	movf	___awdiv@quotient+1,w
  2129  01B2  00B2               	movwf	?___awdiv+1
  2130  01B3  0837               	movf	___awdiv@quotient,w
  2131  01B4  00B1               	movwf	?___awdiv
  2132  01B5                     l507:
  2133  01B5  0008               	return
  2134  01B6                     __end_of___awdiv:
  2135                           
  2136                           	psect	text6
  2137  0506                     __ptext6:	
  2138 ;; *************** function _on_state *****************
  2139 ;; Defined at:
  2140 ;;		line 154 in file "main.c"
  2141 ;; Parameters:    Size  Location     Type
  2142 ;;		None
  2143 ;; Auto vars:     Size  Location     Type
  2144 ;;		None
  2145 ;; Return value:  Size  Location     Type
  2146 ;;                  1    wreg      void 
  2147 ;; Registers used:
  2148 ;;		wreg, fsr0l, fsr0h, status,2, status,0, btemp+1, pclath, cstack
  2149 ;; Tracked objects:
  2150 ;;		On entry : 0/0
  2151 ;;		On exit  : 0/0
  2152 ;;		Unchanged: 0/0
  2153 ;; Data sizes:     COMMON   BANK0   BANK1   BANK3   BANK2
  2154 ;;      Params:         0       0       0       0       0
  2155 ;;      Locals:         0       0       0       0       0
  2156 ;;      Temps:          0       2       0       0       0
  2157 ;;      Totals:         0       2       0       0       0
  2158 ;;Total ram usage:        2 bytes
  2159 ;; Hardware stack levels used:    1
  2160 ;; Hardware stack levels required when called:    6
  2161 ;; This function calls:
  2162 ;;		_changeStatus
  2163 ;;		_coolerOn
  2164 ;;		_displayTempreture
  2165 ;;		_heaterOn
  2166 ;; This function is called by:
  2167 ;;		_main
  2168 ;; This function uses a non-reentrant model
  2169 ;;
  2170                           
  2171                           
  2172                           ;psect for function _on_state
  2173  0506                     _on_state:
  2174  0506                     l2334:	
  2175                           ;incstack = 0
  2176                           ; Regs used in _on_state: [wreg-fsr0h+status,2+status,0+btemp+1+pclath+cstack]
  2177                           
  2178                           
  2179                           ;main.c: 156:     TMR1ON = 1;
  2180  0506  1283               	bcf	3,5	;RP0=0, select bank0
  2181  0507  1303               	bcf	3,6	;RP1=0, select bank0
  2182  0508  1410               	bsf	16,0	;volatile
  2183                           
  2184                           ;main.c: 157:     if(PORTBbits.RB3==0||PORTBbits.RB4==0)
  2185  0509  1D86               	btfss	6,3	;volatile
  2186  050A  2D0C               	goto	u1951
  2187  050B  2D0D               	goto	u1950
  2188  050C                     u1951:
  2189  050C  2D11               	goto	l2338
  2190  050D                     u1950:
  2191  050D                     l2336:
  2192  050D  1A06               	btfsc	6,4	;volatile
  2193  050E  2D10               	goto	u1961
  2194  050F  2D11               	goto	u1960
  2195  0510                     u1961:
  2196  0510  2D16               	goto	l2342
  2197  0511                     u1960:
  2198  0511                     l2338:
  2199                           
  2200                           ;main.c: 158:     {;main.c: 159:         state=SETTING_STATE;
  2201  0511  3002               	movlw	2
  2202  0512  00FF               	movwf	btemp+1
  2203  0513  087F               	movf	btemp+1,w
  2204  0514  00DD               	movwf	_state
  2205  0515  2D42               	goto	l132
  2206  0516                     l2342:
  2207                           
  2208                           ;main.c: 162:     displayTempreture();
  2209  0516  120A  118A  23D9  120A  118A  	fcall	_displayTempreture
  2210  051B                     l2344:
  2211                           
  2212                           ;main.c: 163:     changeStatus();
  2213  051B  120A  118A  25B9  120A  118A  	fcall	_changeStatus
  2214                           
  2215                           ;main.c: 165:     switch (temp_state)
  2216  0520  2D2D               	goto	l2352
  2217  0521                     l2346:
  2218                           
  2219                           ;main.c: 170:         heaterOn();
  2220  0521  120A  118A  266C  120A  118A  	fcall	_heaterOn
  2221                           
  2222                           ;main.c: 171:         break;
  2223  0526  2D42               	goto	l132
  2224  0527                     l2348:
  2225                           
  2226                           ;main.c: 173:         coolerOn();
  2227  0527  120A  118A  2671  120A  118A  	fcall	_coolerOn
  2228                           
  2229                           ;main.c: 174:         break;
  2230  052C  2D42               	goto	l132
  2231  052D                     l2352:
  2232  052D  1283               	bcf	3,5	;RP0=0, select bank0
  2233  052E  1303               	bcf	3,6	;RP1=0, select bank0
  2234  052F  0849               	movf	_temp_state,w
  2235  0530  00BC               	movwf	??_on_state
  2236  0531  01BD               	clrf	??_on_state+1
  2237                           
  2238                           ; Switch on 2 bytes has been partitioned into a top level switch of size 1, and 1 sub-sw
      +                          itches
  2239                           ; Switch size 1, requested type "simple"
  2240                           ; Number of cases is 1, Range of values is 0 to 0
  2241                           ; switch strategies available:
  2242                           ; Name         Instructions Cycles
  2243                           ; simple_byte            4     3 (average)
  2244                           ; direct_byte           11     8 (fixed)
  2245                           ; jumptable            260     6 (fixed)
  2246                           ;	Chosen strategy is simple_byte
  2247  0532  083D               	movf	??_on_state+1,w
  2248  0533  3A00               	xorlw	0	; case 0
  2249  0534  1903               	skipnz
  2250  0535  2D37               	goto	l2520
  2251  0536  2D42               	goto	l132
  2252  0537                     l2520:
  2253                           
  2254                           ; Switch size 1, requested type "simple"
  2255                           ; Number of cases is 3, Range of values is 0 to 2
  2256                           ; switch strategies available:
  2257                           ; Name         Instructions Cycles
  2258                           ; simple_byte           10     6 (average)
  2259                           ; direct_byte           17     8 (fixed)
  2260                           ; jumptable            260     6 (fixed)
  2261                           ;	Chosen strategy is simple_byte
  2262  0537  083C               	movf	??_on_state,w
  2263  0538  3A00               	xorlw	0	; case 0
  2264  0539  1903               	skipnz
  2265  053A  2D42               	goto	l132
  2266  053B  3A01               	xorlw	1	; case 1
  2267  053C  1903               	skipnz
  2268  053D  2D21               	goto	l2346
  2269  053E  3A03               	xorlw	3	; case 2
  2270  053F  1903               	skipnz
  2271  0540  2D27               	goto	l2348
  2272  0541  2D42               	goto	l132
  2273  0542                     l132:
  2274  0542  0008               	return
  2275  0543                     __end_of_on_state:
  2276                           
  2277                           	psect	text7
  2278  066C                     __ptext7:	
  2279 ;; *************** function _heaterOn *****************
  2280 ;; Defined at:
  2281 ;;		line 142 in file "main.c"
  2282 ;; Parameters:    Size  Location     Type
  2283 ;;		None
  2284 ;; Auto vars:     Size  Location     Type
  2285 ;;		None
  2286 ;; Return value:  Size  Location     Type
  2287 ;;                  1    wreg      void 
  2288 ;; Registers used:
  2289 ;;		None
  2290 ;; Tracked objects:
  2291 ;;		On entry : 0/0
  2292 ;;		On exit  : 0/0
  2293 ;;		Unchanged: 0/0
  2294 ;; Data sizes:     COMMON   BANK0   BANK1   BANK3   BANK2
  2295 ;;      Params:         0       0       0       0       0
  2296 ;;      Locals:         0       0       0       0       0
  2297 ;;      Temps:          0       0       0       0       0
  2298 ;;      Totals:         0       0       0       0       0
  2299 ;;Total ram usage:        0 bytes
  2300 ;; Hardware stack levels used:    1
  2301 ;; Hardware stack levels required when called:    4
  2302 ;; This function calls:
  2303 ;;		Nothing
  2304 ;; This function is called by:
  2305 ;;		_on_state
  2306 ;; This function uses a non-reentrant model
  2307 ;;
  2308                           
  2309                           
  2310                           ;psect for function _heaterOn
  2311  066C                     _heaterOn:
  2312  066C                     l1824:	
  2313                           ;incstack = 0
  2314                           ; Regs used in _heaterOn: []
  2315                           
  2316                           
  2317                           ;main.c: 144:     RC2=1;
  2318  066C  1283               	bcf	3,5	;RP0=0, select bank0
  2319  066D  1303               	bcf	3,6	;RP1=0, select bank0
  2320  066E  1507               	bsf	7,2	;volatile
  2321                           
  2322                           ;main.c: 145:     RC5=0;
  2323  066F  1287               	bcf	7,5	;volatile
  2324  0670                     l123:
  2325  0670  0008               	return
  2326  0671                     __end_of_heaterOn:
  2327                           
  2328                           	psect	text8
  2329  03D9                     __ptext8:	
  2330 ;; *************** function _displayTempreture *****************
  2331 ;; Defined at:
  2332 ;;		line 237 in file "main.c"
  2333 ;; Parameters:    Size  Location     Type
  2334 ;;		None
  2335 ;; Auto vars:     Size  Location     Type
  2336 ;;  high            1   27[BANK0 ] unsigned char 
  2337 ;;  low             1   26[BANK0 ] unsigned char 
  2338 ;; Return value:  Size  Location     Type
  2339 ;;                  1    wreg      void 
  2340 ;; Registers used:
  2341 ;;		wreg, fsr0l, fsr0h, status,2, status,0, btemp+1, pclath, cstack
  2342 ;; Tracked objects:
  2343 ;;		On entry : 0/0
  2344 ;;		On exit  : 0/0
  2345 ;;		Unchanged: 0/0
  2346 ;; Data sizes:     COMMON   BANK0   BANK1   BANK3   BANK2
  2347 ;;      Params:         0       0       0       0       0
  2348 ;;      Locals:         0       2       0       0       0
  2349 ;;      Temps:          0       2       0       0       0
  2350 ;;      Totals:         0       4       0       0       0
  2351 ;;Total ram usage:        4 bytes
  2352 ;; Hardware stack levels used:    1
  2353 ;; Hardware stack levels required when called:    5
  2354 ;; This function calls:
  2355 ;;		___lwdiv
  2356 ;;		___lwmod
  2357 ;;		_lcd_writeNumber
  2358 ;; This function is called by:
  2359 ;;		_on_state
  2360 ;; This function uses a non-reentrant model
  2361 ;;
  2362                           
  2363                           
  2364                           ;psect for function _displayTempreture
  2365  03D9                     _displayTempreture:
  2366  03D9                     l2316:	
  2367                           ;incstack = 0
  2368                           ; Regs used in _displayTempreture: [wreg-fsr0h+status,2+status,0+btemp+1+pclath+cstack]
  2369                           
  2370                           
  2371                           ;main.c: 239:     unsigned char low=TEMPRETURE%10;
  2372  03D9  300A               	movlw	10
  2373  03DA  1283               	bcf	3,5	;RP0=0, select bank0
  2374  03DB  1303               	bcf	3,6	;RP1=0, select bank0
  2375  03DC  00B1               	movwf	___lwmod@divisor
  2376  03DD  3000               	movlw	0
  2377  03DE  00B2               	movwf	___lwmod@divisor+1
  2378  03DF  0844               	movf	_TEMPRETURE+1,w
  2379  03E0  00B4               	movwf	___lwmod@dividend+1
  2380  03E1  0843               	movf	_TEMPRETURE,w
  2381  03E2  00B3               	movwf	___lwmod@dividend
  2382  03E3  120A  118A  2543  120A  118A  	fcall	___lwmod
  2383  03E8  1283               	bcf	3,5	;RP0=0, select bank0
  2384  03E9  1303               	bcf	3,6	;RP1=0, select bank0
  2385  03EA  0831               	movf	?___lwmod,w
  2386  03EB  00FF               	movwf	btemp+1
  2387  03EC  087F               	movf	btemp+1,w
  2388  03ED  00BA               	movwf	displayTempreture@low
  2389                           
  2390                           ;main.c: 240:     unsigned char high=TEMPRETURE/10;
  2391  03EE  300A               	movlw	10
  2392  03EF  00B1               	movwf	___lwdiv@divisor
  2393  03F0  3000               	movlw	0
  2394  03F1  00B2               	movwf	___lwdiv@divisor+1
  2395  03F2  0844               	movf	_TEMPRETURE+1,w
  2396  03F3  00B4               	movwf	___lwdiv@dividend+1
  2397  03F4  0843               	movf	_TEMPRETURE,w
  2398  03F5  00B3               	movwf	___lwdiv@dividend
  2399  03F6  120A  118A  247C  120A  118A  	fcall	___lwdiv
  2400  03FB  1283               	bcf	3,5	;RP0=0, select bank0
  2401  03FC  1303               	bcf	3,6	;RP1=0, select bank0
  2402  03FD  0831               	movf	?___lwdiv,w
  2403  03FE  00FF               	movwf	btemp+1
  2404  03FF  087F               	movf	btemp+1,w
  2405  0400  00BB               	movwf	displayTempreture@high
  2406  0401                     l2318:
  2407                           
  2408                           ;main.c: 241:      PORTAbits.RA5=1;
  2409  0401  1685               	bsf	5,5	;volatile
  2410  0402                     l2320:
  2411                           
  2412                           ;main.c: 242:     lcd_writeNumber(low);
  2413  0402  083A               	movf	displayTempreture@low,w
  2414  0403  120A  118A  2614  120A  118A  	fcall	_lcd_writeNumber
  2415  0408                     l2322:
  2416                           
  2417                           ;main.c: 243:     _delay((unsigned long)((10)*(8000000/4000.0)));
  2418  0408  301A               	movlw	26
  2419  0409  1283               	bcf	3,5	;RP0=0, select bank0
  2420  040A  1303               	bcf	3,6	;RP1=0, select bank0
  2421  040B  00B9               	movwf	??_displayTempreture+1
  2422  040C  30F7               	movlw	247
  2423  040D  00B8               	movwf	??_displayTempreture
  2424  040E                     u2047:
  2425  040E  0BB8               	decfsz	??_displayTempreture,f
  2426  040F  2C0E               	goto	u2047
  2427  0410  0BB9               	decfsz	??_displayTempreture+1,f
  2428  0411  2C0E               	goto	u2047
  2429  0412  2C13               	nop2
  2430  0413                     l2324:
  2431                           
  2432                           ;main.c: 244:     PORTAbits.RA5=0;
  2433  0413  1283               	bcf	3,5	;RP0=0, select bank0
  2434  0414  1303               	bcf	3,6	;RP1=0, select bank0
  2435  0415  1285               	bcf	5,5	;volatile
  2436  0416                     l2326:
  2437                           
  2438                           ;main.c: 245:    lcd_writeNumber(high);
  2439  0416  083B               	movf	displayTempreture@high,w
  2440  0417  120A  118A  2614  120A  118A  	fcall	_lcd_writeNumber
  2441  041C                     l2328:
  2442                           
  2443                           ;main.c: 246:    PORTAbits.RA4=1;
  2444  041C  1283               	bcf	3,5	;RP0=0, select bank0
  2445  041D  1303               	bcf	3,6	;RP1=0, select bank0
  2446  041E  1605               	bsf	5,4	;volatile
  2447  041F                     l2330:
  2448                           
  2449                           ;main.c: 247:    _delay((unsigned long)((10)*(8000000/4000.0)));
  2450  041F  301A               	movlw	26
  2451  0420  1283               	bcf	3,5	;RP0=0, select bank0
  2452  0421  1303               	bcf	3,6	;RP1=0, select bank0
  2453  0422  00B9               	movwf	??_displayTempreture+1
  2454  0423  30F7               	movlw	247
  2455  0424  00B8               	movwf	??_displayTempreture
  2456  0425                     u2057:
  2457  0425  0BB8               	decfsz	??_displayTempreture,f
  2458  0426  2C25               	goto	u2057
  2459  0427  0BB9               	decfsz	??_displayTempreture+1,f
  2460  0428  2C25               	goto	u2057
  2461  0429  2C2A               	nop2
  2462  042A                     l2332:
  2463                           
  2464                           ;main.c: 248:     PORTAbits.RA4=0;
  2465  042A  1283               	bcf	3,5	;RP0=0, select bank0
  2466  042B  1303               	bcf	3,6	;RP1=0, select bank0
  2467  042C  1205               	bcf	5,4	;volatile
  2468  042D                     l158:
  2469  042D  0008               	return
  2470  042E                     __end_of_displayTempreture:
  2471                           
  2472                           	psect	text9
  2473  0614                     __ptext9:	
  2474 ;; *************** function _lcd_writeNumber *****************
  2475 ;; Defined at:
  2476 ;;		line 7 in file "seven_segment.c"
  2477 ;; Parameters:    Size  Location     Type
  2478 ;;  number          1    wreg     unsigned char 
  2479 ;; Auto vars:     Size  Location     Type
  2480 ;;  number          1   18[BANK0 ] unsigned char 
  2481 ;;  code            1   17[BANK0 ] unsigned char 
  2482 ;; Return value:  Size  Location     Type
  2483 ;;                  1    wreg      void 
  2484 ;; Registers used:
  2485 ;;		wreg, fsr0l, fsr0h, status,2, status,0, btemp+1
  2486 ;; Tracked objects:
  2487 ;;		On entry : 0/0
  2488 ;;		On exit  : 0/0
  2489 ;;		Unchanged: 0/0
  2490 ;; Data sizes:     COMMON   BANK0   BANK1   BANK3   BANK2
  2491 ;;      Params:         0       0       0       0       0
  2492 ;;      Locals:         0       2       0       0       0
  2493 ;;      Temps:          0       0       0       0       0
  2494 ;;      Totals:         0       2       0       0       0
  2495 ;;Total ram usage:        2 bytes
  2496 ;; Hardware stack levels used:    1
  2497 ;; Hardware stack levels required when called:    4
  2498 ;; This function calls:
  2499 ;;		Nothing
  2500 ;; This function is called by:
  2501 ;;		_displayTempreture
  2502 ;;		_displayDeiredTempreture
  2503 ;; This function uses a non-reentrant model
  2504 ;;
  2505                           
  2506                           
  2507                           ;psect for function _lcd_writeNumber
  2508  0614                     _lcd_writeNumber:
  2509                           
  2510                           ;incstack = 0
  2511                           ; Regs used in _lcd_writeNumber: [wreg-fsr0h+status,2+status,0+btemp+1]
  2512                           ;lcd_writeNumber@number stored from wreg
  2513  0614  1283               	bcf	3,5	;RP0=0, select bank0
  2514  0615  1303               	bcf	3,6	;RP1=0, select bank0
  2515  0616  00B2               	movwf	lcd_writeNumber@number
  2516  0617                     l2130:
  2517                           
  2518                           ;seven_segment.c: 7: void lcd_writeNumber(unsigned char number);seven_segment.c: 8: {;se
      +                          ven_segment.c: 9:     if(number>=0 && number<10 )
  2519  0617  300A               	movlw	10
  2520  0618  0232               	subwf	lcd_writeNumber@number,w
  2521  0619  1803               	skipnc
  2522  061A  2E1C               	goto	u1581
  2523  061B  2E1D               	goto	u1580
  2524  061C                     u1581:
  2525  061C  2E28               	goto	l2136
  2526  061D                     u1580:
  2527  061D                     l2132:
  2528                           
  2529                           ;seven_segment.c: 10:     {;seven_segment.c: 11:         unsigned char code=segments_cod
      +                          e[number];
  2530  061D  0832               	movf	lcd_writeNumber@number,w
  2531  061E  3E50               	addlw	(low (_segments_code| 0))& (0+255)
  2532  061F  0084               	movwf	4
  2533  0620  1383               	bcf	3,7	;select IRP bank0
  2534  0621  0800               	movf	0,w
  2535  0622  00FF               	movwf	btemp+1
  2536  0623  087F               	movf	btemp+1,w
  2537  0624  00B1               	movwf	lcd_writeNumber@code
  2538  0625                     l2134:
  2539                           
  2540                           ;seven_segment.c: 12:         PORTD=code;
  2541  0625  0831               	movf	lcd_writeNumber@code,w
  2542  0626  0088               	movwf	8	;volatile
  2543                           
  2544                           ;seven_segment.c: 13:     }
  2545  0627  2E29               	goto	l268
  2546  0628                     l2136:
  2547                           
  2548                           ;seven_segment.c: 15:         PORTD=0;
  2549  0628  0188               	clrf	8	;volatile
  2550  0629                     l268:
  2551  0629  0008               	return
  2552  062A                     __end_of_lcd_writeNumber:
  2553                           
  2554                           	psect	text10
  2555  0543                     __ptext10:	
  2556 ;; *************** function ___lwmod *****************
  2557 ;; Defined at:
  2558 ;;		line 5 in file "/opt/microchip/xc8/v2.20/pic/sources/c90/common/lwmod.c"
  2559 ;; Parameters:    Size  Location     Type
  2560 ;;  divisor         2   17[BANK0 ] unsigned int 
  2561 ;;  dividend        2   19[BANK0 ] unsigned int 
  2562 ;; Auto vars:     Size  Location     Type
  2563 ;;  counter         1   21[BANK0 ] unsigned char 
  2564 ;; Return value:  Size  Location     Type
  2565 ;;                  2   17[BANK0 ] unsigned int 
  2566 ;; Registers used:
  2567 ;;		wreg, status,2, status,0, btemp+1
  2568 ;; Tracked objects:
  2569 ;;		On entry : 0/0
  2570 ;;		On exit  : 0/0
  2571 ;;		Unchanged: 0/0
  2572 ;; Data sizes:     COMMON   BANK0   BANK1   BANK3   BANK2
  2573 ;;      Params:         0       4       0       0       0
  2574 ;;      Locals:         0       1       0       0       0
  2575 ;;      Temps:          0       0       0       0       0
  2576 ;;      Totals:         0       5       0       0       0
  2577 ;;Total ram usage:        5 bytes
  2578 ;; Hardware stack levels used:    1
  2579 ;; Hardware stack levels required when called:    4
  2580 ;; This function calls:
  2581 ;;		Nothing
  2582 ;; This function is called by:
  2583 ;;		_displayTempreture
  2584 ;; This function uses a non-reentrant model
  2585 ;;
  2586                           
  2587                           
  2588                           ;psect for function ___lwmod
  2589  0543                     ___lwmod:
  2590  0543                     l1666:	
  2591                           ;incstack = 0
  2592                           ; Regs used in ___lwmod: [wreg+status,2+status,0+btemp+1]
  2593                           
  2594  0543  1283               	bcf	3,5	;RP0=0, select bank0
  2595  0544  1303               	bcf	3,6	;RP1=0, select bank0
  2596  0545  0831               	movf	___lwmod@divisor,w
  2597  0546  0432               	iorwf	___lwmod@divisor+1,w
  2598  0547  1903               	btfsc	3,2
  2599  0548  2D4A               	goto	u1071
  2600  0549  2D4B               	goto	u1070
  2601  054A                     u1071:
  2602  054A  2D7A               	goto	l1684
  2603  054B                     u1070:
  2604  054B                     l1668:
  2605  054B  01B5               	clrf	___lwmod@counter
  2606  054C  0AB5               	incf	___lwmod@counter,f
  2607  054D  2D59               	goto	l1674
  2608  054E                     l1670:
  2609  054E  3001               	movlw	1
  2610  054F                     u1085:
  2611  054F  1003               	clrc
  2612  0550  0DB1               	rlf	___lwmod@divisor,f
  2613  0551  0DB2               	rlf	___lwmod@divisor+1,f
  2614  0552  3EFF               	addlw	-1
  2615  0553  1D03               	skipz
  2616  0554  2D4F               	goto	u1085
  2617  0555                     l1672:
  2618  0555  3001               	movlw	1
  2619  0556  00FF               	movwf	btemp+1
  2620  0557  087F               	movf	btemp+1,w
  2621  0558  07B5               	addwf	___lwmod@counter,f
  2622  0559                     l1674:
  2623  0559  1FB2               	btfss	___lwmod@divisor+1,7
  2624  055A  2D5C               	goto	u1091
  2625  055B  2D5D               	goto	u1090
  2626  055C                     u1091:
  2627  055C  2D4E               	goto	l1670
  2628  055D                     u1090:
  2629  055D                     l1676:
  2630  055D  0832               	movf	___lwmod@divisor+1,w
  2631  055E  0234               	subwf	___lwmod@dividend+1,w
  2632  055F  1D03               	skipz
  2633  0560  2D63               	goto	u1105
  2634  0561  0831               	movf	___lwmod@divisor,w
  2635  0562  0233               	subwf	___lwmod@dividend,w
  2636  0563                     u1105:
  2637  0563  1C03               	skipc
  2638  0564  2D66               	goto	u1101
  2639  0565  2D67               	goto	u1100
  2640  0566                     u1101:
  2641  0566  2D6D               	goto	l1680
  2642  0567                     u1100:
  2643  0567                     l1678:
  2644  0567  0831               	movf	___lwmod@divisor,w
  2645  0568  02B3               	subwf	___lwmod@dividend,f
  2646  0569  0832               	movf	___lwmod@divisor+1,w
  2647  056A  1C03               	skipc
  2648  056B  03B4               	decf	___lwmod@dividend+1,f
  2649  056C  02B4               	subwf	___lwmod@dividend+1,f
  2650  056D                     l1680:
  2651  056D  3001               	movlw	1
  2652  056E                     u1115:
  2653  056E  1003               	clrc
  2654  056F  0CB2               	rrf	___lwmod@divisor+1,f
  2655  0570  0CB1               	rrf	___lwmod@divisor,f
  2656  0571  3EFF               	addlw	-1
  2657  0572  1D03               	skipz
  2658  0573  2D6E               	goto	u1115
  2659  0574                     l1682:
  2660  0574  3001               	movlw	1
  2661  0575  02B5               	subwf	___lwmod@counter,f
  2662  0576  1D03               	btfss	3,2
  2663  0577  2D79               	goto	u1121
  2664  0578  2D7A               	goto	u1120
  2665  0579                     u1121:
  2666  0579  2D5D               	goto	l1676
  2667  057A                     u1120:
  2668  057A                     l1684:
  2669  057A  0834               	movf	___lwmod@dividend+1,w
  2670  057B  00B2               	movwf	?___lwmod+1
  2671  057C  0833               	movf	___lwmod@dividend,w
  2672  057D  00B1               	movwf	?___lwmod
  2673  057E                     l636:
  2674  057E  0008               	return
  2675  057F                     __end_of___lwmod:
  2676                           
  2677                           	psect	text11
  2678  047C                     __ptext11:	
  2679 ;; *************** function ___lwdiv *****************
  2680 ;; Defined at:
  2681 ;;		line 5 in file "/opt/microchip/xc8/v2.20/pic/sources/c90/common/lwdiv.c"
  2682 ;; Parameters:    Size  Location     Type
  2683 ;;  divisor         2   17[BANK0 ] unsigned int 
  2684 ;;  dividend        2   19[BANK0 ] unsigned int 
  2685 ;; Auto vars:     Size  Location     Type
  2686 ;;  quotient        2   21[BANK0 ] unsigned int 
  2687 ;;  counter         1   23[BANK0 ] unsigned char 
  2688 ;; Return value:  Size  Location     Type
  2689 ;;                  2   17[BANK0 ] unsigned int 
  2690 ;; Registers used:
  2691 ;;		wreg, status,2, status,0, btemp+1
  2692 ;; Tracked objects:
  2693 ;;		On entry : 0/0
  2694 ;;		On exit  : 0/0
  2695 ;;		Unchanged: 0/0
  2696 ;; Data sizes:     COMMON   BANK0   BANK1   BANK3   BANK2
  2697 ;;      Params:         0       4       0       0       0
  2698 ;;      Locals:         0       3       0       0       0
  2699 ;;      Temps:          0       0       0       0       0
  2700 ;;      Totals:         0       7       0       0       0
  2701 ;;Total ram usage:        7 bytes
  2702 ;; Hardware stack levels used:    1
  2703 ;; Hardware stack levels required when called:    4
  2704 ;; This function calls:
  2705 ;;		Nothing
  2706 ;; This function is called by:
  2707 ;;		_displayTempreture
  2708 ;; This function uses a non-reentrant model
  2709 ;;
  2710                           
  2711                           
  2712                           ;psect for function ___lwdiv
  2713  047C                     ___lwdiv:
  2714  047C                     l1640:	
  2715                           ;incstack = 0
  2716                           ; Regs used in ___lwdiv: [wreg+status,2+status,0+btemp+1]
  2717                           
  2718  047C  1283               	bcf	3,5	;RP0=0, select bank0
  2719  047D  1303               	bcf	3,6	;RP1=0, select bank0
  2720  047E  01B5               	clrf	___lwdiv@quotient
  2721  047F  01B6               	clrf	___lwdiv@quotient+1
  2722  0480                     l1642:
  2723  0480  0831               	movf	___lwdiv@divisor,w
  2724  0481  0432               	iorwf	___lwdiv@divisor+1,w
  2725  0482  1903               	btfsc	3,2
  2726  0483  2C85               	goto	u1001
  2727  0484  2C86               	goto	u1000
  2728  0485                     u1001:
  2729  0485  2CBD               	goto	l1662
  2730  0486                     u1000:
  2731  0486                     l1644:
  2732  0486  01B7               	clrf	___lwdiv@counter
  2733  0487  0AB7               	incf	___lwdiv@counter,f
  2734  0488  2C94               	goto	l1650
  2735  0489                     l1646:
  2736  0489  3001               	movlw	1
  2737  048A                     u1015:
  2738  048A  1003               	clrc
  2739  048B  0DB1               	rlf	___lwdiv@divisor,f
  2740  048C  0DB2               	rlf	___lwdiv@divisor+1,f
  2741  048D  3EFF               	addlw	-1
  2742  048E  1D03               	skipz
  2743  048F  2C8A               	goto	u1015
  2744  0490                     l1648:
  2745  0490  3001               	movlw	1
  2746  0491  00FF               	movwf	btemp+1
  2747  0492  087F               	movf	btemp+1,w
  2748  0493  07B7               	addwf	___lwdiv@counter,f
  2749  0494                     l1650:
  2750  0494  1FB2               	btfss	___lwdiv@divisor+1,7
  2751  0495  2C97               	goto	u1021
  2752  0496  2C98               	goto	u1020
  2753  0497                     u1021:
  2754  0497  2C89               	goto	l1646
  2755  0498                     u1020:
  2756  0498                     l1652:
  2757  0498  3001               	movlw	1
  2758  0499                     u1035:
  2759  0499  1003               	clrc
  2760  049A  0DB5               	rlf	___lwdiv@quotient,f
  2761  049B  0DB6               	rlf	___lwdiv@quotient+1,f
  2762  049C  3EFF               	addlw	-1
  2763  049D  1D03               	skipz
  2764  049E  2C99               	goto	u1035
  2765  049F  0832               	movf	___lwdiv@divisor+1,w
  2766  04A0  0234               	subwf	___lwdiv@dividend+1,w
  2767  04A1  1D03               	skipz
  2768  04A2  2CA5               	goto	u1045
  2769  04A3  0831               	movf	___lwdiv@divisor,w
  2770  04A4  0233               	subwf	___lwdiv@dividend,w
  2771  04A5                     u1045:
  2772  04A5  1C03               	skipc
  2773  04A6  2CA8               	goto	u1041
  2774  04A7  2CA9               	goto	u1040
  2775  04A8                     u1041:
  2776  04A8  2CB0               	goto	l1658
  2777  04A9                     u1040:
  2778  04A9                     l1654:
  2779  04A9  0831               	movf	___lwdiv@divisor,w
  2780  04AA  02B3               	subwf	___lwdiv@dividend,f
  2781  04AB  0832               	movf	___lwdiv@divisor+1,w
  2782  04AC  1C03               	skipc
  2783  04AD  03B4               	decf	___lwdiv@dividend+1,f
  2784  04AE  02B4               	subwf	___lwdiv@dividend+1,f
  2785  04AF                     l1656:
  2786  04AF  1435               	bsf	___lwdiv@quotient,0
  2787  04B0                     l1658:
  2788  04B0  3001               	movlw	1
  2789  04B1                     u1055:
  2790  04B1  1003               	clrc
  2791  04B2  0CB2               	rrf	___lwdiv@divisor+1,f
  2792  04B3  0CB1               	rrf	___lwdiv@divisor,f
  2793  04B4  3EFF               	addlw	-1
  2794  04B5  1D03               	skipz
  2795  04B6  2CB1               	goto	u1055
  2796  04B7                     l1660:
  2797  04B7  3001               	movlw	1
  2798  04B8  02B7               	subwf	___lwdiv@counter,f
  2799  04B9  1D03               	btfss	3,2
  2800  04BA  2CBC               	goto	u1061
  2801  04BB  2CBD               	goto	u1060
  2802  04BC                     u1061:
  2803  04BC  2C98               	goto	l1652
  2804  04BD                     u1060:
  2805  04BD                     l1662:
  2806  04BD  0836               	movf	___lwdiv@quotient+1,w
  2807  04BE  00B2               	movwf	?___lwdiv+1
  2808  04BF  0835               	movf	___lwdiv@quotient,w
  2809  04C0  00B1               	movwf	?___lwdiv
  2810  04C1                     l626:
  2811  04C1  0008               	return
  2812  04C2                     __end_of___lwdiv:
  2813                           
  2814                           	psect	text12
  2815  0671                     __ptext12:	
  2816 ;; *************** function _coolerOn *****************
  2817 ;; Defined at:
  2818 ;;		line 148 in file "main.c"
  2819 ;; Parameters:    Size  Location     Type
  2820 ;;		None
  2821 ;; Auto vars:     Size  Location     Type
  2822 ;;		None
  2823 ;; Return value:  Size  Location     Type
  2824 ;;                  1    wreg      void 
  2825 ;; Registers used:
  2826 ;;		None
  2827 ;; Tracked objects:
  2828 ;;		On entry : 0/0
  2829 ;;		On exit  : 0/0
  2830 ;;		Unchanged: 0/0
  2831 ;; Data sizes:     COMMON   BANK0   BANK1   BANK3   BANK2
  2832 ;;      Params:         0       0       0       0       0
  2833 ;;      Locals:         0       0       0       0       0
  2834 ;;      Temps:          0       0       0       0       0
  2835 ;;      Totals:         0       0       0       0       0
  2836 ;;Total ram usage:        0 bytes
  2837 ;; Hardware stack levels used:    1
  2838 ;; Hardware stack levels required when called:    4
  2839 ;; This function calls:
  2840 ;;		Nothing
  2841 ;; This function is called by:
  2842 ;;		_on_state
  2843 ;; This function uses a non-reentrant model
  2844 ;;
  2845                           
  2846                           
  2847                           ;psect for function _coolerOn
  2848  0671                     _coolerOn:
  2849  0671                     l1826:	
  2850                           ;incstack = 0
  2851                           ; Regs used in _coolerOn: []
  2852                           
  2853                           
  2854                           ;main.c: 150:     RC5 = 1;
  2855  0671  1283               	bcf	3,5	;RP0=0, select bank0
  2856  0672  1303               	bcf	3,6	;RP1=0, select bank0
  2857  0673  1687               	bsf	7,5	;volatile
  2858                           
  2859                           ;main.c: 151:     RC2=0;
  2860  0674  1107               	bcf	7,2	;volatile
  2861  0675                     l126:
  2862  0675  0008               	return
  2863  0676                     __end_of_coolerOn:
  2864                           
  2865                           	psect	text13
  2866  05B9                     __ptext13:	
  2867 ;; *************** function _changeStatus *****************
  2868 ;; Defined at:
  2869 ;;		line 126 in file "main.c"
  2870 ;; Parameters:    Size  Location     Type
  2871 ;;		None
  2872 ;; Auto vars:     Size  Location     Type
  2873 ;;		None
  2874 ;; Return value:  Size  Location     Type
  2875 ;;                  1    wreg      void 
  2876 ;; Registers used:
  2877 ;;		wreg, status,2, status,0, btemp+1
  2878 ;; Tracked objects:
  2879 ;;		On entry : 0/0
  2880 ;;		On exit  : 0/0
  2881 ;;		Unchanged: 0/0
  2882 ;; Data sizes:     COMMON   BANK0   BANK1   BANK3   BANK2
  2883 ;;      Params:         0       0       0       0       0
  2884 ;;      Locals:         0       0       0       0       0
  2885 ;;      Temps:          0       2       0       0       0
  2886 ;;      Totals:         0       2       0       0       0
  2887 ;;Total ram usage:        2 bytes
  2888 ;; Hardware stack levels used:    1
  2889 ;; Hardware stack levels required when called:    4
  2890 ;; This function calls:
  2891 ;;		Nothing
  2892 ;; This function is called by:
  2893 ;;		_on_state
  2894 ;; This function uses a non-reentrant model
  2895 ;;
  2896                           
  2897                           
  2898                           ;psect for function _changeStatus
  2899  05B9                     _changeStatus:
  2900  05B9                     l1814:	
  2901                           ;incstack = 0
  2902                           ; Regs used in _changeStatus: [wreg+status,2+status,0+btemp+1]
  2903                           
  2904                           
  2905                           ;main.c: 128:     if(TEMPRETURE>TargetTempreture+5)
  2906  05B9  1283               	bcf	3,5	;RP0=0, select bank0
  2907  05BA  1303               	bcf	3,6	;RP1=0, select bank0
  2908  05BB  085A               	movf	_TargetTempreture,w
  2909  05BC  3E05               	addlw	5
  2910  05BD  00B1               	movwf	??_changeStatus
  2911  05BE  085B               	movf	_TargetTempreture+1,w
  2912  05BF  1803               	skipnc
  2913  05C0  3E01               	addlw	1
  2914  05C1  3E00               	addlw	0
  2915  05C2  00B2               	movwf	??_changeStatus+1
  2916  05C3  0844               	movf	_TEMPRETURE+1,w
  2917  05C4  0232               	subwf	??_changeStatus+1,w
  2918  05C5  1D03               	skipz
  2919  05C6  2DC9               	goto	u1435
  2920  05C7  0843               	movf	_TEMPRETURE,w
  2921  05C8  0231               	subwf	??_changeStatus,w
  2922  05C9                     u1435:
  2923  05C9  1803               	skipnc
  2924  05CA  2DCC               	goto	u1431
  2925  05CB  2DCD               	goto	u1430
  2926  05CC                     u1431:
  2927  05CC  2DD0               	goto	l1818
  2928  05CD                     u1430:
  2929  05CD                     l1816:
  2930                           
  2931                           ;main.c: 129:     {;main.c: 130:         temp_state=UPOVE_state;
  2932  05CD  01C9               	clrf	_temp_state
  2933  05CE  0AC9               	incf	_temp_state,f
  2934                           
  2935                           ;main.c: 132:     }else if(TEMPRETURE<TargetTempreture-5)
  2936  05CF  2DE8               	goto	l120
  2937  05D0                     l1818:
  2938  05D0  085A               	movf	_TargetTempreture,w
  2939  05D1  3EFB               	addlw	251
  2940  05D2  00B1               	movwf	??_changeStatus
  2941  05D3  085B               	movf	_TargetTempreture+1,w
  2942  05D4  1803               	skipnc
  2943  05D5  3E01               	addlw	1
  2944  05D6  3EFF               	addlw	255
  2945  05D7  00B2               	movwf	??_changeStatus+1
  2946  05D8  0832               	movf	??_changeStatus+1,w
  2947  05D9  0244               	subwf	_TEMPRETURE+1,w
  2948  05DA  1D03               	skipz
  2949  05DB  2DDE               	goto	u1445
  2950  05DC  0831               	movf	??_changeStatus,w
  2951  05DD  0243               	subwf	_TEMPRETURE,w
  2952  05DE                     u1445:
  2953  05DE  1803               	skipnc
  2954  05DF  2DE1               	goto	u1441
  2955  05E0  2DE2               	goto	u1440
  2956  05E1                     u1441:
  2957  05E1  2DE7               	goto	l1822
  2958  05E2                     u1440:
  2959  05E2                     l1820:
  2960                           
  2961                           ;main.c: 133:     {;main.c: 134:         temp_state=DOWN_state;
  2962  05E2  3002               	movlw	2
  2963  05E3  00FF               	movwf	btemp+1
  2964  05E4  087F               	movf	btemp+1,w
  2965  05E5  00C9               	movwf	_temp_state
  2966                           
  2967                           ;main.c: 135:     }
  2968  05E6  2DE8               	goto	l120
  2969  05E7                     l1822:
  2970                           
  2971                           ;main.c: 137:         temp_state=OK_state;
  2972  05E7  01C9               	clrf	_temp_state
  2973  05E8                     l120:
  2974  05E8  0008               	return
  2975  05E9                     __end_of_changeStatus:
  2976                           
  2977                           	psect	text14
  2978  0676                     __ptext14:	
  2979 ;; *************** function _off_state *****************
  2980 ;; Defined at:
  2981 ;;		line 43 in file "main.c"
  2982 ;; Parameters:    Size  Location     Type
  2983 ;;		None
  2984 ;; Auto vars:     Size  Location     Type
  2985 ;;		None
  2986 ;; Return value:  Size  Location     Type
  2987 ;;                  1    wreg      void 
  2988 ;; Registers used:
  2989 ;;		None
  2990 ;; Tracked objects:
  2991 ;;		On entry : 0/0
  2992 ;;		On exit  : 0/0
  2993 ;;		Unchanged: 0/0
  2994 ;; Data sizes:     COMMON   BANK0   BANK1   BANK3   BANK2
  2995 ;;      Params:         0       0       0       0       0
  2996 ;;      Locals:         0       0       0       0       0
  2997 ;;      Temps:          0       0       0       0       0
  2998 ;;      Totals:         0       0       0       0       0
  2999 ;;Total ram usage:        0 bytes
  3000 ;; Hardware stack levels used:    1
  3001 ;; Hardware stack levels required when called:    4
  3002 ;; This function calls:
  3003 ;;		Nothing
  3004 ;; This function is called by:
  3005 ;;		_main
  3006 ;; This function uses a non-reentrant model
  3007 ;;
  3008                           
  3009                           
  3010                           ;psect for function _off_state
  3011  0676                     _off_state:
  3012  0676                     l1886:	
  3013                           ;incstack = 0
  3014                           ; Regs used in _off_state: []
  3015                           
  3016                           
  3017                           ;main.c: 45:     RC2=0;
  3018  0676  1283               	bcf	3,5	;RP0=0, select bank0
  3019  0677  1303               	bcf	3,6	;RP1=0, select bank0
  3020  0678  1107               	bcf	7,2	;volatile
  3021                           
  3022                           ;main.c: 46:     RC5=0;
  3023  0679  1287               	bcf	7,5	;volatile
  3024  067A                     l91:
  3025  067A  0008               	return
  3026  067B                     __end_of_off_state:
  3027                           
  3028                           	psect	text15
  3029  063D                     __ptext15:	
  3030 ;; *************** function _TIMER1_init *****************
  3031 ;; Defined at:
  3032 ;;		line 343 in file "main.c"
  3033 ;; Parameters:    Size  Location     Type
  3034 ;;		None
  3035 ;; Auto vars:     Size  Location     Type
  3036 ;;		None
  3037 ;; Return value:  Size  Location     Type
  3038 ;;                  1    wreg      void 
  3039 ;; Registers used:
  3040 ;;		None
  3041 ;; Tracked objects:
  3042 ;;		On entry : 0/0
  3043 ;;		On exit  : 0/0
  3044 ;;		Unchanged: 0/0
  3045 ;; Data sizes:     COMMON   BANK0   BANK1   BANK3   BANK2
  3046 ;;      Params:         0       0       0       0       0
  3047 ;;      Locals:         0       0       0       0       0
  3048 ;;      Temps:          0       0       0       0       0
  3049 ;;      Totals:         0       0       0       0       0
  3050 ;;Total ram usage:        0 bytes
  3051 ;; Hardware stack levels used:    1
  3052 ;; Hardware stack levels required when called:    4
  3053 ;; This function calls:
  3054 ;;		Nothing
  3055 ;; This function is called by:
  3056 ;;		_main
  3057 ;; This function uses a non-reentrant model
  3058 ;;
  3059                           
  3060                           
  3061                           ;psect for function _TIMER1_init
  3062  063D                     _TIMER1_init:
  3063  063D                     l1916:	
  3064                           ;incstack = 0
  3065                           ; Regs used in _TIMER1_init: []
  3066                           
  3067                           
  3068                           ;main.c: 346:     TMR1 = 15535;
  3069  063D  303C               	movlw	60
  3070  063E  1283               	bcf	3,5	;RP0=0, select bank0
  3071  063F  1303               	bcf	3,6	;RP1=0, select bank0
  3072  0640  008F               	movwf	15	;volatile
  3073  0641  30AF               	movlw	175
  3074  0642  008E               	movwf	14	;volatile
  3075                           
  3076                           ;main.c: 348:     TMR1CS = 0;
  3077  0643  1090               	bcf	16,1	;volatile
  3078                           
  3079                           ;main.c: 350:     T1CKPS0 = 0;
  3080  0644  1210               	bcf	16,4	;volatile
  3081                           
  3082                           ;main.c: 351:     T1CKPS1 = 0;
  3083  0645  1290               	bcf	16,5	;volatile
  3084                           
  3085                           ;main.c: 354:     TMR1IE = 1;
  3086  0646  1683               	bsf	3,5	;RP0=1, select bank1
  3087  0647  1303               	bcf	3,6	;RP1=0, select bank1
  3088  0648  140C               	bsf	12,0	;volatile
  3089                           
  3090                           ;main.c: 355:     TMR1IF = 0;
  3091  0649  1283               	bcf	3,5	;RP0=0, select bank0
  3092  064A  1303               	bcf	3,6	;RP1=0, select bank0
  3093  064B  100C               	bcf	12,0	;volatile
  3094                           
  3095                           ;main.c: 356:     PEIE = 1;
  3096  064C  170B               	bsf	11,6	;volatile
  3097  064D                     l185:
  3098  064D  0008               	return
  3099  064E                     __end_of_TIMER1_init:
  3100                           
  3101                           	psect	text16
  3102  0666                     __ptext16:	
  3103 ;; *************** function _IRQ_RB0_init *****************
  3104 ;; Defined at:
  3105 ;;		line 333 in file "main.c"
  3106 ;; Parameters:    Size  Location     Type
  3107 ;;		None
  3108 ;; Auto vars:     Size  Location     Type
  3109 ;;		None
  3110 ;; Return value:  Size  Location     Type
  3111 ;;                  1    wreg      void 
  3112 ;; Registers used:
  3113 ;;		None
  3114 ;; Tracked objects:
  3115 ;;		On entry : 0/0
  3116 ;;		On exit  : 0/0
  3117 ;;		Unchanged: 0/0
  3118 ;; Data sizes:     COMMON   BANK0   BANK1   BANK3   BANK2
  3119 ;;      Params:         0       0       0       0       0
  3120 ;;      Locals:         0       0       0       0       0
  3121 ;;      Temps:          0       0       0       0       0
  3122 ;;      Totals:         0       0       0       0       0
  3123 ;;Total ram usage:        0 bytes
  3124 ;; Hardware stack levels used:    1
  3125 ;; Hardware stack levels required when called:    4
  3126 ;; This function calls:
  3127 ;;		Nothing
  3128 ;; This function is called by:
  3129 ;;		_main
  3130 ;; This function uses a non-reentrant model
  3131 ;;
  3132                           
  3133                           
  3134                           ;psect for function _IRQ_RB0_init
  3135  0666                     _IRQ_RB0_init:
  3136  0666                     l1918:	
  3137                           ;incstack = 0
  3138                           ; Regs used in _IRQ_RB0_init: []
  3139                           
  3140                           
  3141                           ;main.c: 335:     INTE = 1;
  3142  0666  160B               	bsf	11,4	;volatile
  3143                           
  3144                           ;main.c: 337:     INTEDG = 0;
  3145  0667  1683               	bsf	3,5	;RP0=1, select bank1
  3146  0668  1303               	bcf	3,6	;RP1=0, select bank1
  3147  0669  1301               	bcf	1,6	;volatile
  3148                           
  3149                           ;main.c: 339:     GIE = 1;
  3150  066A  178B               	bsf	11,7	;volatile
  3151  066B                     l182:
  3152  066B  0008               	return
  3153  066C                     __end_of_IRQ_RB0_init:
  3154                           
  3155                           	psect	text17
  3156  01B6                     __ptext17:	
  3157 ;; *************** function _ISR *****************
  3158 ;; Defined at:
  3159 ;;		line 277 in file "main.c"
  3160 ;; Parameters:    Size  Location     Type
  3161 ;;		None
  3162 ;; Auto vars:     Size  Location     Type
  3163 ;;		None
  3164 ;; Return value:  Size  Location     Type
  3165 ;;                  1    wreg      void 
  3166 ;; Registers used:
  3167 ;;		wreg, fsr0l, fsr0h, status,2, status,0, btemp+1, pclath, cstack
  3168 ;; Tracked objects:
  3169 ;;		On entry : 0/0
  3170 ;;		On exit  : 0/0
  3171 ;;		Unchanged: 0/0
  3172 ;; Data sizes:     COMMON   BANK0   BANK1   BANK3   BANK2
  3173 ;;      Params:         0       0       0       0       0
  3174 ;;      Locals:         0       0       0       0       0
  3175 ;;      Temps:          0       6       0       0       0
  3176 ;;      Totals:         0       6       0       0       0
  3177 ;;Total ram usage:        6 bytes
  3178 ;; Hardware stack levels used:    1
  3179 ;; Hardware stack levels required when called:    3
  3180 ;; This function calls:
  3181 ;;		_update_tempreture
  3182 ;;		i1___lwdiv
  3183 ;; This function is called by:
  3184 ;;		Interrupt level 1
  3185 ;; This function uses a non-reentrant model
  3186 ;;
  3187                           
  3188                           
  3189                           ;psect for function _ISR
  3190  01B6                     _ISR:
  3191  01B6                     i1l1988:
  3192                           
  3193                           ;main.c: 280:   if (INTF)
  3194  01B6  1C8B               	btfss	11,1	;volatile
  3195  01B7  29B9               	goto	u154_21
  3196  01B8  29BA               	goto	u154_20
  3197  01B9                     u154_21:
  3198  01B9  29D7               	goto	i1l169
  3199  01BA                     u154_20:
  3200  01BA                     i1l1990:
  3201                           
  3202                           ;main.c: 281:   {;main.c: 282:     INTF = 0;
  3203  01BA  108B               	bcf	11,1	;volatile
  3204                           
  3205                           ;main.c: 283:     switch(state)
  3206  01BB  29C4               	goto	i1l1996
  3207  01BC                     i1l171:	
  3208                           ;main.c: 284:     {;main.c: 285:         case ON_STATE:
  3209                           
  3210                           
  3211                           ;main.c: 286:             TMR1ON = 0;
  3212  01BC  1010               	bcf	16,0	;volatile
  3213                           
  3214                           ;main.c: 287:             TMR1IF = 0;
  3215  01BD  100C               	bcf	12,0	;volatile
  3216                           
  3217                           ;main.c: 288:             state=OFF_STATE;
  3218  01BE  01DD               	clrf	_state
  3219  01BF  0ADD               	incf	_state,f
  3220                           
  3221                           ;main.c: 289:             break;
  3222  01C0  29D7               	goto	i1l169
  3223  01C1                     i1l173:	
  3224                           ;main.c: 290:         case OFF_STATE:
  3225                           
  3226                           
  3227                           ;main.c: 291:             TMR1ON = 1;
  3228  01C1  1410               	bsf	16,0	;volatile
  3229  01C2                     i1l1992:
  3230                           
  3231                           ;main.c: 292:             state=ON_STATE;
  3232  01C2  01DD               	clrf	_state
  3233                           
  3234                           ;main.c: 293:             break;
  3235  01C3  29D7               	goto	i1l169
  3236  01C4                     i1l1996:
  3237  01C4  085D               	movf	_state,w
  3238  01C5  00AB               	movwf	??_ISR
  3239  01C6  01AC               	clrf	??_ISR+1
  3240                           
  3241                           ; Switch on 2 bytes has been partitioned into a top level switch of size 1, and 1 sub-sw
      +                          itches
  3242                           ; Switch size 1, requested type "simple"
  3243                           ; Number of cases is 1, Range of values is 0 to 0
  3244                           ; switch strategies available:
  3245                           ; Name         Instructions Cycles
  3246                           ; simple_byte            4     3 (average)
  3247                           ; direct_byte           11     8 (fixed)
  3248                           ; jumptable            260     6 (fixed)
  3249                           ;	Chosen strategy is simple_byte
  3250  01C7  082C               	movf	??_ISR+1,w
  3251  01C8  3A00               	xorlw	0	; case 0
  3252  01C9  1903               	skipnz
  3253  01CA  29CC               	goto	i1l2522
  3254  01CB  29D7               	goto	i1l169
  3255  01CC                     i1l2522:
  3256                           
  3257                           ; Switch size 1, requested type "simple"
  3258                           ; Number of cases is 3, Range of values is 0 to 2
  3259                           ; switch strategies available:
  3260                           ; Name         Instructions Cycles
  3261                           ; simple_byte           10     6 (average)
  3262                           ; direct_byte           17     8 (fixed)
  3263                           ; jumptable            260     6 (fixed)
  3264                           ;	Chosen strategy is simple_byte
  3265  01CC  082B               	movf	??_ISR,w
  3266  01CD  3A00               	xorlw	0	; case 0
  3267  01CE  1903               	skipnz
  3268  01CF  29BC               	goto	i1l171
  3269  01D0  3A01               	xorlw	1	; case 1
  3270  01D1  1903               	skipnz
  3271  01D2  29C1               	goto	i1l173
  3272  01D3  3A03               	xorlw	3	; case 2
  3273  01D4  1903               	skipnz
  3274  01D5  29BC               	goto	i1l171
  3275  01D6  29D7               	goto	i1l169
  3276  01D7                     i1l169:	
  3277                           ;main.c: 304:     }
  3278                           
  3279                           
  3280                           ;main.c: 307:    if (TMR1IF)
  3281  01D7  1C0C               	btfss	12,0	;volatile
  3282  01D8  29DA               	goto	u155_21
  3283  01D9  29DB               	goto	u155_20
  3284  01DA                     u155_21:
  3285  01DA  2A13               	goto	i1l179
  3286  01DB                     u155_20:
  3287  01DB                     i1l1998:
  3288                           
  3289                           ;main.c: 308:    {;main.c: 309:            TMR1IF = 0;
  3290  01DB  100C               	bcf	12,0	;volatile
  3291  01DC                     i1l2000:
  3292                           
  3293                           ;main.c: 310:            timer1counter++;
  3294  01DC  3001               	movlw	1
  3295  01DD  00FF               	movwf	btemp+1
  3296  01DE  087F               	movf	btemp+1,w
  3297  01DF  07C7               	addwf	_timer1counter,f
  3298  01E0                     i1l2002:
  3299                           
  3300                           ;main.c: 311:            ReadTemp=0;
  3301  01E0  01C6               	clrf	_ReadTemp
  3302  01E1                     i1l2004:
  3303                           
  3304                           ;main.c: 312:            if (timer1counter == 4){
  3305  01E1  3004               	movlw	4
  3306  01E2  0647               	xorwf	_timer1counter,w
  3307  01E3  1D03               	btfss	3,2
  3308  01E4  29E6               	goto	u156_21
  3309  01E5  29E7               	goto	u156_20
  3310  01E6                     u156_21:
  3311  01E6  29F3               	goto	i1l2014
  3312  01E7                     u156_20:
  3313  01E7                     i1l2006:
  3314                           
  3315                           ;main.c: 313:                 ReadTemp=1;
  3316  01E7  01C6               	clrf	_ReadTemp
  3317  01E8  0AC6               	incf	_ReadTemp,f
  3318  01E9                     i1l2008:
  3319                           
  3320                           ;main.c: 314:                 Number_Tempreture++;
  3321  01E9  3001               	movlw	1
  3322  01EA  00FF               	movwf	btemp+1
  3323  01EB  087F               	movf	btemp+1,w
  3324  01EC  07C8               	addwf	_Number_Tempreture,f
  3325  01ED                     i1l2010:
  3326                           
  3327                           ;main.c: 315:                 timer1counter = 0;
  3328  01ED  01C7               	clrf	_timer1counter
  3329  01EE                     i1l2012:
  3330                           
  3331                           ;main.c: 316:                 update_tempreture();
  3332  01EE  120A  118A  22D4  120A  118A  	fcall	_update_tempreture
  3333  01F3                     i1l2014:
  3334                           
  3335                           ;main.c: 318:             if(Number_Tempreture==10)
  3336  01F3  300A               	movlw	10
  3337  01F4  1283               	bcf	3,5	;RP0=0, select bank0
  3338  01F5  1303               	bcf	3,6	;RP1=0, select bank0
  3339  01F6  0648               	xorwf	_Number_Tempreture,w
  3340  01F7  1D03               	btfss	3,2
  3341  01F8  29FA               	goto	u157_21
  3342  01F9  29FB               	goto	u157_20
  3343  01FA                     u157_21:
  3344  01FA  2A13               	goto	i1l179
  3345  01FB                     u157_20:
  3346  01FB                     i1l2016:
  3347                           
  3348                           ;main.c: 319:             {;main.c: 320:                TEMPRETURE=accumilated_tmeperatu
      +                          re/10;
  3349  01FB  300A               	movlw	10
  3350  01FC  00F5               	movwf	i1___lwdiv@divisor
  3351  01FD  3000               	movlw	0
  3352  01FE  00F6               	movwf	i1___lwdiv@divisor+1
  3353  01FF  0842               	movf	_accumilated_tmeperature+1,w
  3354  0200  00F8               	movwf	i1___lwdiv@dividend+1
  3355  0201  0841               	movf	_accumilated_tmeperature,w
  3356  0202  00F7               	movwf	i1___lwdiv@dividend
  3357  0203  120A  118A  24C2  120A  118A  	fcall	i1___lwdiv
  3358  0208  0876               	movf	?i1___lwdiv+1,w
  3359  0209  1283               	bcf	3,5	;RP0=0, select bank0
  3360  020A  1303               	bcf	3,6	;RP1=0, select bank0
  3361  020B  00C4               	movwf	_TEMPRETURE+1
  3362  020C  0875               	movf	?i1___lwdiv,w
  3363  020D  00C3               	movwf	_TEMPRETURE
  3364  020E                     i1l2018:
  3365                           
  3366                           ;main.c: 322:                 RB5 = ~RB5;
  3367  020E  3020               	movlw	32
  3368  020F  0686               	xorwf	6,f
  3369  0210                     i1l2020:
  3370                           
  3371                           ;main.c: 324:                 Number_Tempreture = 0;
  3372  0210  01C8               	clrf	_Number_Tempreture
  3373  0211                     i1l2022:
  3374                           
  3375                           ;main.c: 325:                 accumilated_tmeperature= 0;
  3376  0211  01C1               	clrf	_accumilated_tmeperature
  3377  0212  01C2               	clrf	_accumilated_tmeperature+1
  3378  0213                     i1l179:
  3379  0213  0830               	movf	??_ISR+5,w
  3380  0214  00FF               	movwf	btemp+1
  3381  0215  082F               	movf	??_ISR+4,w
  3382  0216  008A               	movwf	10
  3383  0217  082E               	movf	??_ISR+3,w
  3384  0218  0084               	movwf	4
  3385  0219  0E2D               	swapf	(??_ISR+2)^0,w
  3386  021A  0083               	movwf	3
  3387  021B  0EFE               	swapf	btemp,f
  3388  021C  0E7E               	swapf	btemp,w
  3389  021D  0009               	retfie
  3390  021E                     __end_of_ISR:
  3391                           
  3392                           	psect	intentry
  3393  0004                     __pintentry:	
  3394                           ;incstack = 0
  3395                           ; Regs used in _ISR: [wreg-fsr0h+status,2+status,0+btemp+1+pclath+cstack]
  3396                           
  3397  0004                     interrupt_function:
  3398  007E                     saved_w	set	btemp
  3399  0004  00FE               	movwf	btemp
  3400  0005  0E03               	swapf	3,w
  3401  0006  1283               	bcf	3,5	;RP0=0, select bank0
  3402  0007  1303               	bcf	3,6	;RP1=0, select bank0
  3403  0008  00AD               	movwf	??_ISR+2
  3404  0009  0804               	movf	4,w
  3405  000A  00AE               	movwf	??_ISR+3
  3406  000B  080A               	movf	10,w
  3407  000C  00AF               	movwf	??_ISR+4
  3408  000D  087F               	movf	btemp+1,w
  3409  000E  00B0               	movwf	??_ISR+5
  3410  000F  120A  118A  29B6   	ljmp	_ISR
  3411                           
  3412                           	psect	text18
  3413  02D4                     __ptext18:	
  3414 ;; *************** function _update_tempreture *****************
  3415 ;; Defined at:
  3416 ;;		line 265 in file "main.c"
  3417 ;; Parameters:    Size  Location     Type
  3418 ;;		None
  3419 ;; Auto vars:     Size  Location     Type
  3420 ;;  temp            2    7[BANK0 ] unsigned int 
  3421 ;;  x               1   10[BANK0 ] unsigned char 
  3422 ;;  y               1    9[BANK0 ] unsigned char 
  3423 ;; Return value:  Size  Location     Type
  3424 ;;                  1    wreg      void 
  3425 ;; Registers used:
  3426 ;;		wreg, fsr0l, fsr0h, status,2, status,0, btemp+1, pclath, cstack
  3427 ;; Tracked objects:
  3428 ;;		On entry : 0/0
  3429 ;;		On exit  : 0/0
  3430 ;;		Unchanged: 0/0
  3431 ;; Data sizes:     COMMON   BANK0   BANK1   BANK3   BANK2
  3432 ;;      Params:         0       0       0       0       0
  3433 ;;      Locals:         0       4       0       0       0
  3434 ;;      Temps:          0       4       0       0       0
  3435 ;;      Totals:         0       8       0       0       0
  3436 ;;Total ram usage:        8 bytes
  3437 ;; Hardware stack levels used:    1
  3438 ;; Hardware stack levels required when called:    2
  3439 ;; This function calls:
  3440 ;;		___wmul
  3441 ;;		_adc_amostra
  3442 ;;		_itoa
  3443 ;; This function is called by:
  3444 ;;		_ISR
  3445 ;; This function uses a non-reentrant model
  3446 ;;
  3447                           
  3448                           
  3449                           ;psect for function _update_tempreture
  3450  02D4                     _update_tempreture:
  3451  02D4                     i1l1920:	
  3452                           ;incstack = 0
  3453                           ; Regs used in _update_tempreture: [wreg-fsr0h+status,2+status,0+btemp+1+pclath+cstack]
  3454                           
  3455                           
  3456                           ;main.c: 267:     unsigned int temp=(adc_amostra(2)*10)/2;
  3457  02D4  3002               	movlw	2
  3458  02D5  120A  118A  242E  120A  118A  	fcall	_adc_amostra
  3459  02DA  0871               	movf	?_adc_amostra+1,w
  3460  02DB  00FB               	movwf	___wmul@multiplier+1
  3461  02DC  0870               	movf	?_adc_amostra,w
  3462  02DD  00FA               	movwf	___wmul@multiplier
  3463  02DE  300A               	movlw	10
  3464  02DF  00FC               	movwf	___wmul@multiplicand
  3465  02E0  3000               	movlw	0
  3466  02E1  00FD               	movwf	___wmul@multiplicand+1
  3467  02E2  120A  118A  25E9  120A  118A  	fcall	___wmul
  3468  02E7  087A               	movf	?___wmul,w
  3469  02E8  1283               	bcf	3,5	;RP0=0, select bank0
  3470  02E9  1303               	bcf	3,6	;RP1=0, select bank0
  3471  02EA  00A3               	movwf	??_update_tempreture
  3472  02EB  087B               	movf	?___wmul+1,w
  3473  02EC  00A4               	movwf	??_update_tempreture+1
  3474  02ED  1003               	clrc
  3475  02EE  0CA4               	rrf	??_update_tempreture+1,f
  3476  02EF  0CA3               	rrf	??_update_tempreture,f
  3477  02F0  0823               	movf	??_update_tempreture,w
  3478  02F1  00A7               	movwf	update_tempreture@temp
  3479  02F2  0824               	movf	??_update_tempreture+1,w
  3480  02F3  00A8               	movwf	update_tempreture@temp+1
  3481  02F4                     i1l1922:
  3482                           
  3483                           ;main.c: 268:     itoa(temp,str);
  3484  02F4  0828               	movf	update_tempreture@temp+1,w
  3485  02F5  00A1               	movwf	itoa@val+1
  3486  02F6  0827               	movf	update_tempreture@temp,w
  3487  02F7  00A0               	movwf	itoa@val
  3488  02F8  304A               	movlw	(low (_str| 0))& (0+255)
  3489  02F9  00FF               	movwf	btemp+1
  3490  02FA  087F               	movf	btemp+1,w
  3491  02FB  00A2               	movwf	itoa@str
  3492  02FC  120A  118A  232C  120A  118A  	fcall	_itoa
  3493  0301                     i1l1924:
  3494                           
  3495                           ;main.c: 269:     unsigned char y= str[2];
  3496  0301  1283               	bcf	3,5	;RP0=0, select bank0
  3497  0302  1303               	bcf	3,6	;RP1=0, select bank0
  3498  0303  084C               	movf	_str+2,w
  3499  0304  00FF               	movwf	btemp+1
  3500  0305  087F               	movf	btemp+1,w
  3501  0306  00A9               	movwf	update_tempreture@y
  3502  0307                     i1l1926:
  3503                           
  3504                           ;main.c: 270:     unsigned char x= str[3];
  3505  0307  084D               	movf	_str+3,w
  3506  0308  00FF               	movwf	btemp+1
  3507  0309  087F               	movf	btemp+1,w
  3508  030A  00AA               	movwf	update_tempreture@x
  3509  030B                     i1l1928:
  3510                           
  3511                           ;main.c: 271:     accumilated_tmeperature += (y*10)+x;
  3512  030B  0829               	movf	update_tempreture@y,w
  3513  030C  00A3               	movwf	??_update_tempreture
  3514  030D  01A4               	clrf	??_update_tempreture+1
  3515  030E  0823               	movf	??_update_tempreture,w
  3516  030F  00FA               	movwf	___wmul@multiplier
  3517  0310  0824               	movf	??_update_tempreture+1,w
  3518  0311  00FB               	movwf	___wmul@multiplier+1
  3519  0312  300A               	movlw	10
  3520  0313  00FC               	movwf	___wmul@multiplicand
  3521  0314  3000               	movlw	0
  3522  0315  00FD               	movwf	___wmul@multiplicand+1
  3523  0316  120A  118A  25E9  120A  118A  	fcall	___wmul
  3524  031B  1283               	bcf	3,5	;RP0=0, select bank0
  3525  031C  1303               	bcf	3,6	;RP1=0, select bank0
  3526  031D  082A               	movf	update_tempreture@x,w
  3527  031E  077A               	addwf	?___wmul,w
  3528  031F  00A5               	movwf	??_update_tempreture+2
  3529  0320  3000               	movlw	0
  3530  0321  1803               	skipnc
  3531  0322  3001               	movlw	1
  3532  0323  077B               	addwf	?___wmul+1,w
  3533  0324  00A6               	movwf	??_update_tempreture+3
  3534  0325  0825               	movf	??_update_tempreture+2,w
  3535  0326  07C1               	addwf	_accumilated_tmeperature,f
  3536  0327  1803               	skipnc
  3537  0328  0AC2               	incf	_accumilated_tmeperature+1,f
  3538  0329  0826               	movf	??_update_tempreture+3,w
  3539  032A  07C2               	addwf	_accumilated_tmeperature+1,f
  3540  032B                     i1l164:
  3541  032B  0008               	return
  3542  032C                     __end_of_update_tempreture:
  3543                           
  3544                           	psect	text19
  3545  032C                     __ptext19:	
  3546 ;; *************** function _itoa *****************
  3547 ;; Defined at:
  3548 ;;		line 27 in file "itoa.c"
  3549 ;; Parameters:    Size  Location     Type
  3550 ;;  val             2    0[BANK0 ] unsigned int 
  3551 ;;  str             1    2[BANK0 ] PTR unsigned char 
  3552 ;;		 -> str(6), 
  3553 ;; Auto vars:     Size  Location     Type
  3554 ;;		None
  3555 ;; Return value:  Size  Location     Type
  3556 ;;                  1    wreg      void 
  3557 ;; Registers used:
  3558 ;;		wreg, fsr0l, fsr0h, status,2, status,0, btemp+1, pclath, cstack
  3559 ;; Tracked objects:
  3560 ;;		On entry : 0/0
  3561 ;;		On exit  : 0/0
  3562 ;;		Unchanged: 0/0
  3563 ;; Data sizes:     COMMON   BANK0   BANK1   BANK3   BANK2
  3564 ;;      Params:         0       3       0       0       0
  3565 ;;      Locals:         0       0       0       0       0
  3566 ;;      Temps:          0       0       0       0       0
  3567 ;;      Totals:         0       3       0       0       0
  3568 ;;Total ram usage:        3 bytes
  3569 ;; Hardware stack levels used:    1
  3570 ;; Hardware stack levels required when called:    1
  3571 ;; This function calls:
  3572 ;;		i1___lwdiv
  3573 ;;		i1___lwmod
  3574 ;; This function is called by:
  3575 ;;		_update_tempreture
  3576 ;; This function uses a non-reentrant model
  3577 ;;
  3578                           
  3579                           
  3580                           ;psect for function _itoa
  3581  032C                     _itoa:
  3582  032C                     i1l1866:	
  3583                           ;incstack = 0
  3584                           ; Regs used in _itoa: [wreg-fsr0h+status,2+status,0+btemp+1+pclath+cstack]
  3585                           
  3586                           
  3587                           ;itoa.c: 27: void itoa(unsigned int val, unsigned char* str );itoa.c: 28: {;itoa.c: 32: 
      +                            str[2]=((val%1000)/100);
  3588  032C  3064               	movlw	100
  3589  032D  00F5               	movwf	i1___lwdiv@divisor
  3590  032E  3000               	movlw	0
  3591  032F  00F6               	movwf	i1___lwdiv@divisor+1
  3592  0330  1283               	bcf	3,5	;RP0=0, select bank0
  3593  0331  1303               	bcf	3,6	;RP1=0, select bank0
  3594  0332  0821               	movf	itoa@val+1,w
  3595  0333  00F3               	movwf	i1___lwmod@dividend+1
  3596  0334  0820               	movf	itoa@val,w
  3597  0335  00F2               	movwf	i1___lwmod@dividend
  3598  0336  30E8               	movlw	232
  3599  0337  00F0               	movwf	i1___lwmod@divisor
  3600  0338  3003               	movlw	3
  3601  0339  00F1               	movwf	i1___lwmod@divisor+1
  3602  033A  120A  118A  257F  120A  118A  	fcall	i1___lwmod
  3603  033F  0871               	movf	?i1___lwmod+1,w
  3604  0340  00F8               	movwf	i1___lwdiv@dividend+1
  3605  0341  0870               	movf	?i1___lwmod,w
  3606  0342  00F7               	movwf	i1___lwdiv@dividend
  3607  0343  120A  118A  24C2  120A  118A  	fcall	i1___lwdiv
  3608  0348  0875               	movf	?i1___lwdiv,w
  3609  0349  00FF               	movwf	btemp+1
  3610  034A  1283               	bcf	3,5	;RP0=0, select bank0
  3611  034B  1303               	bcf	3,6	;RP1=0, select bank0
  3612  034C  0822               	movf	itoa@str,w
  3613  034D  3E02               	addlw	2
  3614  034E  0084               	movwf	4
  3615  034F  087F               	movf	btemp+1,w
  3616  0350  1383               	bcf	3,7	;select IRP bank0
  3617  0351  0080               	movwf	0
  3618                           
  3619                           ;itoa.c: 33:   str[3]=((val%100)/10);
  3620  0352  300A               	movlw	10
  3621  0353  00F5               	movwf	i1___lwdiv@divisor
  3622  0354  3000               	movlw	0
  3623  0355  00F6               	movwf	i1___lwdiv@divisor+1
  3624  0356  0821               	movf	itoa@val+1,w
  3625  0357  00F3               	movwf	i1___lwmod@dividend+1
  3626  0358  0820               	movf	itoa@val,w
  3627  0359  00F2               	movwf	i1___lwmod@dividend
  3628  035A  3064               	movlw	100
  3629  035B  00F0               	movwf	i1___lwmod@divisor
  3630  035C  3000               	movlw	0
  3631  035D  00F1               	movwf	i1___lwmod@divisor+1
  3632  035E  120A  118A  257F  120A  118A  	fcall	i1___lwmod
  3633  0363  0871               	movf	?i1___lwmod+1,w
  3634  0364  00F8               	movwf	i1___lwdiv@dividend+1
  3635  0365  0870               	movf	?i1___lwmod,w
  3636  0366  00F7               	movwf	i1___lwdiv@dividend
  3637  0367  120A  118A  24C2  120A  118A  	fcall	i1___lwdiv
  3638  036C  0875               	movf	?i1___lwdiv,w
  3639  036D  00FF               	movwf	btemp+1
  3640  036E  1283               	bcf	3,5	;RP0=0, select bank0
  3641  036F  1303               	bcf	3,6	;RP1=0, select bank0
  3642  0370  0822               	movf	itoa@str,w
  3643  0371  3E03               	addlw	3
  3644  0372  0084               	movwf	4
  3645  0373  087F               	movf	btemp+1,w
  3646  0374  1383               	bcf	3,7	;select IRP bank0
  3647  0375  0080               	movwf	0
  3648  0376                     i1l1868:
  3649                           
  3650                           ;itoa.c: 34:   if (str[3] != 0)
  3651  0376  0822               	movf	itoa@str,w
  3652  0377  3E03               	addlw	3
  3653  0378  0084               	movwf	4
  3654  0379  0800               	movf	0,w
  3655  037A  1903               	btfsc	3,2
  3656  037B  2B7D               	goto	u147_21
  3657  037C  2B7E               	goto	u147_20
  3658  037D                     u147_21:
  3659  037D  2B83               	goto	i1l213
  3660  037E                     u147_20:
  3661  037E                     i1l1870:
  3662                           
  3663                           ;itoa.c: 35:       str[3]-=1;
  3664  037E  0822               	movf	itoa@str,w
  3665  037F  3E03               	addlw	3
  3666  0380  0084               	movwf	4
  3667  0381  3001               	movlw	1
  3668  0382  0280               	subwf	0,f
  3669  0383                     i1l213:
  3670  0383  0008               	return
  3671  0384                     __end_of_itoa:
  3672                           
  3673                           	psect	text20
  3674  057F                     __ptext20:	
  3675 ;; *************** function i1___lwmod *****************
  3676 ;; Defined at:
  3677 ;;		line 5 in file "/opt/microchip/xc8/v2.20/pic/sources/c90/common/lwmod.c"
  3678 ;; Parameters:    Size  Location     Type
  3679 ;;  divisor         2    0[COMMON] unsigned int 
  3680 ;;  dividend        2    2[COMMON] unsigned int 
  3681 ;; Auto vars:     Size  Location     Type
  3682 ;;  counter         1    4[COMMON] unsigned char 
  3683 ;; Return value:  Size  Location     Type
  3684 ;;                  2    0[COMMON] unsigned int 
  3685 ;; Registers used:
  3686 ;;		wreg, status,2, status,0, btemp+1
  3687 ;; Tracked objects:
  3688 ;;		On entry : 0/0
  3689 ;;		On exit  : 0/0
  3690 ;;		Unchanged: 0/0
  3691 ;; Data sizes:     COMMON   BANK0   BANK1   BANK3   BANK2
  3692 ;;      Params:         4       0       0       0       0
  3693 ;;      Locals:         1       0       0       0       0
  3694 ;;      Temps:          0       0       0       0       0
  3695 ;;      Totals:         5       0       0       0       0
  3696 ;;Total ram usage:        5 bytes
  3697 ;; Hardware stack levels used:    1
  3698 ;; This function calls:
  3699 ;;		Nothing
  3700 ;; This function is called by:
  3701 ;;		_itoa
  3702 ;; This function uses a non-reentrant model
  3703 ;;
  3704                           
  3705                           
  3706                           ;psect for function i1___lwmod
  3707  057F                     i1___lwmod:
  3708  057F                     i1l1714:	
  3709                           ;incstack = 0
  3710                           ; Regs used in i1___lwmod: [wreg+status,2+status,0+btemp+1]
  3711                           
  3712  057F  0870               	movf	i1___lwmod@divisor,w
  3713  0580  0471               	iorwf	i1___lwmod@divisor+1,w
  3714  0581  1903               	btfsc	3,2
  3715  0582  2D84               	goto	u120_21
  3716  0583  2D85               	goto	u120_20
  3717  0584                     u120_21:
  3718  0584  2DB4               	goto	i1l1732
  3719  0585                     u120_20:
  3720  0585                     i1l1716:
  3721  0585  01F4               	clrf	i1___lwmod@counter
  3722  0586  0AF4               	incf	i1___lwmod@counter,f
  3723  0587  2D93               	goto	i1l1722
  3724  0588                     i1l1718:
  3725  0588  3001               	movlw	1
  3726  0589                     u121_25:
  3727  0589  1003               	clrc
  3728  058A  0DF0               	rlf	i1___lwmod@divisor,f
  3729  058B  0DF1               	rlf	i1___lwmod@divisor+1,f
  3730  058C  3EFF               	addlw	-1
  3731  058D  1D03               	skipz
  3732  058E  2D89               	goto	u121_25
  3733  058F                     i1l1720:
  3734  058F  3001               	movlw	1
  3735  0590  00FF               	movwf	btemp+1
  3736  0591  087F               	movf	btemp+1,w
  3737  0592  07F4               	addwf	i1___lwmod@counter,f
  3738  0593                     i1l1722:
  3739  0593  1FF1               	btfss	i1___lwmod@divisor+1,7
  3740  0594  2D96               	goto	u122_21
  3741  0595  2D97               	goto	u122_20
  3742  0596                     u122_21:
  3743  0596  2D88               	goto	i1l1718
  3744  0597                     u122_20:
  3745  0597                     i1l1724:
  3746  0597  0871               	movf	i1___lwmod@divisor+1,w
  3747  0598  0273               	subwf	i1___lwmod@dividend+1,w
  3748  0599  1D03               	skipz
  3749  059A  2D9D               	goto	u123_25
  3750  059B  0870               	movf	i1___lwmod@divisor,w
  3751  059C  0272               	subwf	i1___lwmod@dividend,w
  3752  059D                     u123_25:
  3753  059D  1C03               	skipc
  3754  059E  2DA0               	goto	u123_21
  3755  059F  2DA1               	goto	u123_20
  3756  05A0                     u123_21:
  3757  05A0  2DA7               	goto	i1l1728
  3758  05A1                     u123_20:
  3759  05A1                     i1l1726:
  3760  05A1  0870               	movf	i1___lwmod@divisor,w
  3761  05A2  02F2               	subwf	i1___lwmod@dividend,f
  3762  05A3  0871               	movf	i1___lwmod@divisor+1,w
  3763  05A4  1C03               	skipc
  3764  05A5  03F3               	decf	i1___lwmod@dividend+1,f
  3765  05A6  02F3               	subwf	i1___lwmod@dividend+1,f
  3766  05A7                     i1l1728:
  3767  05A7  3001               	movlw	1
  3768  05A8                     u124_25:
  3769  05A8  1003               	clrc
  3770  05A9  0CF1               	rrf	i1___lwmod@divisor+1,f
  3771  05AA  0CF0               	rrf	i1___lwmod@divisor,f
  3772  05AB  3EFF               	addlw	-1
  3773  05AC  1D03               	skipz
  3774  05AD  2DA8               	goto	u124_25
  3775  05AE                     i1l1730:
  3776  05AE  3001               	movlw	1
  3777  05AF  02F4               	subwf	i1___lwmod@counter,f
  3778  05B0  1D03               	btfss	3,2
  3779  05B1  2DB3               	goto	u125_21
  3780  05B2  2DB4               	goto	u125_20
  3781  05B3                     u125_21:
  3782  05B3  2D97               	goto	i1l1724
  3783  05B4                     u125_20:
  3784  05B4                     i1l1732:
  3785  05B4  0873               	movf	i1___lwmod@dividend+1,w
  3786  05B5  00F1               	movwf	?i1___lwmod+1
  3787  05B6  0872               	movf	i1___lwmod@dividend,w
  3788  05B7  00F0               	movwf	?i1___lwmod
  3789  05B8                     i1l636:
  3790  05B8  0008               	return
  3791  05B9                     __end_ofi1___lwmod:
  3792                           
  3793                           	psect	text21
  3794  04C2                     __ptext21:	
  3795 ;; *************** function i1___lwdiv *****************
  3796 ;; Defined at:
  3797 ;;		line 5 in file "/opt/microchip/xc8/v2.20/pic/sources/c90/common/lwdiv.c"
  3798 ;; Parameters:    Size  Location     Type
  3799 ;;  divisor         2    5[COMMON] unsigned int 
  3800 ;;  dividend        2    7[COMMON] unsigned int 
  3801 ;; Auto vars:     Size  Location     Type
  3802 ;;  quotient        2    9[COMMON] unsigned int 
  3803 ;;  counter         1   11[COMMON] unsigned char 
  3804 ;; Return value:  Size  Location     Type
  3805 ;;                  2    5[COMMON] unsigned int 
  3806 ;; Registers used:
  3807 ;;		wreg, status,2, status,0, btemp+1
  3808 ;; Tracked objects:
  3809 ;;		On entry : 0/0
  3810 ;;		On exit  : 0/0
  3811 ;;		Unchanged: 0/0
  3812 ;; Data sizes:     COMMON   BANK0   BANK1   BANK3   BANK2
  3813 ;;      Params:         4       0       0       0       0
  3814 ;;      Locals:         3       0       0       0       0
  3815 ;;      Temps:          0       0       0       0       0
  3816 ;;      Totals:         7       0       0       0       0
  3817 ;;Total ram usage:        7 bytes
  3818 ;; Hardware stack levels used:    1
  3819 ;; This function calls:
  3820 ;;		Nothing
  3821 ;; This function is called by:
  3822 ;;		_ISR
  3823 ;;		_itoa
  3824 ;; This function uses a non-reentrant model
  3825 ;;
  3826                           
  3827                           
  3828                           ;psect for function i1___lwdiv
  3829  04C2                     i1___lwdiv:
  3830  04C2                     i1l1688:	
  3831                           ;incstack = 0
  3832                           ; Regs used in i1___lwdiv: [wreg+status,2+status,0+btemp+1]
  3833                           
  3834  04C2  01F9               	clrf	i1___lwdiv@quotient
  3835  04C3  01FA               	clrf	i1___lwdiv@quotient+1
  3836  04C4                     i1l1690:
  3837  04C4  0875               	movf	i1___lwdiv@divisor,w
  3838  04C5  0476               	iorwf	i1___lwdiv@divisor+1,w
  3839  04C6  1903               	btfsc	3,2
  3840  04C7  2CC9               	goto	u113_21
  3841  04C8  2CCA               	goto	u113_20
  3842  04C9                     u113_21:
  3843  04C9  2D01               	goto	i1l1710
  3844  04CA                     u113_20:
  3845  04CA                     i1l1692:
  3846  04CA  01FB               	clrf	i1___lwdiv@counter
  3847  04CB  0AFB               	incf	i1___lwdiv@counter,f
  3848  04CC  2CD8               	goto	i1l1698
  3849  04CD                     i1l1694:
  3850  04CD  3001               	movlw	1
  3851  04CE                     u114_25:
  3852  04CE  1003               	clrc
  3853  04CF  0DF5               	rlf	i1___lwdiv@divisor,f
  3854  04D0  0DF6               	rlf	i1___lwdiv@divisor+1,f
  3855  04D1  3EFF               	addlw	-1
  3856  04D2  1D03               	skipz
  3857  04D3  2CCE               	goto	u114_25
  3858  04D4                     i1l1696:
  3859  04D4  3001               	movlw	1
  3860  04D5  00FF               	movwf	btemp+1
  3861  04D6  087F               	movf	btemp+1,w
  3862  04D7  07FB               	addwf	i1___lwdiv@counter,f
  3863  04D8                     i1l1698:
  3864  04D8  1FF6               	btfss	i1___lwdiv@divisor+1,7
  3865  04D9  2CDB               	goto	u115_21
  3866  04DA  2CDC               	goto	u115_20
  3867  04DB                     u115_21:
  3868  04DB  2CCD               	goto	i1l1694
  3869  04DC                     u115_20:
  3870  04DC                     i1l1700:
  3871  04DC  3001               	movlw	1
  3872  04DD                     u116_25:
  3873  04DD  1003               	clrc
  3874  04DE  0DF9               	rlf	i1___lwdiv@quotient,f
  3875  04DF  0DFA               	rlf	i1___lwdiv@quotient+1,f
  3876  04E0  3EFF               	addlw	-1
  3877  04E1  1D03               	skipz
  3878  04E2  2CDD               	goto	u116_25
  3879  04E3  0876               	movf	i1___lwdiv@divisor+1,w
  3880  04E4  0278               	subwf	i1___lwdiv@dividend+1,w
  3881  04E5  1D03               	skipz
  3882  04E6  2CE9               	goto	u117_25
  3883  04E7  0875               	movf	i1___lwdiv@divisor,w
  3884  04E8  0277               	subwf	i1___lwdiv@dividend,w
  3885  04E9                     u117_25:
  3886  04E9  1C03               	skipc
  3887  04EA  2CEC               	goto	u117_21
  3888  04EB  2CED               	goto	u117_20
  3889  04EC                     u117_21:
  3890  04EC  2CF4               	goto	i1l1706
  3891  04ED                     u117_20:
  3892  04ED                     i1l1702:
  3893  04ED  0875               	movf	i1___lwdiv@divisor,w
  3894  04EE  02F7               	subwf	i1___lwdiv@dividend,f
  3895  04EF  0876               	movf	i1___lwdiv@divisor+1,w
  3896  04F0  1C03               	skipc
  3897  04F1  03F8               	decf	i1___lwdiv@dividend+1,f
  3898  04F2  02F8               	subwf	i1___lwdiv@dividend+1,f
  3899  04F3                     i1l1704:
  3900  04F3  1479               	bsf	i1___lwdiv@quotient,0
  3901  04F4                     i1l1706:
  3902  04F4  3001               	movlw	1
  3903  04F5                     u118_25:
  3904  04F5  1003               	clrc
  3905  04F6  0CF6               	rrf	i1___lwdiv@divisor+1,f
  3906  04F7  0CF5               	rrf	i1___lwdiv@divisor,f
  3907  04F8  3EFF               	addlw	-1
  3908  04F9  1D03               	skipz
  3909  04FA  2CF5               	goto	u118_25
  3910  04FB                     i1l1708:
  3911  04FB  3001               	movlw	1
  3912  04FC  02FB               	subwf	i1___lwdiv@counter,f
  3913  04FD  1D03               	btfss	3,2
  3914  04FE  2D00               	goto	u119_21
  3915  04FF  2D01               	goto	u119_20
  3916  0500                     u119_21:
  3917  0500  2CDC               	goto	i1l1700
  3918  0501                     u119_20:
  3919  0501                     i1l1710:
  3920  0501  087A               	movf	i1___lwdiv@quotient+1,w
  3921  0502  00F6               	movwf	?i1___lwdiv+1
  3922  0503  0879               	movf	i1___lwdiv@quotient,w
  3923  0504  00F5               	movwf	?i1___lwdiv
  3924  0505                     i1l626:
  3925  0505  0008               	return
  3926  0506                     __end_ofi1___lwdiv:
  3927                           
  3928                           	psect	text22
  3929  042E                     __ptext22:	
  3930 ;; *************** function _adc_amostra *****************
  3931 ;; Defined at:
  3932 ;;		line 44 in file "adc.c"
  3933 ;; Parameters:    Size  Location     Type
  3934 ;;  canal           1    wreg     unsigned char 
  3935 ;; Auto vars:     Size  Location     Type
  3936 ;;  canal           1    9[COMMON] unsigned char 
  3937 ;; Return value:  Size  Location     Type
  3938 ;;                  2    0[COMMON] unsigned int 
  3939 ;; Registers used:
  3940 ;;		wreg, fsr0l, fsr0h, status,2, status,0
  3941 ;; Tracked objects:
  3942 ;;		On entry : 0/0
  3943 ;;		On exit  : 0/0
  3944 ;;		Unchanged: 0/0
  3945 ;; Data sizes:     COMMON   BANK0   BANK1   BANK3   BANK2
  3946 ;;      Params:         2       0       0       0       0
  3947 ;;      Locals:         1       0       0       0       0
  3948 ;;      Temps:          7       0       0       0       0
  3949 ;;      Totals:        10       0       0       0       0
  3950 ;;Total ram usage:       10 bytes
  3951 ;; Hardware stack levels used:    1
  3952 ;; This function calls:
  3953 ;;		Nothing
  3954 ;; This function is called by:
  3955 ;;		_update_tempreture
  3956 ;; This function uses a non-reentrant model
  3957 ;;
  3958                           
  3959                           
  3960                           ;psect for function _adc_amostra
  3961  042E                     _adc_amostra:
  3962                           
  3963                           ;incstack = 0
  3964                           ; Regs used in _adc_amostra: [wreg-fsr0h+status,2+status,0]
  3965                           ;adc_amostra@canal stored from wreg
  3966  042E  00F9               	movwf	adc_amostra@canal
  3967  042F                     i1l1846:
  3968                           
  3969                           ;adc.c: 44: unsigned int adc_amostra(unsigned char canal);adc.c: 45: {;adc.c: 62:      s
      +                          witch(canal)
  3970  042F  2C3F               	goto	i1l1856
  3971  0430                     i1l1848:
  3972                           
  3973                           ;adc.c: 65:         ADCON0=0x01;
  3974  0430  3001               	movlw	1
  3975  0431  1283               	bcf	3,5	;RP0=0, select bank0
  3976  0432  1303               	bcf	3,6	;RP1=0, select bank0
  3977  0433  009F               	movwf	31	;volatile
  3978                           
  3979                           ;adc.c: 66:         break;
  3980  0434  2C52               	goto	i1l203
  3981  0435                     i1l1850:
  3982                           
  3983                           ;adc.c: 68:         ADCON0=0x09;
  3984  0435  3009               	movlw	9
  3985  0436  1283               	bcf	3,5	;RP0=0, select bank0
  3986  0437  1303               	bcf	3,6	;RP1=0, select bank0
  3987  0438  009F               	movwf	31	;volatile
  3988                           
  3989                           ;adc.c: 69:         break;
  3990  0439  2C52               	goto	i1l203
  3991  043A                     i1l1852:
  3992                           
  3993                           ;adc.c: 71:         ADCON0=0x11;
  3994  043A  3011               	movlw	17
  3995  043B  1283               	bcf	3,5	;RP0=0, select bank0
  3996  043C  1303               	bcf	3,6	;RP1=0, select bank0
  3997  043D  009F               	movwf	31	;volatile
  3998                           
  3999                           ;adc.c: 72:         break;
  4000  043E  2C52               	goto	i1l203
  4001  043F                     i1l1856:
  4002  043F  0879               	movf	adc_amostra@canal,w
  4003  0440  00F2               	movwf	??_adc_amostra
  4004  0441  01F3               	clrf	??_adc_amostra+1
  4005                           
  4006                           ; Switch on 2 bytes has been partitioned into a top level switch of size 1, and 1 sub-sw
      +                          itches
  4007                           ; Switch size 1, requested type "simple"
  4008                           ; Number of cases is 1, Range of values is 0 to 0
  4009                           ; switch strategies available:
  4010                           ; Name         Instructions Cycles
  4011                           ; simple_byte            4     3 (average)
  4012                           ; direct_byte           11     8 (fixed)
  4013                           ; jumptable            260     6 (fixed)
  4014                           ;	Chosen strategy is simple_byte
  4015  0442  0873               	movf	??_adc_amostra+1,w
  4016  0443  3A00               	xorlw	0	; case 0
  4017  0444  1903               	skipnz
  4018  0445  2C47               	goto	i1l2524
  4019  0446  2C52               	goto	i1l203
  4020  0447                     i1l2524:
  4021                           
  4022                           ; Switch size 1, requested type "simple"
  4023                           ; Number of cases is 3, Range of values is 0 to 2
  4024                           ; switch strategies available:
  4025                           ; Name         Instructions Cycles
  4026                           ; simple_byte           10     6 (average)
  4027                           ; direct_byte           17     8 (fixed)
  4028                           ; jumptable            260     6 (fixed)
  4029                           ;	Chosen strategy is simple_byte
  4030  0447  0872               	movf	??_adc_amostra,w
  4031  0448  3A00               	xorlw	0	; case 0
  4032  0449  1903               	skipnz
  4033  044A  2C30               	goto	i1l1848
  4034  044B  3A01               	xorlw	1	; case 1
  4035  044C  1903               	skipnz
  4036  044D  2C35               	goto	i1l1850
  4037  044E  3A03               	xorlw	3	; case 2
  4038  044F  1903               	skipnz
  4039  0450  2C3A               	goto	i1l1852
  4040  0451  2C52               	goto	i1l203
  4041  0452                     i1l203:
  4042                           
  4043                           ;adc.c: 77:     ADCON0bits.GO=1;
  4044  0452  1283               	bcf	3,5	;RP0=0, select bank0
  4045  0453  1303               	bcf	3,6	;RP1=0, select bank0
  4046  0454  151F               	bsf	31,2	;volatile
  4047  0455                     i1l206:	
  4048                           ;adc.c: 78:     while(ADCON0bits.GO == 1);
  4049                           
  4050  0455  191F               	btfsc	31,2	;volatile
  4051  0456  2C58               	goto	u145_21
  4052  0457  2C59               	goto	u145_20
  4053  0458                     u145_21:
  4054  0458  2C55               	goto	i1l206
  4055  0459                     u145_20:
  4056  0459                     i1l1858:
  4057                           
  4058                           ;adc.c: 80:    return ((((unsigned int)ADRESH)<<2)|(ADRESL>>6));
  4059  0459  1683               	bsf	3,5	;RP0=1, select bank1
  4060  045A  1303               	bcf	3,6	;RP1=0, select bank1
  4061  045B  081E               	movf	30,w	;volatile
  4062  045C  00F2               	movwf	??_adc_amostra
  4063  045D  3006               	movlw	6
  4064  045E                     u146_25:
  4065  045E  1003               	clrc
  4066  045F  0CF2               	rrf	??_adc_amostra,f
  4067  0460  3EFF               	addlw	-1
  4068  0461  1D03               	skipz
  4069  0462  2C5E               	goto	u146_25
  4070  0463  0872               	movf	??_adc_amostra,w
  4071  0464  00F3               	movwf	??_adc_amostra+1
  4072  0465  01F4               	clrf	??_adc_amostra+2
  4073  0466  1283               	bcf	3,5	;RP0=0, select bank0
  4074  0467  1303               	bcf	3,6	;RP1=0, select bank0
  4075  0468  081E               	movf	30,w	;volatile
  4076  0469  00F5               	movwf	??_adc_amostra+3
  4077  046A  01F6               	clrf	??_adc_amostra+4
  4078  046B  1003               	clrc
  4079  046C  0DF5               	rlf	??_adc_amostra+3,f
  4080  046D  0DF6               	rlf	??_adc_amostra+4,f
  4081  046E  1003               	clrc
  4082  046F  0DF5               	rlf	??_adc_amostra+3,f
  4083  0470  0DF6               	rlf	??_adc_amostra+4,f
  4084  0471  0873               	movf	??_adc_amostra+1,w
  4085  0472  0475               	iorwf	??_adc_amostra+3,w
  4086  0473  00F7               	movwf	??_adc_amostra+5
  4087  0474  0874               	movf	??_adc_amostra+2,w
  4088  0475  0476               	iorwf	??_adc_amostra+4,w
  4089  0476  00F8               	movwf	??_adc_amostra+6
  4090  0477  0877               	movf	??_adc_amostra+5,w
  4091  0478  00F0               	movwf	?_adc_amostra
  4092  0479  0878               	movf	??_adc_amostra+6,w
  4093  047A  00F1               	movwf	?_adc_amostra+1
  4094  047B                     i1l209:
  4095  047B  0008               	return
  4096  047C                     __end_of_adc_amostra:
  4097                           
  4098                           	psect	text23
  4099  05E9                     __ptext23:	
  4100 ;; *************** function ___wmul *****************
  4101 ;; Defined at:
  4102 ;;		line 15 in file "/opt/microchip/xc8/v2.20/pic/sources/c90/common/Umul16.c"
  4103 ;; Parameters:    Size  Location     Type
  4104 ;;  multiplier      2   10[COMMON] unsigned int 
  4105 ;;  multiplicand    2   12[COMMON] unsigned int 
  4106 ;; Auto vars:     Size  Location     Type
  4107 ;;  product         2    0[BANK0 ] unsigned int 
  4108 ;; Return value:  Size  Location     Type
  4109 ;;                  2   10[COMMON] unsigned int 
  4110 ;; Registers used:
  4111 ;;		wreg, status,2, status,0
  4112 ;; Tracked objects:
  4113 ;;		On entry : 0/0
  4114 ;;		On exit  : 0/0
  4115 ;;		Unchanged: 0/0
  4116 ;; Data sizes:     COMMON   BANK0   BANK1   BANK3   BANK2
  4117 ;;      Params:         4       0       0       0       0
  4118 ;;      Locals:         0       2       0       0       0
  4119 ;;      Temps:          0       0       0       0       0
  4120 ;;      Totals:         4       2       0       0       0
  4121 ;;Total ram usage:        6 bytes
  4122 ;; Hardware stack levels used:    1
  4123 ;; This function calls:
  4124 ;;		Nothing
  4125 ;; This function is called by:
  4126 ;;		_update_tempreture
  4127 ;; This function uses a non-reentrant model
  4128 ;;
  4129                           
  4130                           
  4131                           ;psect for function ___wmul
  4132  05E9                     ___wmul:
  4133  05E9                     i1l1872:	
  4134                           ;incstack = 0
  4135                           ; Regs used in ___wmul: [wreg+status,2+status,0]
  4136                           
  4137  05E9  1283               	bcf	3,5	;RP0=0, select bank0
  4138  05EA  1303               	bcf	3,6	;RP1=0, select bank0
  4139  05EB  01A0               	clrf	___wmul@product
  4140  05EC  01A1               	clrf	___wmul@product+1
  4141  05ED                     i1l1874:
  4142  05ED  1C7A               	btfss	___wmul@multiplier,0
  4143  05EE  2DF0               	goto	u148_21
  4144  05EF  2DF1               	goto	u148_20
  4145  05F0                     u148_21:
  4146  05F0  2DF9               	goto	i1l354
  4147  05F1                     u148_20:
  4148  05F1                     i1l1876:
  4149  05F1  087C               	movf	___wmul@multiplicand,w
  4150  05F2  1283               	bcf	3,5	;RP0=0, select bank0
  4151  05F3  1303               	bcf	3,6	;RP1=0, select bank0
  4152  05F4  07A0               	addwf	___wmul@product,f
  4153  05F5  1803               	skipnc
  4154  05F6  0AA1               	incf	___wmul@product+1,f
  4155  05F7  087D               	movf	___wmul@multiplicand+1,w
  4156  05F8  07A1               	addwf	___wmul@product+1,f
  4157  05F9                     i1l354:
  4158  05F9  3001               	movlw	1
  4159  05FA                     u149_25:
  4160  05FA  1003               	clrc
  4161  05FB  0DFC               	rlf	___wmul@multiplicand,f
  4162  05FC  0DFD               	rlf	___wmul@multiplicand+1,f
  4163  05FD  3EFF               	addlw	-1
  4164  05FE  1D03               	skipz
  4165  05FF  2DFA               	goto	u149_25
  4166  0600                     i1l1878:
  4167  0600  3001               	movlw	1
  4168  0601                     u150_25:
  4169  0601  1003               	clrc
  4170  0602  0CFB               	rrf	___wmul@multiplier+1,f
  4171  0603  0CFA               	rrf	___wmul@multiplier,f
  4172  0604  3EFF               	addlw	-1
  4173  0605  1D03               	skipz
  4174  0606  2E01               	goto	u150_25
  4175  0607                     i1l1880:
  4176  0607  087A               	movf	___wmul@multiplier,w
  4177  0608  047B               	iorwf	___wmul@multiplier+1,w
  4178  0609  1D03               	btfss	3,2
  4179  060A  2E0C               	goto	u151_21
  4180  060B  2E0D               	goto	u151_20
  4181  060C                     u151_21:
  4182  060C  2DED               	goto	i1l1874
  4183  060D                     u151_20:
  4184  060D                     i1l1882:
  4185  060D  1283               	bcf	3,5	;RP0=0, select bank0
  4186  060E  1303               	bcf	3,6	;RP1=0, select bank0
  4187  060F  0821               	movf	___wmul@product+1,w
  4188  0610  00FB               	movwf	?___wmul+1
  4189  0611  0820               	movf	___wmul@product,w
  4190  0612  00FA               	movwf	?___wmul
  4191  0613                     i1l356:
  4192  0613  0008               	return
  4193  0614                     __end_of___wmul:
  4194  007E                     btemp	set	126	;btemp
  4195  007E                     wtemp0	set	126
  4196                           
  4197                           	psect	config
  4198                           
  4199                           ;Config register CONFIG @ 0x2007
  4200                           ;	Oscillator Selection bits
  4201                           ;	FOSC = HS, HS oscillator
  4202                           ;	Watchdog Timer Enable bit
  4203                           ;	WDTE = OFF, WDT disabled
  4204                           ;	Power-up Timer Enable bit
  4205                           ;	PWRTE = OFF, PWRT disabled
  4206                           ;	Brown-out Reset Enable bit
  4207                           ;	BOREN = OFF, BOR disabled
  4208                           ;	Low-Voltage (Single-Supply) In-Circuit Serial Programming Enable bit
  4209                           ;	LVP = OFF, RB3 is digital I/O, HV on MCLR must be used for programming
  4210                           ;	Data EEPROM Memory Code Protection bit
  4211                           ;	CPD = OFF, Data EEPROM code protection off
  4212                           ;	Flash Program Memory Write Enable bits
  4213                           ;	WRT = OFF, Write protection off; all program memory may be written to by EECON control
  4214                           ;	In-Circuit Debugger Mode bit
  4215                           ;	DEBUG = 0x1, unprogrammed default
  4216                           ;	Flash Program Memory Code Protection bit
  4217                           ;	CP = OFF, Code protection off
  4218  2007                     	org	8199
  4219  2007  3F3A               	dw	16186

Data Sizes:
    Strings     0
    Constant    0
    Data        13
    BSS         15
    Persistent  1
    Stack       0

Auto Spaces:
    Space          Size  Autos    Used
    COMMON           14     14      14
    BANK0            80     33      62
    BANK1            80      4       4
    BANK3            96      0       0
    BANK2            96      0       0

Pointer List with Targets:

    itoa@str	PTR unsigned char  size(1) Largest target is 6
		 -> str(BANK0[6]), 


Critical Paths under _main in COMMON

    None.

Critical Paths under _ISR in COMMON

    _update_tempreture->___wmul
    _itoa->i1___lwdiv
    i1___lwdiv->i1___lwmod
    ___wmul->_adc_amostra

Critical Paths under _main in BANK0

    _setting_state->_flashDisplay
    _flashDisplay->_displayDeiredTempreture
    _displayDeiredTempreture->___awdiv
    _on_state->_displayTempreture
    _displayTempreture->___lwdiv

Critical Paths under _ISR in BANK0

    _ISR->_update_tempreture
    _update_tempreture->_itoa

Critical Paths under _main in BANK1

    _setting_state->_flashDisplay

Critical Paths under _ISR in BANK1

    None.

Critical Paths under _main in BANK3

    None.

Critical Paths under _ISR in BANK3

    None.

Critical Paths under _main in BANK2

    None.

Critical Paths under _ISR in BANK2

    None.

Call Graph Tables:

 ---------------------------------------------------------------------------------
 (Depth) Function   	        Calls       Base Space   Used Autos Params    Refs
 ---------------------------------------------------------------------------------
 (0) _main                                                 2     2      0    2827
                                             31 BANK0      2     2      0
                       _IRQ_RB0_init
                        _TIMER1_init
                          _off_state
                           _on_state
                      _setting_state
 ---------------------------------------------------------------------------------
 (1) _setting_state                                        0     0      0    1538
                       _flashDisplay
 ---------------------------------------------------------------------------------
 (2) _flashDisplay                                         6     6      0    1538
                                             29 BANK0      2     2      0
                                              0 BANK1      4     4      0
            _displayDeiredTempreture
 ---------------------------------------------------------------------------------
 (3) _displayDeiredTempreture                              4     4      0    1402
                                             25 BANK0      4     4      0
                            ___awdiv
                            ___awmod
                    _lcd_writeNumber
 ---------------------------------------------------------------------------------
 (4) ___awmod                                              6     2      4     613
                                             17 BANK0      6     2      4
 ---------------------------------------------------------------------------------
 (4) ___awdiv                                              8     4      4     625
                                             17 BANK0      8     4      4
 ---------------------------------------------------------------------------------
 (1) _on_state                                             2     2      0    1289
                                             28 BANK0      2     2      0
                       _changeStatus
                           _coolerOn
                  _displayTempreture
                           _heaterOn
 ---------------------------------------------------------------------------------
 (2) _heaterOn                                             0     0      0       0
 ---------------------------------------------------------------------------------
 (2) _displayTempreture                                    4     4      0    1289
                                             24 BANK0      4     4      0
                            ___lwdiv
                            ___lwmod
                    _lcd_writeNumber
 ---------------------------------------------------------------------------------
 (4) _lcd_writeNumber                                      2     2      0      96
                                             17 BANK0      2     2      0
 ---------------------------------------------------------------------------------
 (3) ___lwmod                                              5     1      4     511
                                             17 BANK0      5     1      4
 ---------------------------------------------------------------------------------
 (3) ___lwdiv                                              7     3      4     614
                                             17 BANK0      7     3      4
 ---------------------------------------------------------------------------------
 (2) _coolerOn                                             0     0      0       0
 ---------------------------------------------------------------------------------
 (2) _changeStatus                                         2     2      0       0
                                             17 BANK0      2     2      0
 ---------------------------------------------------------------------------------
 (1) _off_state                                            0     0      0       0
 ---------------------------------------------------------------------------------
 (1) _TIMER1_init                                          0     0      0       0
 ---------------------------------------------------------------------------------
 (1) _IRQ_RB0_init                                         0     0      0       0
 ---------------------------------------------------------------------------------
 Estimated maximum stack depth 4
 ---------------------------------------------------------------------------------
 (Depth) Function   	        Calls       Base Space   Used Autos Params    Refs
 ---------------------------------------------------------------------------------
 (5) _ISR                                                  6     6      0    1670
                                             11 BANK0      6     6      0
                  _update_tempreture
                          i1___lwdiv
 ---------------------------------------------------------------------------------
 (6) _update_tempreture                                    8     8      0    1352
                                              3 BANK0      8     8      0
                             ___wmul
                        _adc_amostra
                               _itoa
 ---------------------------------------------------------------------------------
 (7) _itoa                                                 3     0      3     865
                                              0 BANK0      3     0      3
                          i1___lwdiv
                          i1___lwmod
 ---------------------------------------------------------------------------------
 (8) i1___lwmod                                            5     1      4     263
                                              0 COMMON     5     1      4
 ---------------------------------------------------------------------------------
 (6) i1___lwdiv                                            7     3      4     318
                                              5 COMMON     7     3      4
                          i1___lwmod (ARG)
 ---------------------------------------------------------------------------------
 (7) _adc_amostra                                         10     8      2      22
                                              0 COMMON    10     8      2
 ---------------------------------------------------------------------------------
 (7) ___wmul                                               6     2      4     396
                                             10 COMMON     4     0      4
                                              0 BANK0      2     2      0
                        _adc_amostra (ARG)
 ---------------------------------------------------------------------------------
 Estimated maximum stack depth 8
 ---------------------------------------------------------------------------------

 Call Graph Graphs:

 _main (ROOT)
   _IRQ_RB0_init
   _TIMER1_init
   _off_state
   _on_state
     _changeStatus
     _coolerOn
     _displayTempreture
       ___lwdiv
       ___lwmod
       _lcd_writeNumber
     _heaterOn
   _setting_state
     _flashDisplay
       _displayDeiredTempreture
         ___awdiv
         ___awmod
         _lcd_writeNumber

 _ISR (ROOT)
   _update_tempreture
     ___wmul
       _adc_amostra (ARG)
     _adc_amostra
     _itoa
       i1___lwdiv
         i1___lwmod (ARG)
       i1___lwmod
   i1___lwdiv
     i1___lwmod (ARG)

 Address spaces:
Name               Size   Autos  Total    Cost      Usage
BANK3               60      0       0       9        0.0%
BITBANK3            60      0       0       8        0.0%
SFR3                 0      0       0       4        0.0%
BITSFR3              0      0       0       4        0.0%
BANK2               60      0       0      11        0.0%
BITBANK2            60      0       0      10        0.0%
SFR2                 0      0       0       5        0.0%
BITSFR2              0      0       0       5        0.0%
BANK1               50      4       4       7        5.0%
BITBANK1            50      0       0       6        0.0%
SFR1                 0      0       0       2        0.0%
BITSFR1              0      0       0       2        0.0%
BANK0               50     21      3E       5       77.5%
BITBANK0            50      0       0       4        0.0%
SFR0                 0      0       0       1        0.0%
BITSFR0              0      0       0       1        0.0%
COMMON               E      E       E       1      100.0%
BITCOMMON            E      0       0       0        0.0%
CODE                 0      0       0       0        0.0%
DATA                 0      0      50      12        0.0%
ABS                  0      0      50       3        0.0%
NULL                 0      0       0       0        0.0%
STACK                0      0       0       2        0.0%
EEDATA             100      0       0       0        0.0%


Microchip Technology PIC Macro Assembler V2.20 build 20200408173844 
Symbol Table                                                                                   Sat Jul 11 10:14:16 2020

                               pc 0002                                l91 067A                                l99 0049  
                    ___awdiv@sign 0036                                fsr 0004               ___wmul@multiplicand 007C  
            __size_of_adc_amostra 004E                               l100 014C                               l103 00C9  
                             l120 05E8                               l123 0670                               l132 0542  
                             l141 0665                               l126 0675                               l161 03D8  
                             l147 0261                               l182 066B                               l158 042D  
                             l520 02D3                               l185 064D                               l507 01B5  
                             l268 0629                               l626 04C1                               l636 057E  
                             _GIE 005F                               _RC2 003A                               _RB5 0035  
                             _RC5 003D                               _RB7 0037                    ??_flashDisplay 003D  
            __end_of_changeStatus 05E9                               _ISR 01B6                               fsr0 0004  
                             _str 004A                               indf 0000                      ___awmod@sign 0036  
                            ?_ISR 0070                              l2200 02A0                              l2130 0617  
                            l2210 02BF                              l2202 02A4                              l2132 061D  
                            l2140 0150                              l2204 02A8                              l2212 02C5  
                            l2220 0384                              l2300 0106                              l2134 0625  
                            l2150 0164                              l2142 0154                              l2214 02CA  
                            l2206 02B2                              l2230 03C1                              l2222 03AC  
                            l2310 0134                              l2302 0109                              l2136 0628  
                            l2320 0402                              l2160 017A                              l2152 0168  
                            l2144 0159                              l2216 02CF                              l2208 02B8  
                            l2232 03C7                              l2224 03AD                              l2304 010F  
                            l2312 0137                              l2240 003C                              l2400 024C  
                            l2330 041F                              l2322 0408                              l2170 019A  
                            l2162 017E                              l2154 016A                              l2146 015B  
                            l2138 014D                              l2234 03CA                              l2226 03B3  
                            l2314 013F                              l2306 0114                              l2250 004B  
                            l2242 0040                              l2402 024F                              l2410 0261  
                            l2332 042A                              l2324 0413                              l2316 03D9  
                            l2172 01A1                              l2164 0182                              l2156 0170  
                            l2148 015F                              l2236 03D5                              l2228 03BE  
                            l2308 0121                              l2260 0058                              l2244 0046  
                            l2252 004F                              l2404 0255                              l2326 0416  
                            l2318 0401                              l2342 0516                              l2334 0506  
                            l2166 0193                              l2158 0173                              l2174 01A7  
                            l2190 0287                              l2182 0279                              l2262 005E  
                            l2270 0086                              l2238 0036                              l2406 025B  
                            l1640 047C                              l2328 041C                              l2520 0537  
                            l2352 052D                              l2344 051B                              l2336 050D  
                            l2176 01AC                              l2168 0199                              l2192 028B  
                            l2184 027C                              l2272 008C                              l2280 00B4  
                            l2264 0063                              l2360 0660                              l1650 0494  
                            l1642 0480                              l2346 0521                              l2338 0511  
                            l2178 01B1                              l2194 0290                              l2186 0280  
                            l2290 00D1                              l2282 00BC                              l2274 0091  
                            l2266 0070                              l2258 0053                              l2370 0230  
                            l2362 021E                              l1820 05E2                              l1660 04B7  
                            l1652 0498                              l1644 0486                              l2348 0527  
                            l2196 0296                              l2188 0285                              l2292 00DB  
                            l2284 00CD                              l2276 009E                              l2268 0083  
                            l2380 023B                              l2372 0233                              l2364 0228  
                            l1822 05E7                              l1814 05B9                              l1654 04A9  
                            l1646 0489                              l1662 04BD                              l1670 054E  
                            l2198 0299                              l2294 00E1                              l2278 00B1  
                            l2358 065B                              l2518 026B                              l2390 0246  
                            l2382 023C                              l2374 0234                              l2366 022C  
                            l1816 05CD                              l1656 04AF                              l1648 0490  
                            l1680 056D                              l1672 0555                              l1824 066C  
                            l2296 00E6                              l2392 0247                              l2384 023D  
                            l2376 0237                              l2368 022D                              l1818 05D0  
                            l1826 0671                              l1658 04B0                              l1682 0574  
                            l1674 0559                              l1666 0543                              l2298 00F3  
                            l2394 0249                              l2386 0240                              l2378 0238  
                            l1916 063D                              l1676 055D                              l1668 054B  
                            l1684 057A                              l2396 024A                              l2388 0243  
                            l1918 0666                              l1678 0567                              l2398 024B  
                            l1886 0676                              u1000 0486                              u1001 0485  
                            u1020 0498                              u1100 0567                              u1021 0497  
                            u1101 0566                              u1015 048A                              u1040 04A9  
                            u1120 057A                              u1041 04A8                              u1121 0579  
                            u1105 0563                              u1035 0499                              u1115 056E  
                            u1060 04BD                              u1061 04BC                              u1045 04A5  
                            u1070 054B                              u1055 04B1                              u1071 054A  
                            u2007 0101                              u2017 012F                              u1090 055D  
                            u1091 055C                              u2027 03B9                              u1085 054F  
                            u2037 03D0                              u1430 05CD                              u1431 05CC  
                            u2047 040E                              u1440 05E2                              u1600 015F  
                            u1441 05E1                              u2057 0425                              u1601 015E  
                            u1610 0170                              u1435 05C9                              u1611 016F  
                            u1700 028B                              u1445 05DE                              u1701 028A  
                            u1630 0182                              u1710 0296                              u1631 0181  
                            u1711 0295                              u1800 0046                              u1625 0174  
                            u1801 0045                              u1650 0193                              u1730 02A8  
                            u1810 005E                              u1651 0192                              u1731 02A7  
                            u1811 005D                              u1580 061D                              u1740 02B2  
                            u1900 00F3                              u1820 0063                              u1581 061C  
                            u1645 0183                              u1741 02B1                              u1725 029A  
                            u1901 00F2                              u1821 0062                              u1670 01A7  
                            u1590 0154                              u1910 010F                              u1830 0070  
                            u1671 01A6                              u1655 018F                              u1591 0153  
                            u1911 010E                              u1831 006F                              u1680 01AC  
                            u1760 02C5                              u1920 0114                              u1840 008C  
                            u1681 01AB                              u1665 019B                              u1761 02C4  
                            u1745 02AE                              u1921 0113                              u1905 00EF  
                            u1841 008B                              u1770 02CA                              u1690 0280  
                            u1930 0121                              u1850 0091                              u1771 02C9  
                            u1755 02B9                              u1691 027F                              u1931 0120  
                            u1851 0090                              u1835 006C                              u1940 014C  
                            u1860 009E                              u1780 003C                              u1941 014B  
                            u1861 009D                              u1781 003B                              u1950 050D  
                            u1870 00C9                              u1790 0040                              u1951 050C  
                            u1935 011D                              u1871 00C8                              u1791 003F  
                            u1960 0511                              u1880 00E1                              u1961 0510  
                            u1945 0148                              u1881 00E0                              u1865 009A  
                            u1890 00E6                              u1891 00E5                              u1875 00C5  
                            _PEIE 005E                              _INTE 005C                              _INTF 0059  
                            u1977 007E                              u1987 00AC                              u1997 00D7  
                            _TMR1 000E                              _main 021E                              _itoa 032C  
                            btemp 007E                              start 0012                             ??_ISR 002B  
        ?_displayDeiredTempreture 0070                             ?_main 0070                             ?_itoa 0020  
                 __end_of___awdiv 01B6                   __end_of___awmod 02D4                   ___awdiv@divisor 0031  
                 __end_of___lwdiv 04C2                             i1l203 0452                             i1l213 0383  
                           i1l206 0455                             i1l209 047B                             i1l171 01BC  
                           i1l164 032B                             i1l173 01C1                             i1l169 01D7  
                 __end_of___lwmod 057F                             i1l354 05F9                             i1l179 0213  
                           i1l356 0613           flashDisplay@prev_status 005C                             i1l626 0505  
                           i1l636 05B8                   ___awdiv@counter 0035                  _TargetTempreture 005A  
                           _PORTD 0008                             _TRISA 0085                             _TRISD 0088  
         __end_of_lcd_writeNumber 062A                   ??_setting_state 003F                i1___lwmod@dividend 0072  
                           _state 005D                             pclath 000A                             status 0003  
                           wtemp0 007E                __size_ofi1___lwdiv 0044                __size_ofi1___lwmod 003A  
                 __initialization 0015                      __end_of_main 0279                      __end_of_itoa 0384  
                          ??_main 003F                            ??_itoa 007C                      ?_TIMER1_init 0070  
                          _ADCON0 001F                            _ADCON1 009F                            _ADRESH 001E  
                          _ADRESL 009E                  ___awdiv@dividend 0033                            i1l2000 01DC  
                          i1l2010 01ED                            i1l2002 01E0                            i1l2020 0210  
                          i1l2012 01EE                            i1l2004 01E1                            i1l2022 0211  
                          i1l2006 01E7                            i1l2014 01F3                            i1l2016 01FB  
                          i1l2008 01E9                            i1l2018 020E                            u120_20 0585  
                          u120_21 0584                            i1l1700 04DC                            i1l1702 04ED  
                          i1l1710 0501                            i1l1704 04F3                            u113_20 04CA  
                          i1l1720 058F                            u113_21 04C9                            i1l1706 04F4  
                          i1l1730 05AE                            i1l1722 0593                            i1l1714 057F  
                          i1l2522 01CC                            i1l2524 0447                            i1l1708 04FB  
                          i1l1724 0597                            i1l1716 0585                            i1l1732 05B4  
                          u121_25 0589                            i1l1726 05A1                            i1l1718 0588  
                          i1l1728 05A7                            u122_20 0597                            i1l1920 02D4  
                          u122_21 0596                            i1l1850 0435                            i1l1690 04C4  
                          i1l1922 02F4                            i1l1852 043A                            i1l1692 04CA  
                          i1l1924 0301                            u114_25 04CE                            i1l1846 042F  
                          i1l1694 04CD                            i1l1870 037E                            i1l1926 0307  
                          i1l1880 0607                            i1l1872 05E9                            i1l1848 0430  
                          i1l1856 043F                            u115_20 04DC                            i1l1696 04D4  
                          i1l1688 04C2                            u123_20 05A1                            i1l1928 030B  
                          u115_21 04DB                            u123_21 05A0                            i1l1882 060D  
                          i1l1874 05ED                            i1l1858 0459                            i1l1698 04D8  
                          i1l1866 032C                            i1l1876 05F1                            i1l1868 0376  
                          u123_25 059D                            i1l1878 0600                            i1l1990 01BA  
                          i1l1992 01C2                            i1l1996 01C4                            i1l1988 01B6  
                          u116_25 04DD                            u124_25 05A8                            i1l1998 01DB  
                          u117_20 04ED                            u125_20 05B4                            u117_21 04EC  
                          u125_21 05B3                            u117_25 04E9                            _INTEDG 040E  
                          u150_25 0601                            u118_25 04F5                            u151_20 060D  
                          u119_20 0501                            u151_21 060C                            u119_21 0500  
                          u145_20 0459                            u145_21 0458                            u154_20 01BA  
                          u154_21 01B9                            u146_25 045E                            u147_20 037E  
                          u155_20 01DB                            u147_21 037D                            u155_21 01DA  
                          u148_20 05F1                            u156_20 01E7                            u148_21 05F0  
                          u156_21 01E6                            u157_20 01FB                            u157_21 01FA  
                          u149_25 05FA                            _TMR1IE 0460                            _TMR1IF 0060  
                          _TMR1CS 0081                            _TMR1ON 0080                            _TRISB3 0433  
                          _TRISC2 043A                            _TRISB4 0434                            _TRISB5 0435  
                          _TRISC5 043D                            _TRISB7 0437              __end_of_flashDisplay 014D  
                __end_of_heaterOn 0671                  __end_of_coolerOn 0676                            ___wmul 05E9  
                       ??___awdiv 0035                         ??___awmod 0035             __size_of_changeStatus 0030  
                       ??___lwdiv 0035                         ??___lwmod 0035                  ___awdiv@quotient 0037  
                 ___awmod@divisor 0031                   ___awmod@counter 0035                  __end_of_on_state 0543  
               __end_ofi1___lwdiv 0506                 __end_ofi1___lwmod 05B9                            saved_w 007E  
                ?_lcd_writeNumber 0070                     ?_IRQ_RB0_init 0070                 _update_tempreture 02D4  
              ?_update_tempreture 0070           __end_of__initialization 0032                      _changeStatus 05B9  
             ??_update_tempreture 0023                    __pcstackCOMMON 0070                      __pidataBANK0 064E  
                  ??_IRQ_RB0_init 0031         __end_of_update_tempreture 032C                        __pbssBANK0 0041  
      displayDeiredTempreture@low 003B                __size_of_off_state 0005                        __pmaintext 021E  
                         ?___wmul 007A                     ??_adc_amostra 0072                        __pintentry 0004  
                         _T1CKPS0 0084                           _T1CKPS1 0085              __size_of_TIMER1_init 0011  
                       ?_heaterOn 0070  __size_of_displayDeiredTempreture 0055                         ?_coolerOn 0070  
           __size_of_flashDisplay 0117                         ?_on_state 0070                           ___awdiv 014D  
                         ___awmod 0279                   __size_of___wmul 002B                           ___lwdiv 047C  
                         ___lwmod 0543                           __ptext1 065B                           __ptext2 0036  
                         __ptext3 0384                           __ptext4 0279                           __ptext5 014D  
                         __ptext6 0506                           __ptext7 066C                           __ptext8 03D9  
                         __ptext9 0614              displayTempreture@low 003A                 _Number_Tempreture 0048  
                    __size_of_ISR 0068                 i1___lwdiv@divisor 0075               __end_of_adc_amostra 047C  
               i1___lwdiv@counter 007B                 __end_of_off_state 067B                      _flashDisplay 0036  
                ___awmod@dividend 0033        __size_of_update_tempreture 0058                        ??_heaterOn 0031  
           __end_of_setting_state 0666                        ??_coolerOn 0031              end_of_initialization 0032  
                         itoa@val 0020                           itoa@str 0022                        ??_on_state 003C  
            __end_of_IRQ_RB0_init 066C                        _temp_state 0049                         _PORTAbits 0005  
                       _PORTBbits 0006                         _PORTEbits 0009                         i1___lwdiv 04C2  
                       i1___lwmod 057F                       _adc_amostra 042E                    __end_of___wmul 0614  
               i1___lwmod@divisor 0070                 i1___lwmod@counter 0074               start_initialization 0015  
                     __end_of_ISR 021E           _displayDeiredTempreture 0384                        ?i1___lwdiv 0075  
                      ?i1___lwmod 0070          __size_of_lcd_writeNumber 0016                update_tempreture@x 002A  
              update_tempreture@y 0029                          ??___wmul 007E                        init_fetch0 062A  
                     __pdataBANK0 0050                 _displayTempreture 03D9             lcd_writeNumber@number 0032  
              ?_displayTempreture 0070                         ___latbits 0002                     __pcstackBANK0 0020  
                   __pcstackBANK1 00A0                     _segments_code 0050               ??_displayTempreture 0038  
     displayDeiredTempreture@high 003C                 __size_of_heaterOn 0005               lcd_writeNumber@code 0031  
           __size_of_IRQ_RB0_init 0006                 __size_of_coolerOn 0005                         __pnvBANK0 005D  
                ___lwdiv@dividend 0033                 __size_of_on_state 003D                          ?___awdiv 0031  
                        ?___awmod 0031         __end_of_displayTempreture 042E                          ?___lwdiv 0031  
                        ?___lwmod 0031           _accumilated_tmeperature 0041         ??_displayDeiredTempreture 0039  
                   ??_TIMER1_init 0031                      _IRQ_RB0_init 0666                  ___lwdiv@quotient 0035  
                     ??i1___lwdiv 0079                       ??i1___lwmod 0074                         _off_state 0676  
               flashDisplay@i_162 00A2                 flashDisplay@count 0045                 interrupt_function 0004  
                  ___wmul@product 0020                 ??_lcd_writeNumber 0031                        _ADCON0bits 001F  
               ___wmul@multiplier 007A                        ?_off_state 0070               __end_of_TIMER1_init 064E  
           update_tempreture@temp 0027                     _timer1counter 0047                          _ReadTemp 0046  
 __end_of_displayDeiredTempreture 03D9                     ?_changeStatus 0070        __size_of_displayTempreture 0055  
                    ?_adc_amostra 0070                  __size_of___awdiv 0069                  __size_of___awmod 005B  
          __size_of_setting_state 000B                  __size_of___lwdiv 0046                  __size_of___lwmod 003C  
                 ___lwdiv@divisor 0031                   ___lwdiv@counter 0037                          __ptext10 0543  
                        __ptext11 047C                          __ptext20 057F                          __ptext12 0671  
                        __ptext21 04C2                          __ptext13 05B9                          __ptext22 042E  
                        __ptext14 0676                          __ptext23 05E9                          __ptext15 063D  
                        __ptext16 0666                          __ptext17 01B6                          __ptext18 02D4  
                        __ptext19 032C                          _heaterOn 066C                          _coolerOn 0671  
           displayTempreture@high 003B                i1___lwdiv@dividend 0077                    ??_changeStatus 0031  
                   __size_of_main 005B                     __size_of_itoa 0058                          _on_state 0506  
              i1___lwdiv@quotient 0079                       _TIMER1_init 063D                          init_ram0 062E  
                     ??_off_state 0031                          intlevel1 0000                     _setting_state 065B  
                ___lwmod@dividend 0033                        _TEMPRETURE 0043                     ?_flashDisplay 0070  
                 ___lwmod@divisor 0031                   ___lwmod@counter 0035                  adc_amostra@canal 0079  
                  ?_setting_state 0070                   _lcd_writeNumber 0614                     flashDisplay@i 00A0  
