

Microchip MPLAB XC8 Assembler V2.20 build 20200408173844 
                                                                                               Sat Jul 11 23:21:34 2020

Microchip MPLAB XC8 C Compiler v2.20 (Free license) build 20200408173844 Og1 
     1                           	processor	16F877A
     2                           	pagewidth 120
     3                           	opt	flic
     4                           	psect	idataBANK0,global,class=CODE,delta=2,noexec
     5                           	psect	nvBANK0,global,class=BANK0,space=1,delta=1,noexec
     6                           	psect	cinit,global,class=CODE,merge=1,delta=2
     7                           	psect	bssBANK0,global,class=BANK0,space=1,delta=1,noexec
     8                           	psect	dataBANK0,global,class=BANK0,space=1,delta=1,noexec
     9                           	psect	inittext,global,class=CODE,delta=2
    10                           	psect	cstackBANK1,global,class=BANK1,space=1,delta=1,noexec
    11                           	psect	cstackCOMMON,global,class=COMMON,space=1,delta=1,noexec
    12                           	psect	cstackBANK0,global,class=BANK0,space=1,delta=1,noexec
    13                           	psect	maintext,global,class=CODE,split=1,delta=2
    14                           	psect	text1,local,class=CODE,merge=1,delta=2
    15                           	psect	text2,local,class=CODE,merge=1,delta=2
    16                           	psect	text3,local,class=CODE,merge=1,delta=2
    17                           	psect	text4,local,class=CODE,merge=1,delta=2,group=1
    18                           	psect	text5,local,class=CODE,merge=1,delta=2,group=1
    19                           	psect	text6,local,class=CODE,merge=1,delta=2
    20                           	psect	text7,local,class=CODE,merge=1,delta=2
    21                           	psect	text8,local,class=CODE,merge=1,delta=2
    22                           	psect	text9,local,class=CODE,merge=1,delta=2
    23                           	psect	text10,local,class=CODE,merge=1,delta=2
    24                           	psect	text11,local,class=CODE,merge=1,delta=2
    25                           	psect	text12,local,class=CODE,merge=1,delta=2,group=1
    26                           	psect	text13,local,class=CODE,merge=1,delta=2,group=1
    27                           	psect	text14,local,class=CODE,merge=1,delta=2
    28                           	psect	text15,local,class=CODE,merge=1,delta=2
    29                           	psect	text16,local,class=CODE,merge=1,delta=2
    30                           	psect	text17,local,class=CODE,merge=1,delta=2
    31                           	psect	text18,local,class=CODE,merge=1,delta=2
    32                           	psect	text19,local,class=CODE,merge=1,delta=2
    33                           	psect	text20,local,class=CODE,merge=1,delta=2
    34                           	psect	text21,local,class=CODE,merge=1,delta=2,group=1
    35                           	psect	text22,local,class=CODE,merge=1,delta=2
    36                           	psect	text23,local,class=CODE,merge=1,delta=2
    37                           	psect	text24,local,class=CODE,merge=1,delta=2
    38                           	psect	text25,local,class=CODE,merge=1,delta=2
    39                           	psect	text26,local,class=CODE,merge=1,delta=2
    40                           	psect	text27,local,class=CODE,merge=1,delta=2
    41                           	psect	text28,local,class=CODE,merge=1,delta=2
    42                           	psect	text29,local,class=CODE,merge=1,delta=2
    43                           	psect	intentry,global,class=CODE,delta=2
    44                           	psect	text30,local,class=CODE,merge=1,delta=2
    45                           	psect	text31,local,class=CODE,merge=1,delta=2
    46                           	psect	text32,local,class=CODE,merge=1,delta=2
    47                           	psect	text33,local,class=CODE,merge=1,delta=2
    48                           	psect	text34,local,class=CODE,merge=1,delta=2
    49                           	psect	text35,local,class=CODE,merge=1,delta=2,group=1
    50                           	psect	config,global,abs,ovrld,class=CONFIG,space=4,delta=2,noexec
    51                           	dabs	1,0x7E,2
    52  0000                     
    53                           ; Version 2.20
    54                           ; Generated 12/02/2020 GMT
    55                           ; 
    56                           ; Copyright © 2020, Microchip Technology Inc. and its subsidiaries ("Microchip")
    57                           ; All rights reserved.
    58                           ; 
    59                           ; This software is developed by Microchip Technology Inc. and its subsidiaries ("Microch
      +                          ip").
    60                           ; 
    61                           ; Redistribution and use in source and binary forms, with or without modification, are
    62                           ; permitted provided that the following conditions are met:
    63                           ; 
    64                           ;     1. Redistributions of source code must retain the above copyright notice, this lis
      +                          t of
    65                           ;        conditions and the following disclaimer.
    66                           ; 
    67                           ;     2. Redistributions in binary form must reproduce the above copyright notice, this 
      +                          list
    68                           ;        of conditions and the following disclaimer in the documentation and/or other
    69                           ;        materials provided with the distribution.
    70                           ; 
    71                           ;     3. Microchip's name may not be used to endorse or promote products derived from th
      +                          is
    72                           ;        software without specific prior written permission.
    73                           ; 
    74                           ; THIS SOFTWARE IS PROVIDED BY MICROCHIP "AS IS" AND ANY EXPRESS OR IMPLIED WARRANTIES,
    75                           ; INCLUDING, BUT NOT LIMITED TO, THE IMPLIED WARRANTIES OF MERCHANTABILITY AND FITNESS F
      +                          OR
    76                           ; PURPOSE ARE DISCLAIMED.  IN NO EVENT SHALL MICROCHIP BE LIABLE FOR ANY DIRECT, INDIREC
      +                          T,
    77                           ; INCIDENTAL, SPECIAL, EXEMPLARY, OR CONSEQUENTIAL DAMAGES (INCLUDING BUT NOT LIMITED TO
    78                           ; PROCUREMENT OF SUBSTITUTE GOODS OR SERVICES; LOSS OF USE, DATA OR PROFITS; OR BUSINESS
    79                           ; INTERRUPTION) HOWSOEVER CAUSED AND ON ANY THEORY OF LIABILITY, WHETHER IN CONTRACT, ST
      +                          RICT
    80                           ; LIABILITY, OR TORT (INCLUDING NEGLIGENCE OR OTHERWISE) ARISING IN ANY WAY OUT OF THE U
      +                          SE OF
    81                           ; THIS SOFTWARE, EVEN IF ADVISED OF THE POSSIBILITY OF SUCH DAMAGE.
    82                           ; 
    83                           ; 
    84                           ; Code-generator required, PIC16F877A Definitions
    85                           ; 
    86                           ; SFR Addresses
    87  0000                     	;# 
    88  0001                     	;# 
    89  0002                     	;# 
    90  0003                     	;# 
    91  0004                     	;# 
    92  0005                     	;# 
    93  0006                     	;# 
    94  0007                     	;# 
    95  0008                     	;# 
    96  0009                     	;# 
    97  000A                     	;# 
    98  000B                     	;# 
    99  000C                     	;# 
   100  000D                     	;# 
   101  000E                     	;# 
   102  000E                     	;# 
   103  000F                     	;# 
   104  0010                     	;# 
   105  0011                     	;# 
   106  0012                     	;# 
   107  0013                     	;# 
   108  0014                     	;# 
   109  0015                     	;# 
   110  0015                     	;# 
   111  0016                     	;# 
   112  0017                     	;# 
   113  0018                     	;# 
   114  0019                     	;# 
   115  001A                     	;# 
   116  001B                     	;# 
   117  001B                     	;# 
   118  001C                     	;# 
   119  001D                     	;# 
   120  001E                     	;# 
   121  001F                     	;# 
   122  0081                     	;# 
   123  0085                     	;# 
   124  0086                     	;# 
   125  0087                     	;# 
   126  0088                     	;# 
   127  0089                     	;# 
   128  008C                     	;# 
   129  008D                     	;# 
   130  008E                     	;# 
   131  0091                     	;# 
   132  0092                     	;# 
   133  0093                     	;# 
   134  0094                     	;# 
   135  0098                     	;# 
   136  0099                     	;# 
   137  009C                     	;# 
   138  009D                     	;# 
   139  009E                     	;# 
   140  009F                     	;# 
   141  010C                     	;# 
   142  010D                     	;# 
   143  010E                     	;# 
   144  010F                     	;# 
   145  018C                     	;# 
   146  018D                     	;# 
   147  0000                     	;# 
   148  0001                     	;# 
   149  0002                     	;# 
   150  0003                     	;# 
   151  0004                     	;# 
   152  0005                     	;# 
   153  0006                     	;# 
   154  0007                     	;# 
   155  0008                     	;# 
   156  0009                     	;# 
   157  000A                     	;# 
   158  000B                     	;# 
   159  000C                     	;# 
   160  000D                     	;# 
   161  000E                     	;# 
   162  000E                     	;# 
   163  000F                     	;# 
   164  0010                     	;# 
   165  0011                     	;# 
   166  0012                     	;# 
   167  0013                     	;# 
   168  0014                     	;# 
   169  0015                     	;# 
   170  0015                     	;# 
   171  0016                     	;# 
   172  0017                     	;# 
   173  0018                     	;# 
   174  0019                     	;# 
   175  001A                     	;# 
   176  001B                     	;# 
   177  001B                     	;# 
   178  001C                     	;# 
   179  001D                     	;# 
   180  001E                     	;# 
   181  001F                     	;# 
   182  0081                     	;# 
   183  0085                     	;# 
   184  0086                     	;# 
   185  0087                     	;# 
   186  0088                     	;# 
   187  0089                     	;# 
   188  008C                     	;# 
   189  008D                     	;# 
   190  008E                     	;# 
   191  0091                     	;# 
   192  0092                     	;# 
   193  0093                     	;# 
   194  0094                     	;# 
   195  0098                     	;# 
   196  0099                     	;# 
   197  009C                     	;# 
   198  009D                     	;# 
   199  009E                     	;# 
   200  009F                     	;# 
   201  010C                     	;# 
   202  010D                     	;# 
   203  010E                     	;# 
   204  010F                     	;# 
   205  018C                     	;# 
   206  018D                     	;# 
   207  0000                     	;# 
   208  0001                     	;# 
   209  0002                     	;# 
   210  0003                     	;# 
   211  0004                     	;# 
   212  0005                     	;# 
   213  0006                     	;# 
   214  0007                     	;# 
   215  0008                     	;# 
   216  0009                     	;# 
   217  000A                     	;# 
   218  000B                     	;# 
   219  000C                     	;# 
   220  000D                     	;# 
   221  000E                     	;# 
   222  000E                     	;# 
   223  000F                     	;# 
   224  0010                     	;# 
   225  0011                     	;# 
   226  0012                     	;# 
   227  0013                     	;# 
   228  0014                     	;# 
   229  0015                     	;# 
   230  0015                     	;# 
   231  0016                     	;# 
   232  0017                     	;# 
   233  0018                     	;# 
   234  0019                     	;# 
   235  001A                     	;# 
   236  001B                     	;# 
   237  001B                     	;# 
   238  001C                     	;# 
   239  001D                     	;# 
   240  001E                     	;# 
   241  001F                     	;# 
   242  0081                     	;# 
   243  0085                     	;# 
   244  0086                     	;# 
   245  0087                     	;# 
   246  0088                     	;# 
   247  0089                     	;# 
   248  008C                     	;# 
   249  008D                     	;# 
   250  008E                     	;# 
   251  0091                     	;# 
   252  0092                     	;# 
   253  0093                     	;# 
   254  0094                     	;# 
   255  0098                     	;# 
   256  0099                     	;# 
   257  009C                     	;# 
   258  009D                     	;# 
   259  009E                     	;# 
   260  009F                     	;# 
   261  010C                     	;# 
   262  010D                     	;# 
   263  010E                     	;# 
   264  010F                     	;# 
   265  018C                     	;# 
   266  018D                     	;# 
   267  0000                     	;# 
   268  0001                     	;# 
   269  0002                     	;# 
   270  0003                     	;# 
   271  0004                     	;# 
   272  0005                     	;# 
   273  0006                     	;# 
   274  0007                     	;# 
   275  0008                     	;# 
   276  0009                     	;# 
   277  000A                     	;# 
   278  000B                     	;# 
   279  000C                     	;# 
   280  000D                     	;# 
   281  000E                     	;# 
   282  000E                     	;# 
   283  000F                     	;# 
   284  0010                     	;# 
   285  0011                     	;# 
   286  0012                     	;# 
   287  0013                     	;# 
   288  0014                     	;# 
   289  0015                     	;# 
   290  0015                     	;# 
   291  0016                     	;# 
   292  0017                     	;# 
   293  0018                     	;# 
   294  0019                     	;# 
   295  001A                     	;# 
   296  001B                     	;# 
   297  001B                     	;# 
   298  001C                     	;# 
   299  001D                     	;# 
   300  001E                     	;# 
   301  001F                     	;# 
   302  0081                     	;# 
   303  0085                     	;# 
   304  0086                     	;# 
   305  0087                     	;# 
   306  0088                     	;# 
   307  0089                     	;# 
   308  008C                     	;# 
   309  008D                     	;# 
   310  008E                     	;# 
   311  0091                     	;# 
   312  0092                     	;# 
   313  0093                     	;# 
   314  0094                     	;# 
   315  0098                     	;# 
   316  0099                     	;# 
   317  009C                     	;# 
   318  009D                     	;# 
   319  009E                     	;# 
   320  009F                     	;# 
   321  010C                     	;# 
   322  010D                     	;# 
   323  010E                     	;# 
   324  010F                     	;# 
   325  018C                     	;# 
   326  018D                     	;# 
   327  0000                     	;# 
   328  0001                     	;# 
   329  0002                     	;# 
   330  0003                     	;# 
   331  0004                     	;# 
   332  0005                     	;# 
   333  0006                     	;# 
   334  0007                     	;# 
   335  0008                     	;# 
   336  0009                     	;# 
   337  000A                     	;# 
   338  000B                     	;# 
   339  000C                     	;# 
   340  000D                     	;# 
   341  000E                     	;# 
   342  000E                     	;# 
   343  000F                     	;# 
   344  0010                     	;# 
   345  0011                     	;# 
   346  0012                     	;# 
   347  0013                     	;# 
   348  0014                     	;# 
   349  0015                     	;# 
   350  0015                     	;# 
   351  0016                     	;# 
   352  0017                     	;# 
   353  0018                     	;# 
   354  0019                     	;# 
   355  001A                     	;# 
   356  001B                     	;# 
   357  001B                     	;# 
   358  001C                     	;# 
   359  001D                     	;# 
   360  001E                     	;# 
   361  001F                     	;# 
   362  0081                     	;# 
   363  0085                     	;# 
   364  0086                     	;# 
   365  0087                     	;# 
   366  0088                     	;# 
   367  0089                     	;# 
   368  008C                     	;# 
   369  008D                     	;# 
   370  008E                     	;# 
   371  0091                     	;# 
   372  0092                     	;# 
   373  0093                     	;# 
   374  0094                     	;# 
   375  0098                     	;# 
   376  0099                     	;# 
   377  009C                     	;# 
   378  009D                     	;# 
   379  009E                     	;# 
   380  009F                     	;# 
   381  010C                     	;# 
   382  010D                     	;# 
   383  010E                     	;# 
   384  010F                     	;# 
   385  018C                     	;# 
   386  018D                     	;# 
   387  0000                     	;# 
   388  0001                     	;# 
   389  0002                     	;# 
   390  0003                     	;# 
   391  0004                     	;# 
   392  0005                     	;# 
   393  0006                     	;# 
   394  0007                     	;# 
   395  0008                     	;# 
   396  0009                     	;# 
   397  000A                     	;# 
   398  000B                     	;# 
   399  000C                     	;# 
   400  000D                     	;# 
   401  000E                     	;# 
   402  000E                     	;# 
   403  000F                     	;# 
   404  0010                     	;# 
   405  0011                     	;# 
   406  0012                     	;# 
   407  0013                     	;# 
   408  0014                     	;# 
   409  0015                     	;# 
   410  0015                     	;# 
   411  0016                     	;# 
   412  0017                     	;# 
   413  0018                     	;# 
   414  0019                     	;# 
   415  001A                     	;# 
   416  001B                     	;# 
   417  001B                     	;# 
   418  001C                     	;# 
   419  001D                     	;# 
   420  001E                     	;# 
   421  001F                     	;# 
   422  0081                     	;# 
   423  0085                     	;# 
   424  0086                     	;# 
   425  0087                     	;# 
   426  0088                     	;# 
   427  0089                     	;# 
   428  008C                     	;# 
   429  008D                     	;# 
   430  008E                     	;# 
   431  0091                     	;# 
   432  0092                     	;# 
   433  0093                     	;# 
   434  0094                     	;# 
   435  0098                     	;# 
   436  0099                     	;# 
   437  009C                     	;# 
   438  009D                     	;# 
   439  009E                     	;# 
   440  009F                     	;# 
   441  010C                     	;# 
   442  010D                     	;# 
   443  010E                     	;# 
   444  010F                     	;# 
   445  018C                     	;# 
   446  018D                     	;# 
   447  0000                     	;# 
   448  0001                     	;# 
   449  0002                     	;# 
   450  0003                     	;# 
   451  0004                     	;# 
   452  0005                     	;# 
   453  0006                     	;# 
   454  0007                     	;# 
   455  0008                     	;# 
   456  0009                     	;# 
   457  000A                     	;# 
   458  000B                     	;# 
   459  000C                     	;# 
   460  000D                     	;# 
   461  000E                     	;# 
   462  000E                     	;# 
   463  000F                     	;# 
   464  0010                     	;# 
   465  0011                     	;# 
   466  0012                     	;# 
   467  0013                     	;# 
   468  0014                     	;# 
   469  0015                     	;# 
   470  0015                     	;# 
   471  0016                     	;# 
   472  0017                     	;# 
   473  0018                     	;# 
   474  0019                     	;# 
   475  001A                     	;# 
   476  001B                     	;# 
   477  001B                     	;# 
   478  001C                     	;# 
   479  001D                     	;# 
   480  001E                     	;# 
   481  001F                     	;# 
   482  0081                     	;# 
   483  0085                     	;# 
   484  0086                     	;# 
   485  0087                     	;# 
   486  0088                     	;# 
   487  0089                     	;# 
   488  008C                     	;# 
   489  008D                     	;# 
   490  008E                     	;# 
   491  0091                     	;# 
   492  0092                     	;# 
   493  0093                     	;# 
   494  0094                     	;# 
   495  0098                     	;# 
   496  0099                     	;# 
   497  009C                     	;# 
   498  009D                     	;# 
   499  009E                     	;# 
   500  009F                     	;# 
   501  010C                     	;# 
   502  010D                     	;# 
   503  010E                     	;# 
   504  010F                     	;# 
   505  018C                     	;# 
   506  018D                     	;# 
   507                           
   508                           	psect	idataBANK0
   509  0FF2                     __pidataBANK0:
   510                           
   511                           ;initializer for _segments_code
   512  0FF2  34BF               	retlw	191
   513  0FF3  3406               	retlw	6
   514  0FF4  345B               	retlw	91
   515  0FF5  344F               	retlw	79
   516  0FF6  3466               	retlw	102
   517  0FF7  346D               	retlw	109
   518  0FF8  347D               	retlw	125
   519  0FF9  3407               	retlw	7
   520  0FFA  34FF               	retlw	255
   521  0FFB  346F               	retlw	111
   522                           
   523                           ;initializer for _TargetTempreture
   524  0FFC  343C               	retlw	60
   525  0FFD  3400               	retlw	0
   526                           
   527                           ;initializer for flashDisplay@prev_status
   528  0FFE  3401               	retlw	1
   529                           
   530                           ;initializer for _canuse
   531  0FFF  3401               	retlw	1
   532                           
   533                           	psect	nvBANK0
   534  005D                     __pnvBANK0:
   535  005D                     _state:
   536  005D                     	ds	1
   537  000E                     _TMR1	set	14
   538  0013                     _SSPBUF	set	19
   539  0014                     _SSPCON	set	20
   540  0009                     _PORTEbits	set	9
   541  001E                     _ADRESH	set	30
   542  001F                     _ADCON0bits	set	31
   543  001F                     _ADCON0	set	31
   544  0008                     _PORTD	set	8
   545  0005                     _PORTAbits	set	5
   546  0006                     _PORTBbits	set	6
   547  0063                     _SSPIF	set	99
   548  005E                     _PEIE	set	94
   549  0085                     _T1CKPS1	set	133
   550  0084                     _T1CKPS0	set	132
   551  0081                     _TMR1CS	set	129
   552  005F                     _GIE	set	95
   553  005C                     _INTE	set	92
   554  0060                     _TMR1IF	set	96
   555  0059                     _INTF	set	89
   556  0035                     _RB5	set	53
   557  0037                     _RB7	set	55
   558  0080                     _TMR1ON	set	128
   559  003D                     _RC5	set	61
   560  003A                     _RC2	set	58
   561  0094                     _SSPSTAT	set	148
   562  0093                     _SSPADD	set	147
   563  0091                     _SSPCON2	set	145
   564  009E                     _ADRESL	set	158
   565  009F                     _ADCON1	set	159
   566  0088                     _TRISD	set	136
   567  0085                     _TRISA	set	133
   568  048C                     _ACKEN	set	1164
   569  048D                     _ACKDT	set	1165
   570  048B                     _RCEN	set	1163
   571  048E                     _ACKSTAT	set	1166
   572  048A                     _PEN	set	1162
   573  0489                     _RSEN	set	1161
   574  0488                     _SEN	set	1160
   575  043C                     _TRISC4	set	1084
   576  043B                     _TRISC3	set	1083
   577  0460                     _TMR1IE	set	1120
   578  040E                     _INTEDG	set	1038
   579  0435                     _TRISB5	set	1077
   580  0434                     _TRISB4	set	1076
   581  0433                     _TRISB3	set	1075
   582  0437                     _TRISB7	set	1079
   583  043A                     _TRISC2	set	1082
   584  043D                     _TRISC5	set	1085
   585                           
   586                           	psect	cinit
   587  0015                     start_initialization:	
   588                           ; #config settings
   589                           
   590  0015                     __initialization:
   591                           
   592                           ; Initialize objects allocated to BANK0
   593  0015  1383               	bcf	3,7	;select IRP bank0
   594  0016  305D               	movlw	low (__pdataBANK0+14)
   595  0017  00FD               	movwf	btemp+-1
   596  0018  300F               	movlw	high __pidataBANK0
   597  0019  00FE               	movwf	btemp
   598  001A  30F2               	movlw	low __pidataBANK0
   599  001B  00FF               	movwf	btemp+1
   600  001C  304F               	movlw	low __pdataBANK0
   601  001D  0084               	movwf	4
   602  001E  120A  118A  27DE  120A  118A  	fcall	init_ram0
   603                           
   604                           ; Clear objects allocated to BANK0
   605  0023  01C0               	clrf	__pbssBANK0& (0+127)
   606  0024  01C1               	clrf	(__pbssBANK0+1)& (0+127)
   607  0025  01C2               	clrf	(__pbssBANK0+2)& (0+127)
   608  0026  01C3               	clrf	(__pbssBANK0+3)& (0+127)
   609  0027  01C4               	clrf	(__pbssBANK0+4)& (0+127)
   610  0028  01C5               	clrf	(__pbssBANK0+5)& (0+127)
   611  0029  01C6               	clrf	(__pbssBANK0+6)& (0+127)
   612  002A  01C7               	clrf	(__pbssBANK0+7)& (0+127)
   613  002B  01C8               	clrf	(__pbssBANK0+8)& (0+127)
   614  002C  01C9               	clrf	(__pbssBANK0+9)& (0+127)
   615  002D  01CA               	clrf	(__pbssBANK0+10)& (0+127)
   616  002E  01CB               	clrf	(__pbssBANK0+11)& (0+127)
   617  002F  01CC               	clrf	(__pbssBANK0+12)& (0+127)
   618  0030  01CD               	clrf	(__pbssBANK0+13)& (0+127)
   619  0031  01CE               	clrf	(__pbssBANK0+14)& (0+127)
   620  0032                     end_of_initialization:	
   621                           ;End of C runtime variable initialization code
   622                           
   623  0032                     __end_of__initialization:
   624  0032  0183               	clrf	3
   625  0033  120A  118A  2957   	ljmp	_main	;jump to C main() function
   626                           
   627                           	psect	bssBANK0
   628  0040                     __pbssBANK0:
   629  0040                     _accumilated_tmeperature:
   630  0040                     	ds	2
   631  0042                     _TEMPRETURE:
   632  0042                     	ds	2
   633  0044                     flashDisplay@count:
   634  0044                     	ds	1
   635  0045                     _ReadTemp:
   636  0045                     	ds	1
   637  0046                     _timer1counter:
   638  0046                     	ds	1
   639  0047                     _Number_Tempreture:
   640  0047                     	ds	1
   641  0048                     _temp_state:
   642  0048                     	ds	1
   643  0049                     _str:
   644  0049                     	ds	6
   645                           
   646                           	psect	dataBANK0
   647  004F                     __pdataBANK0:
   648  004F                     _segments_code:
   649  004F                     	ds	10
   650  0059                     _TargetTempreture:
   651  0059                     	ds	2
   652  005B                     flashDisplay@prev_status:
   653  005B                     	ds	1
   654  005C                     _canuse:
   655  005C                     	ds	1
   656                           
   657                           	psect	inittext
   658  07DA                     init_fetch0:	
   659                           ;	Called with low address in FSR and high address in W
   660                           
   661  07DA  087E               	movf	btemp,w
   662  07DB  008A               	movwf	10
   663  07DC  087F               	movf	btemp+1,w
   664  07DD  0082               	movwf	2
   665  07DE                     init_ram0:	
   666                           ;Called with:
   667                           ;	high address of idata address in btemp 
   668                           ;	low address of idata address in btemp+1 
   669                           ;	low address of data in FSR
   670                           ;	high address + 1 of data in btemp-1
   671                           
   672  07DE  120A  118A  27DA  120A  118A  	fcall	init_fetch0
   673  07E3  0080               	movwf	0
   674  07E4  0A84               	incf	4,f
   675  07E5  0804               	movf	4,w
   676  07E6  067D               	xorwf	btemp+-1,w
   677  07E7  1903               	btfsc	3,2
   678  07E8  3400               	retlw	0
   679  07E9  0AFF               	incf	btemp+1,f
   680  07EA  1903               	btfsc	3,2
   681  07EB  0AFE               	incf	btemp,f
   682  07EC  2FDE               	goto	init_ram0
   683                           
   684                           	psect	cstackBANK1
   685  00A0                     __pcstackBANK1:
   686  00A0                     ?_I2C_Master_Init:
   687  00A0                     flashDisplay@i:	
   688                           ; 1 bytes @ 0x0
   689                           
   690  00A0                     I2C_Master_Init@baud:	
   691                           ; 2 bytes @ 0x0
   692                           
   693                           
   694                           ; 4 bytes @ 0x0
   695  00A0                     	ds	2
   696  00A2                     flashDisplay@i_183:
   697                           
   698                           ; 2 bytes @ 0x2
   699  00A2                     	ds	2
   700  00A4                     ??_I2C_Master_Init:
   701                           
   702                           ; 1 bytes @ 0x4
   703  00A4                     	ds	4
   704  00A8                     ??_main:
   705                           
   706                           ; 1 bytes @ 0x8
   707  00A8                     	ds	3
   708                           
   709                           	psect	cstackCOMMON
   710  0070                     __pcstackCOMMON:
   711  0070                     ?_displayDeiredTempreture:
   712  0070                     ?_displayTempreture:	
   713                           ; 1 bytes @ 0x0
   714                           
   715  0070                     ?_TIMER1_init:	
   716                           ; 1 bytes @ 0x0
   717                           
   718  0070                     ?_IRQ_RB0_init:	
   719                           ; 1 bytes @ 0x0
   720                           
   721  0070                     ?_adc_init:	
   722                           ; 1 bytes @ 0x0
   723                           
   724  0070                     ?_lcd_writeNumber:	
   725                           ; 1 bytes @ 0x0
   726                           
   727  0070                     ?_off_state:	
   728                           ; 1 bytes @ 0x0
   729                           
   730  0070                     ?_flashDisplay:	
   731                           ; 1 bytes @ 0x0
   732                           
   733  0070                     ?_changeStatus:	
   734                           ; 1 bytes @ 0x0
   735                           
   736  0070                     ?_heaterOn:	
   737                           ; 1 bytes @ 0x0
   738                           
   739  0070                     ?_coolerOn:	
   740                           ; 1 bytes @ 0x0
   741                           
   742  0070                     ?_on_state:	
   743                           ; 1 bytes @ 0x0
   744                           
   745  0070                     ?_setting_state:	
   746                           ; 1 bytes @ 0x0
   747                           
   748  0070                     ?_main:	
   749                           ; 1 bytes @ 0x0
   750                           
   751  0070                     ?_update_tempreture:	
   752                           ; 1 bytes @ 0x0
   753                           
   754  0070                     ?_ISR:	
   755                           ; 1 bytes @ 0x0
   756                           
   757  0070                     ?_I2C_Master_Wait:	
   758                           ; 1 bytes @ 0x0
   759                           
   760  0070                     ?_I2C_Master_Start:	
   761                           ; 1 bytes @ 0x0
   762                           
   763  0070                     ?_I2C_Master_RepeatedStart:	
   764                           ; 1 bytes @ 0x0
   765                           
   766  0070                     ?_I2C_Master_Stop:	
   767                           ; 1 bytes @ 0x0
   768                           
   769  0070                     ?_I2C_Master_Write:	
   770                           ; 1 bytes @ 0x0
   771                           
   772  0070                     ?_I2C_Read_Byte:	
   773                           ; 1 bytes @ 0x0
   774                           
   775  0070                     ?_I2C_NACK:	
   776                           ; 1 bytes @ 0x0
   777                           
   778  0070                     ?_adc_amostra:	
   779                           ; 1 bytes @ 0x0
   780                           
   781  0070                     ?i1___lwmod:	
   782                           ; 2 bytes @ 0x0
   783                           
   784  0070                     i1___lwmod@divisor:	
   785                           ; 2 bytes @ 0x0
   786                           
   787                           
   788                           ; 2 bytes @ 0x0
   789  0070                     	ds	2
   790  0072                     ??_adc_amostra:
   791  0072                     i1___lwmod@dividend:	
   792                           ; 1 bytes @ 0x2
   793                           
   794                           
   795                           ; 2 bytes @ 0x2
   796  0072                     	ds	2
   797  0074                     ??i1___lwmod:
   798  0074                     i1___lwmod@counter:	
   799                           ; 1 bytes @ 0x4
   800                           
   801                           
   802                           ; 1 bytes @ 0x4
   803  0074                     	ds	1
   804  0075                     ?i1___lwdiv:
   805  0075                     i1___lwdiv@divisor:	
   806                           ; 2 bytes @ 0x5
   807                           
   808                           
   809                           ; 2 bytes @ 0x5
   810  0075                     	ds	2
   811  0077                     i1___lwdiv@dividend:
   812                           
   813                           ; 2 bytes @ 0x7
   814  0077                     	ds	2
   815  0079                     ??i1___lwdiv:
   816  0079                     adc_amostra@canal:	
   817                           ; 1 bytes @ 0x9
   818                           
   819  0079                     i1___lwdiv@quotient:	
   820                           ; 1 bytes @ 0x9
   821                           
   822                           
   823                           ; 2 bytes @ 0x9
   824  0079                     	ds	1
   825  007A                     ?___wmul:
   826  007A                     ___wmul@multiplier:	
   827                           ; 2 bytes @ 0xA
   828                           
   829                           
   830                           ; 2 bytes @ 0xA
   831  007A                     	ds	1
   832  007B                     i1___lwdiv@counter:
   833                           
   834                           ; 1 bytes @ 0xB
   835  007B                     	ds	1
   836  007C                     ??_itoa:
   837  007C                     ___wmul@multiplicand:	
   838                           ; 1 bytes @ 0xC
   839                           
   840                           
   841                           ; 2 bytes @ 0xC
   842  007C                     	ds	2
   843  007E                     ??___wmul:
   844                           
   845                           	psect	cstackBANK0
   846  0020                     __pcstackBANK0:	
   847                           ; 1 bytes @ 0xE
   848                           
   849  0020                     ?_itoa:
   850  0020                     itoa@val:	
   851                           ; 1 bytes @ 0x0
   852                           
   853  0020                     ___wmul@product:	
   854                           ; 2 bytes @ 0x0
   855                           
   856                           
   857                           ; 2 bytes @ 0x0
   858  0020                     	ds	2
   859  0022                     itoa@str:
   860                           
   861                           ; 1 bytes @ 0x2
   862  0022                     	ds	1
   863  0023                     ??_update_tempreture:
   864                           
   865                           ; 1 bytes @ 0x3
   866  0023                     	ds	4
   867  0027                     update_tempreture@temp:
   868                           
   869                           ; 2 bytes @ 0x7
   870  0027                     	ds	2
   871  0029                     update_tempreture@y:
   872                           
   873                           ; 1 bytes @ 0x9
   874  0029                     	ds	1
   875  002A                     update_tempreture@x:
   876                           
   877                           ; 1 bytes @ 0xA
   878  002A                     	ds	1
   879  002B                     ??_ISR:
   880                           
   881                           ; 1 bytes @ 0xB
   882  002B                     	ds	6
   883  0031                     ??_TIMER1_init:
   884  0031                     ??_IRQ_RB0_init:	
   885                           ; 1 bytes @ 0x11
   886                           
   887  0031                     ??_adc_init:	
   888                           ; 1 bytes @ 0x11
   889                           
   890  0031                     ??_lcd_writeNumber:	
   891                           ; 1 bytes @ 0x11
   892                           
   893  0031                     ??_off_state:	
   894                           ; 1 bytes @ 0x11
   895                           
   896  0031                     ??_changeStatus:	
   897                           ; 1 bytes @ 0x11
   898                           
   899  0031                     ??_heaterOn:	
   900                           ; 1 bytes @ 0x11
   901                           
   902  0031                     ??_coolerOn:	
   903                           ; 1 bytes @ 0x11
   904                           
   905  0031                     ??_I2C_Master_Wait:	
   906                           ; 1 bytes @ 0x11
   907                           
   908  0031                     ??_I2C_Master_Start:	
   909                           ; 1 bytes @ 0x11
   910                           
   911  0031                     ??_I2C_Master_RepeatedStart:	
   912                           ; 1 bytes @ 0x11
   913                           
   914  0031                     ??_I2C_Master_Stop:	
   915                           ; 1 bytes @ 0x11
   916                           
   917  0031                     ??_I2C_Master_Write:	
   918                           ; 1 bytes @ 0x11
   919                           
   920  0031                     ??_I2C_Read_Byte:	
   921                           ; 1 bytes @ 0x11
   922                           
   923  0031                     ??_I2C_NACK:	
   924                           ; 1 bytes @ 0x11
   925                           
   926  0031                     ?___awdiv:	
   927                           ; 1 bytes @ 0x11
   928                           
   929  0031                     ?___awmod:	
   930                           ; 2 bytes @ 0x11
   931                           
   932  0031                     ?___lwdiv:	
   933                           ; 2 bytes @ 0x11
   934                           
   935  0031                     ?___lwmod:	
   936                           ; 2 bytes @ 0x11
   937                           
   938  0031                     ?___lldiv:	
   939                           ; 2 bytes @ 0x11
   940                           
   941  0031                     lcd_writeNumber@code:	
   942                           ; 4 bytes @ 0x11
   943                           
   944  0031                     I2C_Master_Write@data:	
   945                           ; 1 bytes @ 0x11
   946                           
   947  0031                     ___awdiv@divisor:	
   948                           ; 1 bytes @ 0x11
   949                           
   950  0031                     ___awmod@divisor:	
   951                           ; 2 bytes @ 0x11
   952                           
   953  0031                     ___lwdiv@divisor:	
   954                           ; 2 bytes @ 0x11
   955                           
   956  0031                     ___lwmod@divisor:	
   957                           ; 2 bytes @ 0x11
   958                           
   959  0031                     ___lldiv@divisor:	
   960                           ; 2 bytes @ 0x11
   961                           
   962                           
   963                           ; 4 bytes @ 0x11
   964  0031                     	ds	1
   965  0032                     ?_EEPROM_Write:
   966  0032                     ?_EEPROM_Read:	
   967                           ; 1 bytes @ 0x12
   968                           
   969  0032                     lcd_writeNumber@number:	
   970                           ; 1 bytes @ 0x12
   971                           
   972  0032                     EEPROM_Write@data:	
   973                           ; 1 bytes @ 0x12
   974                           
   975  0032                     EEPROM_Read@add:	
   976                           ; 1 bytes @ 0x12
   977                           
   978                           
   979                           ; 2 bytes @ 0x12
   980  0032                     	ds	1
   981  0033                     ??_EEPROM_Write:
   982  0033                     EEPROM_Write@add:	
   983                           ; 1 bytes @ 0x13
   984                           
   985  0033                     ___awdiv@dividend:	
   986                           ; 1 bytes @ 0x13
   987                           
   988  0033                     ___awmod@dividend:	
   989                           ; 2 bytes @ 0x13
   990                           
   991  0033                     ___lwdiv@dividend:	
   992                           ; 2 bytes @ 0x13
   993                           
   994  0033                     ___lwmod@dividend:	
   995                           ; 2 bytes @ 0x13
   996                           
   997                           
   998                           ; 2 bytes @ 0x13
   999  0033                     	ds	1
  1000  0034                     ??_EEPROM_Read:
  1001  0034                     EEPROM_Read@Data:	
  1002                           ; 1 bytes @ 0x14
  1003                           
  1004                           
  1005                           ; 1 bytes @ 0x14
  1006  0034                     	ds	1
  1007  0035                     ??___awdiv:
  1008  0035                     ??___awmod:	
  1009                           ; 1 bytes @ 0x15
  1010                           
  1011  0035                     ??___lwdiv:	
  1012                           ; 1 bytes @ 0x15
  1013                           
  1014  0035                     ??___lwmod:	
  1015                           ; 1 bytes @ 0x15
  1016                           
  1017  0035                     ___awdiv@counter:	
  1018                           ; 1 bytes @ 0x15
  1019                           
  1020  0035                     ___awmod@counter:	
  1021                           ; 1 bytes @ 0x15
  1022                           
  1023  0035                     ___lwmod@counter:	
  1024                           ; 1 bytes @ 0x15
  1025                           
  1026  0035                     ___lwdiv@quotient:	
  1027                           ; 1 bytes @ 0x15
  1028                           
  1029  0035                     ___lldiv@dividend:	
  1030                           ; 2 bytes @ 0x15
  1031                           
  1032                           
  1033                           ; 4 bytes @ 0x15
  1034  0035                     	ds	1
  1035  0036                     ___awdiv@sign:
  1036  0036                     ___awmod@sign:	
  1037                           ; 1 bytes @ 0x16
  1038                           
  1039                           
  1040                           ; 1 bytes @ 0x16
  1041  0036                     	ds	1
  1042  0037                     ___lwdiv@counter:
  1043  0037                     ___awdiv@quotient:	
  1044                           ; 1 bytes @ 0x17
  1045                           
  1046                           
  1047                           ; 2 bytes @ 0x17
  1048  0037                     	ds	1
  1049  0038                     ??_displayTempreture:
  1050                           
  1051                           ; 1 bytes @ 0x18
  1052  0038                     	ds	1
  1053  0039                     ??_displayDeiredTempreture:
  1054  0039                     ??___lldiv:	
  1055                           ; 1 bytes @ 0x19
  1056                           
  1057                           
  1058                           ; 1 bytes @ 0x19
  1059  0039                     	ds	1
  1060  003A                     displayTempreture@low:
  1061  003A                     ___lldiv@quotient:	
  1062                           ; 1 bytes @ 0x1A
  1063                           
  1064                           
  1065                           ; 4 bytes @ 0x1A
  1066  003A                     	ds	1
  1067  003B                     displayTempreture@high:
  1068  003B                     displayDeiredTempreture@low:	
  1069                           ; 1 bytes @ 0x1B
  1070                           
  1071                           
  1072                           ; 1 bytes @ 0x1B
  1073  003B                     	ds	1
  1074  003C                     ??_on_state:
  1075  003C                     displayDeiredTempreture@high:	
  1076                           ; 1 bytes @ 0x1C
  1077                           
  1078                           
  1079                           ; 1 bytes @ 0x1C
  1080  003C                     	ds	1
  1081  003D                     ??_flashDisplay:
  1082                           
  1083                           ; 1 bytes @ 0x1D
  1084  003D                     	ds	1
  1085  003E                     ___lldiv@counter:
  1086                           
  1087                           ; 1 bytes @ 0x1E
  1088  003E                     	ds	1
  1089  003F                     ??_setting_state:
  1090  003F                     main@flag:	
  1091                           ; 1 bytes @ 0x1F
  1092                           
  1093                           
  1094                           ; 1 bytes @ 0x1F
  1095  003F                     	ds	1
  1096                           
  1097                           	psect	maintext
  1098  0157                     __pmaintext:	
  1099 ;;
  1100 ;;Main: autosize = 0, tempsize = 3, incstack = 0, save=0
  1101 ;;
  1102 ;; *************** function _main *****************
  1103 ;; Defined at:
  1104 ;;		line 202 in file "main.c"
  1105 ;; Parameters:    Size  Location     Type
  1106 ;;		None
  1107 ;; Auto vars:     Size  Location     Type
  1108 ;;  flag            1   31[BANK0 ] unsigned char 
  1109 ;; Return value:  Size  Location     Type
  1110 ;;                  1    wreg      void 
  1111 ;; Registers used:
  1112 ;;		wreg, fsr0l, fsr0h, status,2, status,0, btemp+1, pclath, cstack
  1113 ;; Tracked objects:
  1114 ;;		On entry : B00/0
  1115 ;;		On exit  : 0/0
  1116 ;;		Unchanged: 0/0
  1117 ;; Data sizes:     COMMON   BANK0   BANK1   BANK3   BANK2
  1118 ;;      Params:         0       0       0       0       0
  1119 ;;      Locals:         0       1       0       0       0
  1120 ;;      Temps:          0       0       3       0       0
  1121 ;;      Totals:         0       1       3       0       0
  1122 ;;Total ram usage:        4 bytes
  1123 ;; Hardware stack levels required when called:    9
  1124 ;; This function calls:
  1125 ;;		_EEPROM_Read
  1126 ;;		_EEPROM_Write
  1127 ;;		_I2C_Master_Init
  1128 ;;		_IRQ_RB0_init
  1129 ;;		_TIMER1_init
  1130 ;;		_adc_init
  1131 ;;		_off_state
  1132 ;;		_on_state
  1133 ;;		_setting_state
  1134 ;; This function is called by:
  1135 ;;		Startup code after reset
  1136 ;; This function uses a non-reentrant model
  1137 ;;
  1138                           
  1139                           
  1140                           ;psect for function _main
  1141  0157                     _main:
  1142  0157                     l2855:	
  1143                           ;incstack = 0
  1144 ;; hardware stack exceeded
  1145                           ; Regs used in _main: [wreg-fsr0h+status,2+status,0+btemp+1+pclath+cstack]
  1146                           
  1147                           
  1148                           ;main.c: 204:     TIMER1_init ();
  1149  0157  120A  118A  27ED  120A  118A  	fcall	_TIMER1_init
  1150                           
  1151                           ;main.c: 205:     IRQ_RB0_init ();
  1152  015C  120A  158A  27A4  120A  118A  	fcall	_IRQ_RB0_init
  1153  0161                     l2857:
  1154                           
  1155                           ;main.c: 206:     I2C_Master_Init(100000);
  1156  0161  3000               	movlw	0
  1157  0162  1683               	bsf	3,5	;RP0=1, select bank1
  1158  0163  1303               	bcf	3,6	;RP1=0, select bank1
  1159  0164  00A3               	movwf	(I2C_Master_Init@baud+3)^(0+128)
  1160  0165  3001               	movlw	1
  1161  0166  00A2               	movwf	(I2C_Master_Init@baud+2)^(0+128)
  1162  0167  3086               	movlw	134
  1163  0168  00A1               	movwf	(I2C_Master_Init@baud+1)^(0+128)
  1164  0169  30A0               	movlw	160
  1165  016A  00A0               	movwf	I2C_Master_Init@baud^(0+128)
  1166  016B  120A  118A  2597  120A  118A  	fcall	_I2C_Master_Init
  1167  0170                     l2859:
  1168                           
  1169                           ;main.c: 209:     TRISA = 0x07;
  1170  0170  3007               	movlw	7
  1171  0171  1683               	bsf	3,5	;RP0=1, select bank1
  1172  0172  1303               	bcf	3,6	;RP1=0, select bank1
  1173  0173  0085               	movwf	5	;volatile
  1174  0174                     l2861:
  1175                           
  1176                           ;main.c: 211:     TRISD = 0x00;
  1177  0174  0188               	clrf	8	;volatile
  1178  0175                     l2863:
  1179                           
  1180                           ;main.c: 213:     PORTD = 0x00;
  1181  0175  1283               	bcf	3,5	;RP0=0, select bank0
  1182  0176  1303               	bcf	3,6	;RP1=0, select bank0
  1183  0177  0188               	clrf	8	;volatile
  1184  0178                     l2865:
  1185                           
  1186                           ;main.c: 215:     TRISC5 = 0;
  1187  0178  1683               	bsf	3,5	;RP0=1, select bank1
  1188  0179  1303               	bcf	3,6	;RP1=0, select bank1
  1189  017A  1287               	bcf	7,5	;volatile
  1190  017B                     l2867:
  1191                           
  1192                           ;main.c: 216:     TRISC2 = 0;
  1193  017B  1107               	bcf	7,2	;volatile
  1194  017C                     l2869:
  1195                           
  1196                           ;main.c: 217:     RC2 = 0;
  1197  017C  1283               	bcf	3,5	;RP0=0, select bank0
  1198  017D  1303               	bcf	3,6	;RP1=0, select bank0
  1199  017E  1107               	bcf	7,2	;volatile
  1200  017F                     l2871:
  1201                           
  1202                           ;main.c: 218:     RC5 = 0;
  1203  017F  1287               	bcf	7,5	;volatile
  1204  0180                     l2873:
  1205                           
  1206                           ;main.c: 219:     TRISB7 = 0;
  1207  0180  1683               	bsf	3,5	;RP0=1, select bank1
  1208  0181  1303               	bcf	3,6	;RP1=0, select bank1
  1209  0182  1386               	bcf	6,7	;volatile
  1210  0183                     l2875:
  1211                           
  1212                           ;main.c: 220:     TRISB3 = 1;
  1213  0183  1586               	bsf	6,3	;volatile
  1214  0184                     l2877:
  1215                           
  1216                           ;main.c: 221:     TRISB4 = 1;
  1217  0184  1606               	bsf	6,4	;volatile
  1218  0185                     l2879:
  1219                           
  1220                           ;main.c: 222:     RB7 =0;
  1221  0185  1283               	bcf	3,5	;RP0=0, select bank0
  1222  0186  1303               	bcf	3,6	;RP1=0, select bank0
  1223  0187  1386               	bcf	6,7	;volatile
  1224  0188                     l2881:
  1225                           
  1226                           ;main.c: 223:     TRISB5 = 0;
  1227  0188  1683               	bsf	3,5	;RP0=1, select bank1
  1228  0189  1303               	bcf	3,6	;RP1=0, select bank1
  1229  018A  1286               	bcf	6,5	;volatile
  1230  018B                     l2883:
  1231                           
  1232                           ;main.c: 224:     RB5 =0;
  1233  018B  1283               	bcf	3,5	;RP0=0, select bank0
  1234  018C  1303               	bcf	3,6	;RP1=0, select bank0
  1235  018D  1286               	bcf	6,5	;volatile
  1236  018E                     l2885:
  1237                           
  1238                           ;main.c: 225:     Number_Tempreture=0;
  1239  018E  01C7               	clrf	_Number_Tempreture
  1240  018F                     l2887:
  1241                           
  1242                           ;main.c: 226:     adc_init();
  1243  018F  120A  158A  27BC  120A  118A  	fcall	_adc_init
  1244  0194                     l2889:
  1245                           
  1246                           ;main.c: 227:     state=OFF_STATE;
  1247  0194  1283               	bcf	3,5	;RP0=0, select bank0
  1248  0195  1303               	bcf	3,6	;RP1=0, select bank0
  1249  0196  01DD               	clrf	_state
  1250  0197  0ADD               	incf	_state,f
  1251  0198                     l2891:
  1252                           
  1253                           ;main.c: 228:     temp_state=OK_state;
  1254  0198  01C8               	clrf	_temp_state
  1255  0199                     l2893:
  1256                           
  1257                           ;main.c: 229:     ReadTemp=0;
  1258  0199  01C5               	clrf	_ReadTemp
  1259  019A                     l2895:
  1260                           
  1261                           ;main.c: 230:     timer1counter=0;
  1262  019A  01C6               	clrf	_timer1counter
  1263  019B                     l2897:
  1264                           
  1265                           ;main.c: 231:     accumilated_tmeperature=0;
  1266  019B  01C0               	clrf	_accumilated_tmeperature
  1267  019C  01C1               	clrf	_accumilated_tmeperature+1
  1268  019D                     l2899:
  1269                           
  1270                           ;main.c: 232:     TargetTempreture = 60;
  1271  019D  303C               	movlw	60
  1272  019E  00D9               	movwf	_TargetTempreture
  1273  019F  3000               	movlw	0
  1274  01A0  00DA               	movwf	_TargetTempreture+1
  1275  01A1                     l2901:
  1276                           
  1277                           ;main.c: 233:     unsigned char flag=EEPROM_Read(0x01);
  1278  01A1  3001               	movlw	1
  1279  01A2  00B2               	movwf	EEPROM_Read@add
  1280  01A3  3000               	movlw	0
  1281  01A4  00B3               	movwf	EEPROM_Read@add+1
  1282  01A5  120A  118A  26D4  120A  118A  	fcall	_EEPROM_Read
  1283  01AA  00FF               	movwf	btemp+1
  1284  01AB  087F               	movf	btemp+1,w
  1285  01AC  1283               	bcf	3,5	;RP0=0, select bank0
  1286  01AD  1303               	bcf	3,6	;RP1=0, select bank0
  1287  01AE  00BF               	movwf	main@flag
  1288  01AF                     l2903:
  1289                           
  1290                           ;main.c: 234:     _delay((unsigned long)((500)*(8000000/4000.0)));
  1291  01AF  3006               	movlw	6
  1292  01B0  1683               	bsf	3,5	;RP0=1, select bank1
  1293  01B1  1303               	bcf	3,6	;RP1=0, select bank1
  1294  01B2  00AA               	movwf	(??_main^(0+128)+2)
  1295  01B3  3013               	movlw	19
  1296  01B4  00A9               	movwf	(??_main^(0+128)+1)
  1297  01B5  30AD               	movlw	173
  1298  01B6  00A8               	movwf	??_main^(0+128)
  1299  01B7                     u2467:
  1300  01B7  0BA8               	decfsz	??_main^(0+128),f
  1301  01B8  29B7               	goto	u2467
  1302  01B9  0BA9               	decfsz	(??_main^(0+128)+1),f
  1303  01BA  29B7               	goto	u2467
  1304  01BB  0BAA               	decfsz	(??_main^(0+128)+2),f
  1305  01BC  29B7               	goto	u2467
  1306  01BD                     l2905:
  1307                           
  1308                           ;main.c: 235:     if(flag==1)
  1309  01BD  1283               	bcf	3,5	;RP0=0, select bank0
  1310  01BE  1303               	bcf	3,6	;RP1=0, select bank0
  1311  01BF  033F               	decf	main@flag,w
  1312  01C0  1D03               	btfss	3,2
  1313  01C1  29C3               	goto	u2411
  1314  01C2  29C4               	goto	u2410
  1315  01C3                     u2411:
  1316  01C3  29DB               	goto	l2909
  1317  01C4                     u2410:
  1318  01C4                     l2907:
  1319                           
  1320                           ;main.c: 236:     {;main.c: 237:         TargetTempreture=EEPROM_Read(0x00);
  1321  01C4  3000               	movlw	0
  1322  01C5  00B2               	movwf	EEPROM_Read@add
  1323  01C6  00B3               	movwf	EEPROM_Read@add+1
  1324  01C7  120A  118A  26D4  120A  118A  	fcall	_EEPROM_Read
  1325  01CC  1683               	bsf	3,5	;RP0=1, select bank1
  1326  01CD  1303               	bcf	3,6	;RP1=0, select bank1
  1327  01CE  00A8               	movwf	??_main^(0+128)
  1328  01CF  01A9               	clrf	(??_main^(0+128)+1)
  1329  01D0  0828               	movf	??_main^(0+128),w
  1330  01D1  1283               	bcf	3,5	;RP0=0, select bank0
  1331  01D2  1303               	bcf	3,6	;RP1=0, select bank0
  1332  01D3  00D9               	movwf	_TargetTempreture
  1333  01D4  1683               	bsf	3,5	;RP0=1, select bank1
  1334  01D5  1303               	bcf	3,6	;RP1=0, select bank1
  1335  01D6  0829               	movf	(??_main+1)^(0+128),w
  1336  01D7  1283               	bcf	3,5	;RP0=0, select bank0
  1337  01D8  1303               	bcf	3,6	;RP1=0, select bank0
  1338  01D9  00DA               	movwf	_TargetTempreture+1
  1339                           
  1340                           ;main.c: 238:     }
  1341  01DA  29FB               	goto	l2921
  1342  01DB                     l2909:
  1343                           
  1344                           ;main.c: 240:     {;main.c: 241:       EEPROM_Write(0x01,0x01);
  1345  01DB  01B2               	clrf	EEPROM_Write@data
  1346  01DC  0AB2               	incf	EEPROM_Write@data,f
  1347  01DD  3001               	movlw	1
  1348  01DE  120A  118A  273C  120A  118A  	fcall	_EEPROM_Write
  1349  01E3                     l2911:
  1350                           
  1351                           ;main.c: 242:       TargetTempreture=60;
  1352  01E3  303C               	movlw	60
  1353  01E4  1283               	bcf	3,5	;RP0=0, select bank0
  1354  01E5  1303               	bcf	3,6	;RP1=0, select bank0
  1355  01E6  00D9               	movwf	_TargetTempreture
  1356  01E7  3000               	movlw	0
  1357  01E8  00DA               	movwf	_TargetTempreture+1
  1358  01E9  29FB               	goto	l2921
  1359  01EA                     l2913:
  1360                           
  1361                           ;main.c: 250:             on_state();
  1362  01EA  120A  118A  2621  120A  118A  	fcall	_on_state
  1363                           
  1364                           ;main.c: 251:             break;
  1365  01EF  29FB               	goto	l2921
  1366  01F0                     l2915:
  1367                           
  1368                           ;main.c: 253:             off_state();
  1369  01F0  120A  158A  2795  120A  118A  	fcall	_off_state
  1370                           
  1371                           ;main.c: 254:             break;
  1372  01F5  29FB               	goto	l2921
  1373  01F6                     l2917:
  1374                           
  1375                           ;main.c: 256:             setting_state();
  1376  01F6  120A  158A  27CE  120A  118A  	fcall	_setting_state
  1377  01FB                     l2921:	
  1378                           ;main.c: 257:             break;
  1379                           
  1380  01FB  1283               	bcf	3,5	;RP0=0, select bank0
  1381  01FC  1303               	bcf	3,6	;RP1=0, select bank0
  1382  01FD  085D               	movf	_state,w
  1383  01FE  1683               	bsf	3,5	;RP0=1, select bank1
  1384  01FF  1303               	bcf	3,6	;RP1=0, select bank1
  1385  0200  00A8               	movwf	??_main^(0+128)
  1386  0201  01A9               	clrf	(??_main^(0+128)+1)
  1387                           
  1388                           ; Switch on 2 bytes has been partitioned into a top level switch of size 1, and 1 sub-sw
      +                          itches
  1389                           ; Switch size 1, requested type "simple"
  1390                           ; Number of cases is 1, Range of values is 0 to 0
  1391                           ; switch strategies available:
  1392                           ; Name         Instructions Cycles
  1393                           ; simple_byte            4     3 (average)
  1394                           ; direct_byte           11     8 (fixed)
  1395                           ; jumptable            260     6 (fixed)
  1396                           ;	Chosen strategy is simple_byte
  1397  0202  0829               	movf	(??_main+1)^(0+128),w
  1398  0203  3A00               	xorlw	0	; case 0
  1399  0204  1903               	skipnz
  1400  0205  2A07               	goto	l3063
  1401  0206  29FB               	goto	l2921
  1402  0207                     l3063:
  1403                           
  1404                           ; Switch size 1, requested type "simple"
  1405                           ; Number of cases is 3, Range of values is 0 to 2
  1406                           ; switch strategies available:
  1407                           ; Name         Instructions Cycles
  1408                           ; simple_byte           10     6 (average)
  1409                           ; direct_byte           17     8 (fixed)
  1410                           ; jumptable            260     6 (fixed)
  1411                           ;	Chosen strategy is simple_byte
  1412  0207  0828               	movf	??_main^(0+128),w
  1413  0208  3A00               	xorlw	0	; case 0
  1414  0209  1903               	skipnz
  1415  020A  29EA               	goto	l2913
  1416  020B  3A01               	xorlw	1	; case 1
  1417  020C  1903               	skipnz
  1418  020D  29F0               	goto	l2915
  1419  020E  3A03               	xorlw	3	; case 2
  1420  020F  1903               	skipnz
  1421  0210  29F6               	goto	l2917
  1422  0211  29FB               	goto	l2921
  1423  0212  120A  118A  2812   	ljmp	start
  1424  0215                     __end_of_main:
  1425                           
  1426                           	psect	text1
  1427  0FCE                     __ptext1:	
  1428 ;; *************** function _setting_state *****************
  1429 ;; Defined at:
  1430 ;;		line 193 in file "main.c"
  1431 ;; Parameters:    Size  Location     Type
  1432 ;;		None
  1433 ;; Auto vars:     Size  Location     Type
  1434 ;;		None
  1435 ;; Return value:  Size  Location     Type
  1436 ;;                  1    wreg      void 
  1437 ;; Registers used:
  1438 ;;		wreg, fsr0l, fsr0h, status,2, status,0, btemp+1, pclath, cstack
  1439 ;; Tracked objects:
  1440 ;;		On entry : 0/0
  1441 ;;		On exit  : 0/0
  1442 ;;		Unchanged: 0/0
  1443 ;; Data sizes:     COMMON   BANK0   BANK1   BANK3   BANK2
  1444 ;;      Params:         0       0       0       0       0
  1445 ;;      Locals:         0       0       0       0       0
  1446 ;;      Temps:          0       0       0       0       0
  1447 ;;      Totals:         0       0       0       0       0
  1448 ;;Total ram usage:        0 bytes
  1449 ;; Hardware stack levels used:    1
  1450 ;; Hardware stack levels required when called:    8
  1451 ;; This function calls:
  1452 ;;		_flashDisplay
  1453 ;; This function is called by:
  1454 ;;		_main
  1455 ;; This function uses a non-reentrant model
  1456 ;;
  1457                           
  1458                           
  1459                           ;psect for function _setting_state
  1460  0FCE                     _setting_state:
  1461  0FCE                     l2821:	
  1462                           ;incstack = 0
  1463 ;; hardware stack exceeded
  1464                           ; Regs used in _setting_state: [wreg-fsr0h+status,2+status,0+btemp+1+pclath+cstack]
  1465                           
  1466                           
  1467                           ;main.c: 195:      TMR1ON = 0;
  1468  0FCE  1283               	bcf	3,5	;RP0=0, select bank0
  1469  0FCF  1303               	bcf	3,6	;RP1=0, select bank0
  1470  0FD0  1010               	bcf	16,0	;volatile
  1471                           
  1472                           ;main.c: 196:      RC2=0;
  1473  0FD1  1107               	bcf	7,2	;volatile
  1474                           
  1475                           ;main.c: 197:      RC5=0;
  1476  0FD2  1287               	bcf	7,5	;volatile
  1477  0FD3                     l2823:
  1478                           
  1479                           ;main.c: 198:      flashDisplay();
  1480  0FD3  120A  118A  2036  120A  158A  	fcall	_flashDisplay
  1481  0FD8                     l151:
  1482  0FD8  0008               	return
  1483  0FD9                     __end_of_setting_state:
  1484                           
  1485                           	psect	text2
  1486  0036                     __ptext2:	
  1487 ;; *************** function _flashDisplay *****************
  1488 ;; Defined at:
  1489 ;;		line 54 in file "main.c"
  1490 ;; Parameters:    Size  Location     Type
  1491 ;;		None
  1492 ;; Auto vars:     Size  Location     Type
  1493 ;;  i               2    2[BANK1 ] int 
  1494 ;;  i               2    0[BANK1 ] int 
  1495 ;; Return value:  Size  Location     Type
  1496 ;;                  1    wreg      void 
  1497 ;; Registers used:
  1498 ;;		wreg, fsr0l, fsr0h, status,2, status,0, btemp+1, pclath, cstack
  1499 ;; Tracked objects:
  1500 ;;		On entry : 0/0
  1501 ;;		On exit  : 0/0
  1502 ;;		Unchanged: 0/0
  1503 ;; Data sizes:     COMMON   BANK0   BANK1   BANK3   BANK2
  1504 ;;      Params:         0       0       0       0       0
  1505 ;;      Locals:         0       0       4       0       0
  1506 ;;      Temps:          0       2       0       0       0
  1507 ;;      Totals:         0       2       4       0       0
  1508 ;;Total ram usage:        6 bytes
  1509 ;; Hardware stack levels used:    1
  1510 ;; Hardware stack levels required when called:    7
  1511 ;; This function calls:
  1512 ;;		_EEPROM_Write
  1513 ;;		_displayDeiredTempreture
  1514 ;; This function is called by:
  1515 ;;		_setting_state
  1516 ;; This function uses a non-reentrant model
  1517 ;;
  1518                           
  1519                           
  1520                           ;psect for function _flashDisplay
  1521  0036                     _flashDisplay:
  1522  0036                     l2683:	
  1523                           ;incstack = 0
  1524 ;; hardware stack exceeded
  1525                           ; Regs used in _flashDisplay: [wreg-fsr0h+status,2+status,0+btemp+1+pclath+cstack]
  1526                           
  1527                           
  1528                           ;main.c: 56:     static unsigned char count=0;;main.c: 57:     static unsigned char prev
      +                          _status=PREV_STABLE;;main.c: 58:     if(PORTBbits.RB3&&PORTBbits.RB4)
  1529  0036  1283               	bcf	3,5	;RP0=0, select bank0
  1530  0037  1303               	bcf	3,6	;RP1=0, select bank0
  1531  0038  1D86               	btfss	6,3	;volatile
  1532  0039  283B               	goto	u2201
  1533  003A  283C               	goto	u2200
  1534  003B                     u2201:
  1535  003B  2859               	goto	l2699
  1536  003C                     u2200:
  1537  003C                     l2685:
  1538  003C  1E06               	btfss	6,4	;volatile
  1539  003D  283F               	goto	u2211
  1540  003E  2840               	goto	u2210
  1541  003F                     u2211:
  1542  003F  2859               	goto	l2699
  1543  0040                     u2210:
  1544  0040                     l2687:
  1545                           
  1546                           ;main.c: 59:     {;main.c: 60:         if(count==5)
  1547  0040  3005               	movlw	5
  1548  0041  0644               	xorwf	flashDisplay@count,w
  1549  0042  1D03               	btfss	3,2
  1550  0043  2845               	goto	u2221
  1551  0044  2846               	goto	u2220
  1552  0045                     u2221:
  1553  0045  2853               	goto	l109
  1554  0046                     u2220:
  1555  0046                     l2689:
  1556                           
  1557                           ;main.c: 61:         {;main.c: 62:             state=ON_STATE;
  1558  0046  01DD               	clrf	_state
  1559                           
  1560                           ;main.c: 63:             count=0;
  1561  0047  01C4               	clrf	flashDisplay@count
  1562  0048                     l2691:
  1563                           
  1564                           ;main.c: 64:             EEPROM_Write(0x00,TargetTempreture);
  1565  0048  0859               	movf	_TargetTempreture,w
  1566  0049  00FF               	movwf	btemp+1
  1567  004A  087F               	movf	btemp+1,w
  1568  004B  00B2               	movwf	EEPROM_Write@data
  1569  004C  3000               	movlw	0
  1570  004D  120A  118A  273C  120A  118A  	fcall	_EEPROM_Write
  1571  0052  2956               	goto	l110
  1572  0053                     l109:	
  1573                           ;main.c: 67:         else{
  1574                           
  1575                           
  1576                           ;main.c: 68:             prev_status=PREV_STABLE;
  1577  0053  01DB               	clrf	flashDisplay@prev_status
  1578  0054  0ADB               	incf	flashDisplay@prev_status,f
  1579  0055                     l2697:
  1580                           
  1581                           ;main.c: 69:             count++;
  1582  0055  3001               	movlw	1
  1583  0056  00FF               	movwf	btemp+1
  1584  0057  087F               	movf	btemp+1,w
  1585  0058  07C4               	addwf	flashDisplay@count,f
  1586  0059                     l2699:
  1587                           
  1588                           ;main.c: 73:    for(int i=0;i<25;i++)
  1589  0059  1683               	bsf	3,5	;RP0=1, select bank1
  1590  005A  1303               	bcf	3,6	;RP1=0, select bank1
  1591  005B  01A0               	clrf	flashDisplay@i^(0+128)
  1592  005C  01A1               	clrf	(flashDisplay@i+1)^(0+128)
  1593  005D                     l2705:
  1594                           
  1595                           ;main.c: 74:    {;main.c: 75:     displayDeiredTempreture();
  1596  005D  120A  118A  2459  120A  118A  	fcall	_displayDeiredTempreture
  1597  0062                     l2707:
  1598                           
  1599                           ;main.c: 76:     if(PORTBbits.RB3==0&&prev_status==PREV_STABLE)
  1600  0062  1283               	bcf	3,5	;RP0=0, select bank0
  1601  0063  1303               	bcf	3,6	;RP1=0, select bank0
  1602  0064  1986               	btfsc	6,3	;volatile
  1603  0065  2867               	goto	u2231
  1604  0066  2868               	goto	u2230
  1605  0067                     u2231:
  1606  0067  2890               	goto	l2717
  1607  0068                     u2230:
  1608  0068                     l2709:
  1609  0068  035B               	decf	flashDisplay@prev_status,w
  1610  0069  1D03               	btfss	3,2
  1611  006A  286C               	goto	u2241
  1612  006B  286D               	goto	u2240
  1613  006C                     u2241:
  1614  006C  2890               	goto	l2717
  1615  006D                     u2240:
  1616  006D                     l2711:
  1617                           
  1618                           ;main.c: 77:        {;main.c: 78:            if(TargetTempreture<75)
  1619  006D  085A               	movf	_TargetTempreture+1,w
  1620  006E  3A80               	xorlw	128
  1621  006F  00FF               	movwf	btemp+1
  1622  0070  3080               	movlw	128
  1623  0071  027F               	subwf	btemp+1,w
  1624  0072  1D03               	skipz
  1625  0073  2876               	goto	u2255
  1626  0074  304B               	movlw	75
  1627  0075  0259               	subwf	_TargetTempreture,w
  1628  0076                     u2255:
  1629  0076  1803               	skipnc
  1630  0077  2879               	goto	u2251
  1631  0078  287A               	goto	u2250
  1632  0079                     u2251:
  1633  0079  2890               	goto	l2717
  1634  007A                     u2250:
  1635  007A                     l2713:
  1636                           
  1637                           ;main.c: 79:            {;main.c: 80:                TargetTempreture += 5;
  1638  007A  3005               	movlw	5
  1639  007B  1283               	bcf	3,5	;RP0=0, select bank0
  1640  007C  1303               	bcf	3,6	;RP1=0, select bank0
  1641  007D  07D9               	addwf	_TargetTempreture,f
  1642  007E  1803               	skipnc
  1643  007F  0ADA               	incf	_TargetTempreture+1,f
  1644  0080  3000               	movlw	0
  1645  0081  07DA               	addwf	_TargetTempreture+1,f
  1646                           
  1647                           ;main.c: 81:            _delay((unsigned long)((10)*(8000000/4000.0)));
  1648  0082  301A               	movlw	26
  1649  0083  1283               	bcf	3,5	;RP0=0, select bank0
  1650  0084  1303               	bcf	3,6	;RP1=0, select bank0
  1651  0085  00BE               	movwf	??_flashDisplay+1
  1652  0086  30F7               	movlw	247
  1653  0087  00BD               	movwf	??_flashDisplay
  1654  0088                     u2477:
  1655  0088  0BBD               	decfsz	??_flashDisplay,f
  1656  0089  2888               	goto	u2477
  1657  008A  0BBE               	decfsz	??_flashDisplay+1,f
  1658  008B  2888               	goto	u2477
  1659  008C  288D               	nop2
  1660  008D                     l2715:
  1661                           
  1662                           ;main.c: 82:            prev_status=PREV_UN_STABLE;
  1663  008D  1283               	bcf	3,5	;RP0=0, select bank0
  1664  008E  1303               	bcf	3,6	;RP1=0, select bank0
  1665  008F  01DB               	clrf	flashDisplay@prev_status
  1666  0090                     l2717:
  1667                           
  1668                           ;main.c: 86:     if(PORTBbits.RB4==0&&prev_status==PREV_STABLE)
  1669  0090  1283               	bcf	3,5	;RP0=0, select bank0
  1670  0091  1303               	bcf	3,6	;RP1=0, select bank0
  1671  0092  1A06               	btfsc	6,4	;volatile
  1672  0093  2895               	goto	u2261
  1673  0094  2896               	goto	u2260
  1674  0095                     u2261:
  1675  0095  28BE               	goto	l2727
  1676  0096                     u2260:
  1677  0096                     l2719:
  1678  0096  035B               	decf	flashDisplay@prev_status,w
  1679  0097  1D03               	btfss	3,2
  1680  0098  289A               	goto	u2271
  1681  0099  289B               	goto	u2270
  1682  009A                     u2271:
  1683  009A  28BE               	goto	l2727
  1684  009B                     u2270:
  1685  009B                     l2721:
  1686                           
  1687                           ;main.c: 87:     {;main.c: 88:         if(TargetTempreture>35)
  1688  009B  085A               	movf	_TargetTempreture+1,w
  1689  009C  3A80               	xorlw	128
  1690  009D  00FF               	movwf	btemp+1
  1691  009E  3080               	movlw	128
  1692  009F  027F               	subwf	btemp+1,w
  1693  00A0  1D03               	skipz
  1694  00A1  28A4               	goto	u2285
  1695  00A2  3024               	movlw	36
  1696  00A3  0259               	subwf	_TargetTempreture,w
  1697  00A4                     u2285:
  1698  00A4  1C03               	skipc
  1699  00A5  28A7               	goto	u2281
  1700  00A6  28A8               	goto	u2280
  1701  00A7                     u2281:
  1702  00A7  28BE               	goto	l2727
  1703  00A8                     u2280:
  1704  00A8                     l2723:
  1705                           
  1706                           ;main.c: 89:         {;main.c: 90:          TargetTempreture -= 5;
  1707  00A8  30FB               	movlw	251
  1708  00A9  1283               	bcf	3,5	;RP0=0, select bank0
  1709  00AA  1303               	bcf	3,6	;RP1=0, select bank0
  1710  00AB  07D9               	addwf	_TargetTempreture,f
  1711  00AC  1803               	skipnc
  1712  00AD  0ADA               	incf	_TargetTempreture+1,f
  1713  00AE  30FF               	movlw	255
  1714  00AF  07DA               	addwf	_TargetTempreture+1,f
  1715                           
  1716                           ;main.c: 91:         _delay((unsigned long)((10)*(8000000/4000.0)));
  1717  00B0  301A               	movlw	26
  1718  00B1  1283               	bcf	3,5	;RP0=0, select bank0
  1719  00B2  1303               	bcf	3,6	;RP1=0, select bank0
  1720  00B3  00BE               	movwf	??_flashDisplay+1
  1721  00B4  30F7               	movlw	247
  1722  00B5  00BD               	movwf	??_flashDisplay
  1723  00B6                     u2487:
  1724  00B6  0BBD               	decfsz	??_flashDisplay,f
  1725  00B7  28B6               	goto	u2487
  1726  00B8  0BBE               	decfsz	??_flashDisplay+1,f
  1727  00B9  28B6               	goto	u2487
  1728  00BA  28BB               	nop2
  1729  00BB                     l2725:
  1730                           
  1731                           ;main.c: 92:          prev_status=PREV_UN_STABLE;
  1732  00BB  1283               	bcf	3,5	;RP0=0, select bank0
  1733  00BC  1303               	bcf	3,6	;RP1=0, select bank0
  1734  00BD  01DB               	clrf	flashDisplay@prev_status
  1735  00BE                     l2727:
  1736                           
  1737                           ;main.c: 98:    }
  1738  00BE  3001               	movlw	1
  1739  00BF  1683               	bsf	3,5	;RP0=1, select bank1
  1740  00C0  1303               	bcf	3,6	;RP1=0, select bank1
  1741  00C1  07A0               	addwf	flashDisplay@i^(0+128),f
  1742  00C2  1803               	skipnc
  1743  00C3  0AA1               	incf	(flashDisplay@i+1)^(0+128),f
  1744  00C4  3000               	movlw	0
  1745  00C5  07A1               	addwf	(flashDisplay@i+1)^(0+128),f
  1746  00C6                     l2729:
  1747  00C6  0821               	movf	(flashDisplay@i+1)^(0+128),w
  1748  00C7  3A80               	xorlw	128
  1749  00C8  00FF               	movwf	btemp+1
  1750  00C9  3080               	movlw	128
  1751  00CA  027F               	subwf	btemp+1,w
  1752  00CB  1D03               	skipz
  1753  00CC  28CF               	goto	u2295
  1754  00CD  3019               	movlw	25
  1755  00CE  0220               	subwf	flashDisplay@i^(0+128),w
  1756  00CF                     u2295:
  1757  00CF  1C03               	skipc
  1758  00D0  28D2               	goto	u2291
  1759  00D1  28D3               	goto	u2290
  1760  00D2                     u2291:
  1761  00D2  285D               	goto	l2705
  1762  00D3                     u2290:
  1763  00D3                     l113:
  1764                           
  1765                           ;main.c: 99:     PORTAbits.RA4=0;
  1766  00D3  1283               	bcf	3,5	;RP0=0, select bank0
  1767  00D4  1303               	bcf	3,6	;RP1=0, select bank0
  1768  00D5  1205               	bcf	5,4	;volatile
  1769                           
  1770                           ;main.c: 100:     PORTAbits.RA5=0;
  1771  00D6  1285               	bcf	5,5	;volatile
  1772  00D7                     l2731:
  1773                           
  1774                           ;main.c: 103:       for(int i=0;i<25;i++)
  1775  00D7  1683               	bsf	3,5	;RP0=1, select bank1
  1776  00D8  1303               	bcf	3,6	;RP1=0, select bank1
  1777  00D9  01A2               	clrf	flashDisplay@i_183^(0+128)
  1778  00DA  01A3               	clrf	(flashDisplay@i_183+1)^(0+128)
  1779  00DB                     l2737:
  1780                           
  1781                           ;main.c: 104:    {;main.c: 105:        _delay((unsigned long)((20)*(8000000/4000.0)));
  1782  00DB  3034               	movlw	52
  1783  00DC  1283               	bcf	3,5	;RP0=0, select bank0
  1784  00DD  1303               	bcf	3,6	;RP1=0, select bank0
  1785  00DE  00BE               	movwf	??_flashDisplay+1
  1786  00DF  30F1               	movlw	241
  1787  00E0  00BD               	movwf	??_flashDisplay
  1788  00E1                     u2497:
  1789  00E1  0BBD               	decfsz	??_flashDisplay,f
  1790  00E2  28E1               	goto	u2497
  1791  00E3  0BBE               	decfsz	??_flashDisplay+1,f
  1792  00E4  28E1               	goto	u2497
  1793  00E5                     l2739:
  1794                           
  1795                           ;main.c: 106:        if(PORTBbits.RB3==0&&prev_status==PREV_STABLE)
  1796  00E5  1283               	bcf	3,5	;RP0=0, select bank0
  1797  00E6  1303               	bcf	3,6	;RP1=0, select bank0
  1798  00E7  1986               	btfsc	6,3	;volatile
  1799  00E8  28EA               	goto	u2301
  1800  00E9  28EB               	goto	u2300
  1801  00EA                     u2301:
  1802  00EA  2913               	goto	l2749
  1803  00EB                     u2300:
  1804  00EB                     l2741:
  1805  00EB  035B               	decf	flashDisplay@prev_status,w
  1806  00EC  1D03               	btfss	3,2
  1807  00ED  28EF               	goto	u2311
  1808  00EE  28F0               	goto	u2310
  1809  00EF                     u2311:
  1810  00EF  2913               	goto	l2749
  1811  00F0                     u2310:
  1812  00F0                     l2743:
  1813                           
  1814                           ;main.c: 107:        {;main.c: 108:            if(TargetTempreture<75)
  1815  00F0  085A               	movf	_TargetTempreture+1,w
  1816  00F1  3A80               	xorlw	128
  1817  00F2  00FF               	movwf	btemp+1
  1818  00F3  3080               	movlw	128
  1819  00F4  027F               	subwf	btemp+1,w
  1820  00F5  1D03               	skipz
  1821  00F6  28F9               	goto	u2325
  1822  00F7  304B               	movlw	75
  1823  00F8  0259               	subwf	_TargetTempreture,w
  1824  00F9                     u2325:
  1825  00F9  1803               	skipnc
  1826  00FA  28FC               	goto	u2321
  1827  00FB  28FD               	goto	u2320
  1828  00FC                     u2321:
  1829  00FC  2913               	goto	l2749
  1830  00FD                     u2320:
  1831  00FD                     l2745:
  1832                           
  1833                           ;main.c: 109:            {;main.c: 110:                TargetTempreture += 5;
  1834  00FD  3005               	movlw	5
  1835  00FE  1283               	bcf	3,5	;RP0=0, select bank0
  1836  00FF  1303               	bcf	3,6	;RP1=0, select bank0
  1837  0100  07D9               	addwf	_TargetTempreture,f
  1838  0101  1803               	skipnc
  1839  0102  0ADA               	incf	_TargetTempreture+1,f
  1840  0103  3000               	movlw	0
  1841  0104  07DA               	addwf	_TargetTempreture+1,f
  1842                           
  1843                           ;main.c: 111:            _delay((unsigned long)((10)*(8000000/4000.0)));
  1844  0105  301A               	movlw	26
  1845  0106  1283               	bcf	3,5	;RP0=0, select bank0
  1846  0107  1303               	bcf	3,6	;RP1=0, select bank0
  1847  0108  00BE               	movwf	??_flashDisplay+1
  1848  0109  30F7               	movlw	247
  1849  010A  00BD               	movwf	??_flashDisplay
  1850  010B                     u2507:
  1851  010B  0BBD               	decfsz	??_flashDisplay,f
  1852  010C  290B               	goto	u2507
  1853  010D  0BBE               	decfsz	??_flashDisplay+1,f
  1854  010E  290B               	goto	u2507
  1855  010F  2910               	nop2
  1856  0110                     l2747:
  1857                           
  1858                           ;main.c: 112:            prev_status=PREV_UN_STABLE;
  1859  0110  1283               	bcf	3,5	;RP0=0, select bank0
  1860  0111  1303               	bcf	3,6	;RP1=0, select bank0
  1861  0112  01DB               	clrf	flashDisplay@prev_status
  1862  0113                     l2749:
  1863                           
  1864                           ;main.c: 117:      if(PORTBbits.RB4==0&&prev_status==PREV_STABLE)
  1865  0113  1283               	bcf	3,5	;RP0=0, select bank0
  1866  0114  1303               	bcf	3,6	;RP1=0, select bank0
  1867  0115  1A06               	btfsc	6,4	;volatile
  1868  0116  2918               	goto	u2331
  1869  0117  2919               	goto	u2330
  1870  0118                     u2331:
  1871  0118  2941               	goto	l2759
  1872  0119                     u2330:
  1873  0119                     l2751:
  1874  0119  035B               	decf	flashDisplay@prev_status,w
  1875  011A  1D03               	btfss	3,2
  1876  011B  291D               	goto	u2341
  1877  011C  291E               	goto	u2340
  1878  011D                     u2341:
  1879  011D  2941               	goto	l2759
  1880  011E                     u2340:
  1881  011E                     l2753:
  1882                           
  1883                           ;main.c: 118:      {;main.c: 119:         if(TargetTempreture>35)
  1884  011E  085A               	movf	_TargetTempreture+1,w
  1885  011F  3A80               	xorlw	128
  1886  0120  00FF               	movwf	btemp+1
  1887  0121  3080               	movlw	128
  1888  0122  027F               	subwf	btemp+1,w
  1889  0123  1D03               	skipz
  1890  0124  2927               	goto	u2355
  1891  0125  3024               	movlw	36
  1892  0126  0259               	subwf	_TargetTempreture,w
  1893  0127                     u2355:
  1894  0127  1C03               	skipc
  1895  0128  292A               	goto	u2351
  1896  0129  292B               	goto	u2350
  1897  012A                     u2351:
  1898  012A  2941               	goto	l2759
  1899  012B                     u2350:
  1900  012B                     l2755:
  1901                           
  1902                           ;main.c: 120:         {;main.c: 121:          TargetTempreture -= 5;
  1903  012B  30FB               	movlw	251
  1904  012C  1283               	bcf	3,5	;RP0=0, select bank0
  1905  012D  1303               	bcf	3,6	;RP1=0, select bank0
  1906  012E  07D9               	addwf	_TargetTempreture,f
  1907  012F  1803               	skipnc
  1908  0130  0ADA               	incf	_TargetTempreture+1,f
  1909  0131  30FF               	movlw	255
  1910  0132  07DA               	addwf	_TargetTempreture+1,f
  1911                           
  1912                           ;main.c: 122:         _delay((unsigned long)((10)*(8000000/4000.0)));
  1913  0133  301A               	movlw	26
  1914  0134  1283               	bcf	3,5	;RP0=0, select bank0
  1915  0135  1303               	bcf	3,6	;RP1=0, select bank0
  1916  0136  00BE               	movwf	??_flashDisplay+1
  1917  0137  30F7               	movlw	247
  1918  0138  00BD               	movwf	??_flashDisplay
  1919  0139                     u2517:
  1920  0139  0BBD               	decfsz	??_flashDisplay,f
  1921  013A  2939               	goto	u2517
  1922  013B  0BBE               	decfsz	??_flashDisplay+1,f
  1923  013C  2939               	goto	u2517
  1924  013D  293E               	nop2
  1925  013E                     l2757:
  1926                           
  1927                           ;main.c: 123:          prev_status=PREV_UN_STABLE;
  1928  013E  1283               	bcf	3,5	;RP0=0, select bank0
  1929  013F  1303               	bcf	3,6	;RP1=0, select bank0
  1930  0140  01DB               	clrf	flashDisplay@prev_status
  1931  0141                     l2759:
  1932                           
  1933                           ;main.c: 127:    }
  1934  0141  3001               	movlw	1
  1935  0142  1683               	bsf	3,5	;RP0=1, select bank1
  1936  0143  1303               	bcf	3,6	;RP1=0, select bank1
  1937  0144  07A2               	addwf	flashDisplay@i_183^(0+128),f
  1938  0145  1803               	skipnc
  1939  0146  0AA3               	incf	(flashDisplay@i_183+1)^(0+128),f
  1940  0147  3000               	movlw	0
  1941  0148  07A3               	addwf	(flashDisplay@i_183+1)^(0+128),f
  1942  0149                     l2761:
  1943  0149  0823               	movf	(flashDisplay@i_183+1)^(0+128),w
  1944  014A  3A80               	xorlw	128
  1945  014B  00FF               	movwf	btemp+1
  1946  014C  3080               	movlw	128
  1947  014D  027F               	subwf	btemp+1,w
  1948  014E  1D03               	skipz
  1949  014F  2952               	goto	u2365
  1950  0150  3019               	movlw	25
  1951  0151  0222               	subwf	flashDisplay@i_183^(0+128),w
  1952  0152                     u2365:
  1953  0152  1C03               	skipc
  1954  0153  2955               	goto	u2361
  1955  0154  2956               	goto	u2360
  1956  0155                     u2361:
  1957  0155  28DB               	goto	l2737
  1958  0156                     u2360:
  1959  0156                     l110:
  1960  0156  0008               	return
  1961  0157                     __end_of_flashDisplay:
  1962                           
  1963                           	psect	text3
  1964  0459                     __ptext3:	
  1965 ;; *************** function _displayDeiredTempreture *****************
  1966 ;; Defined at:
  1967 ;;		line 278 in file "main.c"
  1968 ;; Parameters:    Size  Location     Type
  1969 ;;		None
  1970 ;; Auto vars:     Size  Location     Type
  1971 ;;  high            1   28[BANK0 ] unsigned char 
  1972 ;;  low             1   27[BANK0 ] unsigned char 
  1973 ;; Return value:  Size  Location     Type
  1974 ;;                  1    wreg      void 
  1975 ;; Registers used:
  1976 ;;		wreg, fsr0l, fsr0h, status,2, status,0, btemp+1, pclath, cstack
  1977 ;; Tracked objects:
  1978 ;;		On entry : 0/0
  1979 ;;		On exit  : 0/0
  1980 ;;		Unchanged: 0/0
  1981 ;; Data sizes:     COMMON   BANK0   BANK1   BANK3   BANK2
  1982 ;;      Params:         0       0       0       0       0
  1983 ;;      Locals:         0       2       0       0       0
  1984 ;;      Temps:          0       2       0       0       0
  1985 ;;      Totals:         0       4       0       0       0
  1986 ;;Total ram usage:        4 bytes
  1987 ;; Hardware stack levels used:    1
  1988 ;; Hardware stack levels required when called:    5
  1989 ;; This function calls:
  1990 ;;		___awdiv
  1991 ;;		___awmod
  1992 ;;		_lcd_writeNumber
  1993 ;; This function is called by:
  1994 ;;		_flashDisplay
  1995 ;; This function uses a non-reentrant model
  1996 ;;
  1997                           
  1998                           
  1999                           ;psect for function _displayDeiredTempreture
  2000  0459                     _displayDeiredTempreture:
  2001  0459                     l2665:	
  2002                           ;incstack = 0
  2003                           ; Regs used in _displayDeiredTempreture: [wreg-fsr0h+status,2+status,0+btemp+1+pclath+cs
      +                          tack]
  2004                           
  2005                           
  2006                           ;main.c: 280:     unsigned char low=TargetTempreture%10;
  2007  0459  300A               	movlw	10
  2008  045A  1283               	bcf	3,5	;RP0=0, select bank0
  2009  045B  1303               	bcf	3,6	;RP1=0, select bank0
  2010  045C  00B1               	movwf	___awmod@divisor
  2011  045D  3000               	movlw	0
  2012  045E  00B2               	movwf	___awmod@divisor+1
  2013  045F  085A               	movf	_TargetTempreture+1,w
  2014  0460  00B4               	movwf	___awmod@dividend+1
  2015  0461  0859               	movf	_TargetTempreture,w
  2016  0462  00B3               	movwf	___awmod@dividend
  2017  0463  120A  118A  234E  120A  118A  	fcall	___awmod
  2018  0468  1283               	bcf	3,5	;RP0=0, select bank0
  2019  0469  1303               	bcf	3,6	;RP1=0, select bank0
  2020  046A  0831               	movf	?___awmod,w
  2021  046B  00FF               	movwf	btemp+1
  2022  046C  087F               	movf	btemp+1,w
  2023  046D  00BB               	movwf	displayDeiredTempreture@low
  2024                           
  2025                           ;main.c: 281:     unsigned char high=TargetTempreture/10;
  2026  046E  300A               	movlw	10
  2027  046F  00B1               	movwf	___awdiv@divisor
  2028  0470  3000               	movlw	0
  2029  0471  00B2               	movwf	___awdiv@divisor+1
  2030  0472  085A               	movf	_TargetTempreture+1,w
  2031  0473  00B4               	movwf	___awdiv@dividend+1
  2032  0474  0859               	movf	_TargetTempreture,w
  2033  0475  00B3               	movwf	___awdiv@dividend
  2034  0476  120A  118A  2215  120A  118A  	fcall	___awdiv
  2035  047B  1283               	bcf	3,5	;RP0=0, select bank0
  2036  047C  1303               	bcf	3,6	;RP1=0, select bank0
  2037  047D  0831               	movf	?___awdiv,w
  2038  047E  00FF               	movwf	btemp+1
  2039  047F  087F               	movf	btemp+1,w
  2040  0480  00BC               	movwf	displayDeiredTempreture@high
  2041  0481                     l2667:
  2042                           
  2043                           ;main.c: 282:      PORTAbits.RA5=1;
  2044  0481  1685               	bsf	5,5	;volatile
  2045  0482                     l2669:
  2046                           
  2047                           ;main.c: 283:     lcd_writeNumber(low);
  2048  0482  083B               	movf	displayDeiredTempreture@low,w
  2049  0483  120A  118A  27C4  120A  118A  	fcall	_lcd_writeNumber
  2050  0488                     l2671:
  2051                           
  2052                           ;main.c: 284:     _delay((unsigned long)((10)*(8000000/4000.0)));
  2053  0488  301A               	movlw	26
  2054  0489  1283               	bcf	3,5	;RP0=0, select bank0
  2055  048A  1303               	bcf	3,6	;RP1=0, select bank0
  2056  048B  00BA               	movwf	??_displayDeiredTempreture+1
  2057  048C  30F7               	movlw	247
  2058  048D  00B9               	movwf	??_displayDeiredTempreture
  2059  048E                     u2527:
  2060  048E  0BB9               	decfsz	??_displayDeiredTempreture,f
  2061  048F  2C8E               	goto	u2527
  2062  0490  0BBA               	decfsz	??_displayDeiredTempreture+1,f
  2063  0491  2C8E               	goto	u2527
  2064  0492  2C93               	nop2
  2065  0493                     l2673:
  2066                           
  2067                           ;main.c: 285:     PORTAbits.RA5=0;
  2068  0493  1283               	bcf	3,5	;RP0=0, select bank0
  2069  0494  1303               	bcf	3,6	;RP1=0, select bank0
  2070  0495  1285               	bcf	5,5	;volatile
  2071  0496                     l2675:
  2072                           
  2073                           ;main.c: 286:    lcd_writeNumber(high);
  2074  0496  083C               	movf	displayDeiredTempreture@high,w
  2075  0497  120A  118A  27C4  120A  118A  	fcall	_lcd_writeNumber
  2076  049C                     l2677:
  2077                           
  2078                           ;main.c: 287:    PORTAbits.RA4=1;
  2079  049C  1283               	bcf	3,5	;RP0=0, select bank0
  2080  049D  1303               	bcf	3,6	;RP1=0, select bank0
  2081  049E  1605               	bsf	5,4	;volatile
  2082  049F                     l2679:
  2083                           
  2084                           ;main.c: 288:    _delay((unsigned long)((10)*(8000000/4000.0)));
  2085  049F  301A               	movlw	26
  2086  04A0  1283               	bcf	3,5	;RP0=0, select bank0
  2087  04A1  1303               	bcf	3,6	;RP1=0, select bank0
  2088  04A2  00BA               	movwf	??_displayDeiredTempreture+1
  2089  04A3  30F7               	movlw	247
  2090  04A4  00B9               	movwf	??_displayDeiredTempreture
  2091  04A5                     u2537:
  2092  04A5  0BB9               	decfsz	??_displayDeiredTempreture,f
  2093  04A6  2CA5               	goto	u2537
  2094  04A7  0BBA               	decfsz	??_displayDeiredTempreture+1,f
  2095  04A8  2CA5               	goto	u2537
  2096  04A9  2CAA               	nop2
  2097  04AA                     l2681:
  2098                           
  2099                           ;main.c: 289:     PORTAbits.RA4=0;
  2100  04AA  1283               	bcf	3,5	;RP0=0, select bank0
  2101  04AB  1303               	bcf	3,6	;RP1=0, select bank0
  2102  04AC  1205               	bcf	5,4	;volatile
  2103  04AD                     l173:
  2104  04AD  0008               	return
  2105  04AE                     __end_of_displayDeiredTempreture:
  2106                           
  2107                           	psect	text4
  2108  034E                     __ptext4:	
  2109 ;; *************** function ___awmod *****************
  2110 ;; Defined at:
  2111 ;;		line 5 in file "C:\Program Files\Microchip\xc8\v2.20\pic\sources\c90\common\awmod.c"
  2112 ;; Parameters:    Size  Location     Type
  2113 ;;  divisor         2   17[BANK0 ] int 
  2114 ;;  dividend        2   19[BANK0 ] int 
  2115 ;; Auto vars:     Size  Location     Type
  2116 ;;  sign            1   22[BANK0 ] unsigned char 
  2117 ;;  counter         1   21[BANK0 ] unsigned char 
  2118 ;; Return value:  Size  Location     Type
  2119 ;;                  2   17[BANK0 ] int 
  2120 ;; Registers used:
  2121 ;;		wreg, status,2, status,0, btemp+1
  2122 ;; Tracked objects:
  2123 ;;		On entry : 0/0
  2124 ;;		On exit  : 0/0
  2125 ;;		Unchanged: 0/0
  2126 ;; Data sizes:     COMMON   BANK0   BANK1   BANK3   BANK2
  2127 ;;      Params:         0       4       0       0       0
  2128 ;;      Locals:         0       2       0       0       0
  2129 ;;      Temps:          0       0       0       0       0
  2130 ;;      Totals:         0       6       0       0       0
  2131 ;;Total ram usage:        6 bytes
  2132 ;; Hardware stack levels used:    1
  2133 ;; Hardware stack levels required when called:    4
  2134 ;; This function calls:
  2135 ;;		Nothing
  2136 ;; This function is called by:
  2137 ;;		_displayDeiredTempreture
  2138 ;; This function uses a non-reentrant model
  2139 ;;
  2140                           
  2141                           
  2142                           ;psect for function ___awmod
  2143  034E                     ___awmod:
  2144  034E                     l2621:	
  2145                           ;incstack = 0
  2146                           ; Regs used in ___awmod: [wreg+status,2+status,0+btemp+1]
  2147                           
  2148  034E  1283               	bcf	3,5	;RP0=0, select bank0
  2149  034F  1303               	bcf	3,6	;RP1=0, select bank0
  2150  0350  01B6               	clrf	___awmod@sign
  2151  0351                     l2623:
  2152  0351  1FB4               	btfss	___awmod@dividend+1,7
  2153  0352  2B54               	goto	u2101
  2154  0353  2B55               	goto	u2100
  2155  0354                     u2101:
  2156  0354  2B5C               	goto	l2629
  2157  0355                     u2100:
  2158  0355                     l2625:
  2159  0355  09B3               	comf	___awmod@dividend,f
  2160  0356  09B4               	comf	___awmod@dividend+1,f
  2161  0357  0AB3               	incf	___awmod@dividend,f
  2162  0358  1903               	skipnz
  2163  0359  0AB4               	incf	___awmod@dividend+1,f
  2164  035A                     l2627:
  2165  035A  01B6               	clrf	___awmod@sign
  2166  035B  0AB6               	incf	___awmod@sign,f
  2167  035C                     l2629:
  2168  035C  1FB2               	btfss	___awmod@divisor+1,7
  2169  035D  2B5F               	goto	u2111
  2170  035E  2B60               	goto	u2110
  2171  035F                     u2111:
  2172  035F  2B65               	goto	l2633
  2173  0360                     u2110:
  2174  0360                     l2631:
  2175  0360  09B1               	comf	___awmod@divisor,f
  2176  0361  09B2               	comf	___awmod@divisor+1,f
  2177  0362  0AB1               	incf	___awmod@divisor,f
  2178  0363  1903               	skipnz
  2179  0364  0AB2               	incf	___awmod@divisor+1,f
  2180  0365                     l2633:
  2181  0365  0831               	movf	___awmod@divisor,w
  2182  0366  0432               	iorwf	___awmod@divisor+1,w
  2183  0367  1903               	btfsc	3,2
  2184  0368  2B6A               	goto	u2121
  2185  0369  2B6B               	goto	u2120
  2186  036A                     u2121:
  2187  036A  2B9A               	goto	l2651
  2188  036B                     u2120:
  2189  036B                     l2635:
  2190  036B  01B5               	clrf	___awmod@counter
  2191  036C  0AB5               	incf	___awmod@counter,f
  2192  036D  2B79               	goto	l2641
  2193  036E                     l2637:
  2194  036E  3001               	movlw	1
  2195  036F                     u2135:
  2196  036F  1003               	clrc
  2197  0370  0DB1               	rlf	___awmod@divisor,f
  2198  0371  0DB2               	rlf	___awmod@divisor+1,f
  2199  0372  3EFF               	addlw	-1
  2200  0373  1D03               	skipz
  2201  0374  2B6F               	goto	u2135
  2202  0375                     l2639:
  2203  0375  3001               	movlw	1
  2204  0376  00FF               	movwf	btemp+1
  2205  0377  087F               	movf	btemp+1,w
  2206  0378  07B5               	addwf	___awmod@counter,f
  2207  0379                     l2641:
  2208  0379  1FB2               	btfss	___awmod@divisor+1,7
  2209  037A  2B7C               	goto	u2141
  2210  037B  2B7D               	goto	u2140
  2211  037C                     u2141:
  2212  037C  2B6E               	goto	l2637
  2213  037D                     u2140:
  2214  037D                     l2643:
  2215  037D  0832               	movf	___awmod@divisor+1,w
  2216  037E  0234               	subwf	___awmod@dividend+1,w
  2217  037F  1D03               	skipz
  2218  0380  2B83               	goto	u2155
  2219  0381  0831               	movf	___awmod@divisor,w
  2220  0382  0233               	subwf	___awmod@dividend,w
  2221  0383                     u2155:
  2222  0383  1C03               	skipc
  2223  0384  2B86               	goto	u2151
  2224  0385  2B87               	goto	u2150
  2225  0386                     u2151:
  2226  0386  2B8D               	goto	l2647
  2227  0387                     u2150:
  2228  0387                     l2645:
  2229  0387  0831               	movf	___awmod@divisor,w
  2230  0388  02B3               	subwf	___awmod@dividend,f
  2231  0389  0832               	movf	___awmod@divisor+1,w
  2232  038A  1C03               	skipc
  2233  038B  03B4               	decf	___awmod@dividend+1,f
  2234  038C  02B4               	subwf	___awmod@dividend+1,f
  2235  038D                     l2647:
  2236  038D  3001               	movlw	1
  2237  038E                     u2165:
  2238  038E  1003               	clrc
  2239  038F  0CB2               	rrf	___awmod@divisor+1,f
  2240  0390  0CB1               	rrf	___awmod@divisor,f
  2241  0391  3EFF               	addlw	-1
  2242  0392  1D03               	skipz
  2243  0393  2B8E               	goto	u2165
  2244  0394                     l2649:
  2245  0394  3001               	movlw	1
  2246  0395  02B5               	subwf	___awmod@counter,f
  2247  0396  1D03               	btfss	3,2
  2248  0397  2B99               	goto	u2171
  2249  0398  2B9A               	goto	u2170
  2250  0399                     u2171:
  2251  0399  2B7D               	goto	l2643
  2252  039A                     u2170:
  2253  039A                     l2651:
  2254  039A  0836               	movf	___awmod@sign,w
  2255  039B  1903               	btfsc	3,2
  2256  039C  2B9E               	goto	u2181
  2257  039D  2B9F               	goto	u2180
  2258  039E                     u2181:
  2259  039E  2BA4               	goto	l2655
  2260  039F                     u2180:
  2261  039F                     l2653:
  2262  039F  09B3               	comf	___awmod@dividend,f
  2263  03A0  09B4               	comf	___awmod@dividend+1,f
  2264  03A1  0AB3               	incf	___awmod@dividend,f
  2265  03A2  1903               	skipnz
  2266  03A3  0AB4               	incf	___awmod@dividend+1,f
  2267  03A4                     l2655:
  2268  03A4  0834               	movf	___awmod@dividend+1,w
  2269  03A5  00B2               	movwf	?___awmod+1
  2270  03A6  0833               	movf	___awmod@dividend,w
  2271  03A7  00B1               	movwf	?___awmod
  2272  03A8                     l625:
  2273  03A8  0008               	return
  2274  03A9                     __end_of___awmod:
  2275                           
  2276                           	psect	text5
  2277  0215                     __ptext5:	
  2278 ;; *************** function ___awdiv *****************
  2279 ;; Defined at:
  2280 ;;		line 5 in file "C:\Program Files\Microchip\xc8\v2.20\pic\sources\c90\common\awdiv.c"
  2281 ;; Parameters:    Size  Location     Type
  2282 ;;  divisor         2   17[BANK0 ] int 
  2283 ;;  dividend        2   19[BANK0 ] int 
  2284 ;; Auto vars:     Size  Location     Type
  2285 ;;  quotient        2   23[BANK0 ] int 
  2286 ;;  sign            1   22[BANK0 ] unsigned char 
  2287 ;;  counter         1   21[BANK0 ] unsigned char 
  2288 ;; Return value:  Size  Location     Type
  2289 ;;                  2   17[BANK0 ] int 
  2290 ;; Registers used:
  2291 ;;		wreg, status,2, status,0, btemp+1
  2292 ;; Tracked objects:
  2293 ;;		On entry : 0/0
  2294 ;;		On exit  : 0/0
  2295 ;;		Unchanged: 0/0
  2296 ;; Data sizes:     COMMON   BANK0   BANK1   BANK3   BANK2
  2297 ;;      Params:         0       4       0       0       0
  2298 ;;      Locals:         0       4       0       0       0
  2299 ;;      Temps:          0       0       0       0       0
  2300 ;;      Totals:         0       8       0       0       0
  2301 ;;Total ram usage:        8 bytes
  2302 ;; Hardware stack levels used:    1
  2303 ;; Hardware stack levels required when called:    4
  2304 ;; This function calls:
  2305 ;;		Nothing
  2306 ;; This function is called by:
  2307 ;;		_displayDeiredTempreture
  2308 ;; This function uses a non-reentrant model
  2309 ;;
  2310                           
  2311                           
  2312                           ;psect for function ___awdiv
  2313  0215                     ___awdiv:
  2314  0215                     l2577:	
  2315                           ;incstack = 0
  2316                           ; Regs used in ___awdiv: [wreg+status,2+status,0+btemp+1]
  2317                           
  2318  0215  1283               	bcf	3,5	;RP0=0, select bank0
  2319  0216  1303               	bcf	3,6	;RP1=0, select bank0
  2320  0217  01B6               	clrf	___awdiv@sign
  2321  0218                     l2579:
  2322  0218  1FB2               	btfss	___awdiv@divisor+1,7
  2323  0219  2A1B               	goto	u2001
  2324  021A  2A1C               	goto	u2000
  2325  021B                     u2001:
  2326  021B  2A23               	goto	l2585
  2327  021C                     u2000:
  2328  021C                     l2581:
  2329  021C  09B1               	comf	___awdiv@divisor,f
  2330  021D  09B2               	comf	___awdiv@divisor+1,f
  2331  021E  0AB1               	incf	___awdiv@divisor,f
  2332  021F  1903               	skipnz
  2333  0220  0AB2               	incf	___awdiv@divisor+1,f
  2334  0221                     l2583:
  2335  0221  01B6               	clrf	___awdiv@sign
  2336  0222  0AB6               	incf	___awdiv@sign,f
  2337  0223                     l2585:
  2338  0223  1FB4               	btfss	___awdiv@dividend+1,7
  2339  0224  2A26               	goto	u2011
  2340  0225  2A27               	goto	u2010
  2341  0226                     u2011:
  2342  0226  2A30               	goto	l2591
  2343  0227                     u2010:
  2344  0227                     l2587:
  2345  0227  09B3               	comf	___awdiv@dividend,f
  2346  0228  09B4               	comf	___awdiv@dividend+1,f
  2347  0229  0AB3               	incf	___awdiv@dividend,f
  2348  022A  1903               	skipnz
  2349  022B  0AB4               	incf	___awdiv@dividend+1,f
  2350  022C                     l2589:
  2351  022C  3001               	movlw	1
  2352  022D  00FF               	movwf	btemp+1
  2353  022E  087F               	movf	btemp+1,w
  2354  022F  06B6               	xorwf	___awdiv@sign,f
  2355  0230                     l2591:
  2356  0230  01B7               	clrf	___awdiv@quotient
  2357  0231  01B8               	clrf	___awdiv@quotient+1
  2358  0232                     l2593:
  2359  0232  0831               	movf	___awdiv@divisor,w
  2360  0233  0432               	iorwf	___awdiv@divisor+1,w
  2361  0234  1903               	btfsc	3,2
  2362  0235  2A37               	goto	u2021
  2363  0236  2A38               	goto	u2020
  2364  0237                     u2021:
  2365  0237  2A6F               	goto	l2613
  2366  0238                     u2020:
  2367  0238                     l2595:
  2368  0238  01B5               	clrf	___awdiv@counter
  2369  0239  0AB5               	incf	___awdiv@counter,f
  2370  023A  2A46               	goto	l2601
  2371  023B                     l2597:
  2372  023B  3001               	movlw	1
  2373  023C                     u2035:
  2374  023C  1003               	clrc
  2375  023D  0DB1               	rlf	___awdiv@divisor,f
  2376  023E  0DB2               	rlf	___awdiv@divisor+1,f
  2377  023F  3EFF               	addlw	-1
  2378  0240  1D03               	skipz
  2379  0241  2A3C               	goto	u2035
  2380  0242                     l2599:
  2381  0242  3001               	movlw	1
  2382  0243  00FF               	movwf	btemp+1
  2383  0244  087F               	movf	btemp+1,w
  2384  0245  07B5               	addwf	___awdiv@counter,f
  2385  0246                     l2601:
  2386  0246  1FB2               	btfss	___awdiv@divisor+1,7
  2387  0247  2A49               	goto	u2041
  2388  0248  2A4A               	goto	u2040
  2389  0249                     u2041:
  2390  0249  2A3B               	goto	l2597
  2391  024A                     u2040:
  2392  024A                     l2603:
  2393  024A  3001               	movlw	1
  2394  024B                     u2055:
  2395  024B  1003               	clrc
  2396  024C  0DB7               	rlf	___awdiv@quotient,f
  2397  024D  0DB8               	rlf	___awdiv@quotient+1,f
  2398  024E  3EFF               	addlw	-1
  2399  024F  1D03               	skipz
  2400  0250  2A4B               	goto	u2055
  2401  0251  0832               	movf	___awdiv@divisor+1,w
  2402  0252  0234               	subwf	___awdiv@dividend+1,w
  2403  0253  1D03               	skipz
  2404  0254  2A57               	goto	u2065
  2405  0255  0831               	movf	___awdiv@divisor,w
  2406  0256  0233               	subwf	___awdiv@dividend,w
  2407  0257                     u2065:
  2408  0257  1C03               	skipc
  2409  0258  2A5A               	goto	u2061
  2410  0259  2A5B               	goto	u2060
  2411  025A                     u2061:
  2412  025A  2A62               	goto	l2609
  2413  025B                     u2060:
  2414  025B                     l2605:
  2415  025B  0831               	movf	___awdiv@divisor,w
  2416  025C  02B3               	subwf	___awdiv@dividend,f
  2417  025D  0832               	movf	___awdiv@divisor+1,w
  2418  025E  1C03               	skipc
  2419  025F  03B4               	decf	___awdiv@dividend+1,f
  2420  0260  02B4               	subwf	___awdiv@dividend+1,f
  2421  0261                     l2607:
  2422  0261  1437               	bsf	___awdiv@quotient,0
  2423  0262                     l2609:
  2424  0262  3001               	movlw	1
  2425  0263                     u2075:
  2426  0263  1003               	clrc
  2427  0264  0CB2               	rrf	___awdiv@divisor+1,f
  2428  0265  0CB1               	rrf	___awdiv@divisor,f
  2429  0266  3EFF               	addlw	-1
  2430  0267  1D03               	skipz
  2431  0268  2A63               	goto	u2075
  2432  0269                     l2611:
  2433  0269  3001               	movlw	1
  2434  026A  02B5               	subwf	___awdiv@counter,f
  2435  026B  1D03               	btfss	3,2
  2436  026C  2A6E               	goto	u2081
  2437  026D  2A6F               	goto	u2080
  2438  026E                     u2081:
  2439  026E  2A4A               	goto	l2603
  2440  026F                     u2080:
  2441  026F                     l2613:
  2442  026F  0836               	movf	___awdiv@sign,w
  2443  0270  1903               	btfsc	3,2
  2444  0271  2A73               	goto	u2091
  2445  0272  2A74               	goto	u2090
  2446  0273                     u2091:
  2447  0273  2A79               	goto	l2617
  2448  0274                     u2090:
  2449  0274                     l2615:
  2450  0274  09B7               	comf	___awdiv@quotient,f
  2451  0275  09B8               	comf	___awdiv@quotient+1,f
  2452  0276  0AB7               	incf	___awdiv@quotient,f
  2453  0277  1903               	skipnz
  2454  0278  0AB8               	incf	___awdiv@quotient+1,f
  2455  0279                     l2617:
  2456  0279  0838               	movf	___awdiv@quotient+1,w
  2457  027A  00B2               	movwf	?___awdiv+1
  2458  027B  0837               	movf	___awdiv@quotient,w
  2459  027C  00B1               	movwf	?___awdiv
  2460  027D                     l612:
  2461  027D  0008               	return
  2462  027E                     __end_of___awdiv:
  2463                           
  2464                           	psect	text6
  2465  073C                     __ptext6:	
  2466 ;; *************** function _EEPROM_Write *****************
  2467 ;; Defined at:
  2468 ;;		line 72 in file "ext_eeprom.c"
  2469 ;; Parameters:    Size  Location     Type
  2470 ;;  add             1    wreg     unsigned char 
  2471 ;;  data            1   18[BANK0 ] unsigned char 
  2472 ;; Auto vars:     Size  Location     Type
  2473 ;;  add             1   19[BANK0 ] unsigned char 
  2474 ;; Return value:  Size  Location     Type
  2475 ;;                  1    wreg      void 
  2476 ;; Registers used:
  2477 ;;		wreg, status,2, status,0, pclath, cstack
  2478 ;; Tracked objects:
  2479 ;;		On entry : 0/0
  2480 ;;		On exit  : 0/0
  2481 ;;		Unchanged: 0/0
  2482 ;; Data sizes:     COMMON   BANK0   BANK1   BANK3   BANK2
  2483 ;;      Params:         0       1       0       0       0
  2484 ;;      Locals:         0       1       0       0       0
  2485 ;;      Temps:          0       0       0       0       0
  2486 ;;      Totals:         0       2       0       0       0
  2487 ;;Total ram usage:        2 bytes
  2488 ;; Hardware stack levels used:    1
  2489 ;; Hardware stack levels required when called:    6
  2490 ;; This function calls:
  2491 ;;		_I2C_Master_RepeatedStart
  2492 ;;		_I2C_Master_Start
  2493 ;;		_I2C_Master_Stop
  2494 ;;		_I2C_Master_Write
  2495 ;; This function is called by:
  2496 ;;		_flashDisplay
  2497 ;;		_main
  2498 ;; This function uses a non-reentrant model
  2499 ;;
  2500                           
  2501                           
  2502                           ;psect for function _EEPROM_Write
  2503  073C                     _EEPROM_Write:
  2504                           
  2505                           ;incstack = 0
  2506 ;; hardware stack exceeded
  2507                           ; Regs used in _EEPROM_Write: [wreg+status,2+status,0+pclath+cstack]
  2508                           ;EEPROM_Write@add stored from wreg
  2509  073C  1283               	bcf	3,5	;RP0=0, select bank0
  2510  073D  1303               	bcf	3,6	;RP1=0, select bank0
  2511  073E  00B3               	movwf	EEPROM_Write@add
  2512  073F                     l2659:
  2513                           
  2514                           ;ext_eeprom.c: 72: void EEPROM_Write(unsigned char add, unsigned char data);ext_eeprom.c
      +                          : 73: {;ext_eeprom.c: 74:   I2C_Master_Start();
  2515  073F  120A  158A  27AA  120A  118A  	fcall	_I2C_Master_Start
  2516                           
  2517                           ;ext_eeprom.c: 76:   while(I2C_Master_Write(0xA0))
  2518  0744  2F4A               	goto	l349
  2519  0745                     l2661:
  2520                           
  2521                           ;ext_eeprom.c: 77:     I2C_Master_RepeatedStart();
  2522  0745  120A  158A  27C5  120A  118A  	fcall	_I2C_Master_RepeatedStart
  2523  074A                     l349:
  2524                           
  2525                           ;ext_eeprom.c: 76:   while(I2C_Master_Write(0xA0))
  2526  074A  30A0               	movlw	160
  2527  074B  120A  118A  27AD  120A  118A  	fcall	_I2C_Master_Write
  2528  0750  3A00               	xorlw	0
  2529  0751  1D03               	skipz
  2530  0752  2F54               	goto	u2191
  2531  0753  2F55               	goto	u2190
  2532  0754                     u2191:
  2533  0754  2F45               	goto	l2661
  2534  0755                     u2190:
  2535  0755                     l2663:
  2536                           
  2537                           ;ext_eeprom.c: 78:   I2C_Master_Write(add);
  2538  0755  1283               	bcf	3,5	;RP0=0, select bank0
  2539  0756  1303               	bcf	3,6	;RP1=0, select bank0
  2540  0757  0833               	movf	EEPROM_Write@add,w
  2541  0758  120A  118A  27AD  120A  118A  	fcall	_I2C_Master_Write
  2542                           
  2543                           ;ext_eeprom.c: 79:   I2C_Master_Write(data);
  2544  075D  1283               	bcf	3,5	;RP0=0, select bank0
  2545  075E  1303               	bcf	3,6	;RP1=0, select bank0
  2546  075F  0832               	movf	EEPROM_Write@data,w
  2547  0760  120A  118A  27AD  120A  118A  	fcall	_I2C_Master_Write
  2548                           
  2549                           ;ext_eeprom.c: 80:   I2C_Master_Stop();
  2550  0765  120A  158A  27B3  120A  118A  	fcall	_I2C_Master_Stop
  2551  076A                     l352:
  2552  076A  0008               	return
  2553  076B                     __end_of_EEPROM_Write:
  2554                           
  2555                           	psect	text7
  2556  0FC5                     __ptext7:	
  2557 ;; *************** function _I2C_Master_RepeatedStart *****************
  2558 ;; Defined at:
  2559 ;;		line 27 in file "ext_eeprom.c"
  2560 ;; Parameters:    Size  Location     Type
  2561 ;;		None
  2562 ;; Auto vars:     Size  Location     Type
  2563 ;;		None
  2564 ;; Return value:  Size  Location     Type
  2565 ;;                  1    wreg      void 
  2566 ;; Registers used:
  2567 ;;		wreg, status,2, status,0, pclath, cstack
  2568 ;; Tracked objects:
  2569 ;;		On entry : 0/0
  2570 ;;		On exit  : 0/0
  2571 ;;		Unchanged: 0/0
  2572 ;; Data sizes:     COMMON   BANK0   BANK1   BANK3   BANK2
  2573 ;;      Params:         0       0       0       0       0
  2574 ;;      Locals:         0       0       0       0       0
  2575 ;;      Temps:          0       0       0       0       0
  2576 ;;      Totals:         0       0       0       0       0
  2577 ;;Total ram usage:        0 bytes
  2578 ;; Hardware stack levels used:    1
  2579 ;; Hardware stack levels required when called:    5
  2580 ;; This function calls:
  2581 ;;		_I2C_Master_Wait
  2582 ;; This function is called by:
  2583 ;;		_EEPROM_Write
  2584 ;;		_EEPROM_Write_Page
  2585 ;;		_EEPROM_Read_Page
  2586 ;; This function uses a non-reentrant model
  2587 ;;
  2588                           
  2589                           
  2590                           ;psect for function _I2C_Master_RepeatedStart
  2591  0FC5                     _I2C_Master_RepeatedStart:
  2592  0FC5                     l2561:	
  2593                           ;incstack = 0
  2594 ;; hardware stack exceeded
  2595                           ; Regs used in _I2C_Master_RepeatedStart: [wreg+status,2+status,0+pclath+cstack]
  2596                           
  2597                           
  2598                           ;ext_eeprom.c: 29:   I2C_Master_Wait();
  2599  0FC5  120A  158A  27E5  120A  158A  	fcall	_I2C_Master_Wait
  2600  0FCA                     l2563:
  2601                           
  2602                           ;ext_eeprom.c: 30:   RSEN = 1;
  2603  0FCA  1683               	bsf	3,5	;RP0=1, select bank1
  2604  0FCB  1303               	bcf	3,6	;RP1=0, select bank1
  2605  0FCC  1491               	bsf	17,1	;volatile
  2606  0FCD                     l325:
  2607  0FCD  0008               	return
  2608  0FCE                     __end_of_I2C_Master_RepeatedStart:
  2609                           
  2610                           	psect	text8
  2611  0621                     __ptext8:	
  2612 ;; *************** function _on_state *****************
  2613 ;; Defined at:
  2614 ;;		line 166 in file "main.c"
  2615 ;; Parameters:    Size  Location     Type
  2616 ;;		None
  2617 ;; Auto vars:     Size  Location     Type
  2618 ;;		None
  2619 ;; Return value:  Size  Location     Type
  2620 ;;                  1    wreg      void 
  2621 ;; Registers used:
  2622 ;;		wreg, fsr0l, fsr0h, status,2, status,0, btemp+1, pclath, cstack
  2623 ;; Tracked objects:
  2624 ;;		On entry : 0/0
  2625 ;;		On exit  : 0/0
  2626 ;;		Unchanged: 0/0
  2627 ;; Data sizes:     COMMON   BANK0   BANK1   BANK3   BANK2
  2628 ;;      Params:         0       0       0       0       0
  2629 ;;      Locals:         0       0       0       0       0
  2630 ;;      Temps:          0       2       0       0       0
  2631 ;;      Totals:         0       2       0       0       0
  2632 ;;Total ram usage:        2 bytes
  2633 ;; Hardware stack levels used:    1
  2634 ;; Hardware stack levels required when called:    6
  2635 ;; This function calls:
  2636 ;;		_changeStatus
  2637 ;;		_coolerOn
  2638 ;;		_displayTempreture
  2639 ;;		_heaterOn
  2640 ;; This function is called by:
  2641 ;;		_main
  2642 ;; This function uses a non-reentrant model
  2643 ;;
  2644                           
  2645                           
  2646                           ;psect for function _on_state
  2647  0621                     _on_state:
  2648  0621                     l2797:	
  2649                           ;incstack = 0
  2650                           ; Regs used in _on_state: [wreg-fsr0h+status,2+status,0+btemp+1+pclath+cstack]
  2651                           
  2652                           
  2653                           ;main.c: 168:     TMR1ON = 1;
  2654  0621  1283               	bcf	3,5	;RP0=0, select bank0
  2655  0622  1303               	bcf	3,6	;RP1=0, select bank0
  2656  0623  1410               	bsf	16,0	;volatile
  2657                           
  2658                           ;main.c: 169:     if(PORTBbits.RB3==0||PORTBbits.RB4==0)
  2659  0624  1D86               	btfss	6,3	;volatile
  2660  0625  2E27               	goto	u2381
  2661  0626  2E28               	goto	u2380
  2662  0627                     u2381:
  2663  0627  2E2C               	goto	l2801
  2664  0628                     u2380:
  2665  0628                     l2799:
  2666  0628  1A06               	btfsc	6,4	;volatile
  2667  0629  2E2B               	goto	u2391
  2668  062A  2E2C               	goto	u2390
  2669  062B                     u2391:
  2670  062B  2E31               	goto	l2805
  2671  062C                     u2390:
  2672  062C                     l2801:
  2673                           
  2674                           ;main.c: 170:     {;main.c: 171:         state=SETTING_STATE;
  2675  062C  3002               	movlw	2
  2676  062D  00FF               	movwf	btemp+1
  2677  062E  087F               	movf	btemp+1,w
  2678  062F  00DD               	movwf	_state
  2679  0630  2E5D               	goto	l142
  2680  0631                     l2805:
  2681                           
  2682                           ;main.c: 174:     displayTempreture();
  2683  0631  120A  118A  24AE  120A  118A  	fcall	_displayTempreture
  2684  0636                     l2807:
  2685                           
  2686                           ;main.c: 175:     changeStatus();
  2687  0636  120A  118A  270A  120A  118A  	fcall	_changeStatus
  2688                           
  2689                           ;main.c: 177:     switch (temp_state)
  2690  063B  2E48               	goto	l2815
  2691  063C                     l2809:
  2692                           
  2693                           ;main.c: 182:         heaterOn();
  2694  063C  120A  158A  279F  120A  118A  	fcall	_heaterOn
  2695                           
  2696                           ;main.c: 183:         break;
  2697  0641  2E5D               	goto	l142
  2698  0642                     l2811:
  2699                           
  2700                           ;main.c: 185:         coolerOn();
  2701  0642  120A  158A  279A  120A  118A  	fcall	_coolerOn
  2702                           
  2703                           ;main.c: 186:         break;
  2704  0647  2E5D               	goto	l142
  2705  0648                     l2815:
  2706  0648  1283               	bcf	3,5	;RP0=0, select bank0
  2707  0649  1303               	bcf	3,6	;RP1=0, select bank0
  2708  064A  0848               	movf	_temp_state,w
  2709  064B  00BC               	movwf	??_on_state
  2710  064C  01BD               	clrf	??_on_state+1
  2711                           
  2712                           ; Switch on 2 bytes has been partitioned into a top level switch of size 1, and 1 sub-sw
      +                          itches
  2713                           ; Switch size 1, requested type "simple"
  2714                           ; Number of cases is 1, Range of values is 0 to 0
  2715                           ; switch strategies available:
  2716                           ; Name         Instructions Cycles
  2717                           ; simple_byte            4     3 (average)
  2718                           ; direct_byte           11     8 (fixed)
  2719                           ; jumptable            260     6 (fixed)
  2720                           ;	Chosen strategy is simple_byte
  2721  064D  083D               	movf	??_on_state+1,w
  2722  064E  3A00               	xorlw	0	; case 0
  2723  064F  1903               	skipnz
  2724  0650  2E52               	goto	l3065
  2725  0651  2E5D               	goto	l142
  2726  0652                     l3065:
  2727                           
  2728                           ; Switch size 1, requested type "simple"
  2729                           ; Number of cases is 3, Range of values is 0 to 2
  2730                           ; switch strategies available:
  2731                           ; Name         Instructions Cycles
  2732                           ; simple_byte           10     6 (average)
  2733                           ; direct_byte           17     8 (fixed)
  2734                           ; jumptable            260     6 (fixed)
  2735                           ;	Chosen strategy is simple_byte
  2736  0652  083C               	movf	??_on_state,w
  2737  0653  3A00               	xorlw	0	; case 0
  2738  0654  1903               	skipnz
  2739  0655  2E5D               	goto	l142
  2740  0656  3A01               	xorlw	1	; case 1
  2741  0657  1903               	skipnz
  2742  0658  2E3C               	goto	l2809
  2743  0659  3A03               	xorlw	3	; case 2
  2744  065A  1903               	skipnz
  2745  065B  2E42               	goto	l2811
  2746  065C  2E5D               	goto	l142
  2747  065D                     l142:
  2748  065D  0008               	return
  2749  065E                     __end_of_on_state:
  2750                           
  2751                           	psect	text9
  2752  0F9F                     __ptext9:	
  2753 ;; *************** function _heaterOn *****************
  2754 ;; Defined at:
  2755 ;;		line 152 in file "main.c"
  2756 ;; Parameters:    Size  Location     Type
  2757 ;;		None
  2758 ;; Auto vars:     Size  Location     Type
  2759 ;;		None
  2760 ;; Return value:  Size  Location     Type
  2761 ;;                  1    wreg      void 
  2762 ;; Registers used:
  2763 ;;		None
  2764 ;; Tracked objects:
  2765 ;;		On entry : 0/0
  2766 ;;		On exit  : 0/0
  2767 ;;		Unchanged: 0/0
  2768 ;; Data sizes:     COMMON   BANK0   BANK1   BANK3   BANK2
  2769 ;;      Params:         0       0       0       0       0
  2770 ;;      Locals:         0       0       0       0       0
  2771 ;;      Temps:          0       0       0       0       0
  2772 ;;      Totals:         0       0       0       0       0
  2773 ;;Total ram usage:        0 bytes
  2774 ;; Hardware stack levels used:    1
  2775 ;; Hardware stack levels required when called:    4
  2776 ;; This function calls:
  2777 ;;		Nothing
  2778 ;; This function is called by:
  2779 ;;		_on_state
  2780 ;; This function uses a non-reentrant model
  2781 ;;
  2782                           
  2783                           
  2784                           ;psect for function _heaterOn
  2785  0F9F                     _heaterOn:
  2786  0F9F                     l2125:	
  2787                           ;incstack = 0
  2788                           ; Regs used in _heaterOn: []
  2789                           
  2790                           
  2791                           ;main.c: 154:     RC2=0;
  2792  0F9F  1283               	bcf	3,5	;RP0=0, select bank0
  2793  0FA0  1303               	bcf	3,6	;RP1=0, select bank0
  2794  0FA1  1107               	bcf	7,2	;volatile
  2795                           
  2796                           ;main.c: 155:     RC5=1;
  2797  0FA2  1687               	bsf	7,5	;volatile
  2798  0FA3                     l133:
  2799  0FA3  0008               	return
  2800  0FA4                     __end_of_heaterOn:
  2801                           
  2802                           	psect	text10
  2803  04AE                     __ptext10:	
  2804 ;; *************** function _displayTempreture *****************
  2805 ;; Defined at:
  2806 ;;		line 264 in file "main.c"
  2807 ;; Parameters:    Size  Location     Type
  2808 ;;		None
  2809 ;; Auto vars:     Size  Location     Type
  2810 ;;  high            1   27[BANK0 ] unsigned char 
  2811 ;;  low             1   26[BANK0 ] unsigned char 
  2812 ;; Return value:  Size  Location     Type
  2813 ;;                  1    wreg      void 
  2814 ;; Registers used:
  2815 ;;		wreg, fsr0l, fsr0h, status,2, status,0, btemp+1, pclath, cstack
  2816 ;; Tracked objects:
  2817 ;;		On entry : 0/0
  2818 ;;		On exit  : 0/0
  2819 ;;		Unchanged: 0/0
  2820 ;; Data sizes:     COMMON   BANK0   BANK1   BANK3   BANK2
  2821 ;;      Params:         0       0       0       0       0
  2822 ;;      Locals:         0       2       0       0       0
  2823 ;;      Temps:          0       2       0       0       0
  2824 ;;      Totals:         0       4       0       0       0
  2825 ;;Total ram usage:        4 bytes
  2826 ;; Hardware stack levels used:    1
  2827 ;; Hardware stack levels required when called:    5
  2828 ;; This function calls:
  2829 ;;		___lwdiv
  2830 ;;		___lwmod
  2831 ;;		_lcd_writeNumber
  2832 ;; This function is called by:
  2833 ;;		_on_state
  2834 ;; This function uses a non-reentrant model
  2835 ;;
  2836                           
  2837                           
  2838                           ;psect for function _displayTempreture
  2839  04AE                     _displayTempreture:
  2840  04AE                     l2763:	
  2841                           ;incstack = 0
  2842                           ; Regs used in _displayTempreture: [wreg-fsr0h+status,2+status,0+btemp+1+pclath+cstack]
  2843                           
  2844                           
  2845                           ;main.c: 266:     unsigned char low=TEMPRETURE%10;
  2846  04AE  300A               	movlw	10
  2847  04AF  1283               	bcf	3,5	;RP0=0, select bank0
  2848  04B0  1303               	bcf	3,6	;RP1=0, select bank0
  2849  04B1  00B1               	movwf	___lwmod@divisor
  2850  04B2  3000               	movlw	0
  2851  04B3  00B2               	movwf	___lwmod@divisor+1
  2852  04B4  0843               	movf	_TEMPRETURE+1,w
  2853  04B5  00B4               	movwf	___lwmod@dividend+1
  2854  04B6  0842               	movf	_TEMPRETURE,w
  2855  04B7  00B3               	movwf	___lwmod@dividend
  2856  04B8  120A  118A  265E  120A  118A  	fcall	___lwmod
  2857  04BD  1283               	bcf	3,5	;RP0=0, select bank0
  2858  04BE  1303               	bcf	3,6	;RP1=0, select bank0
  2859  04BF  0831               	movf	?___lwmod,w
  2860  04C0  00FF               	movwf	btemp+1
  2861  04C1  087F               	movf	btemp+1,w
  2862  04C2  00BA               	movwf	displayTempreture@low
  2863                           
  2864                           ;main.c: 267:     unsigned char high=TEMPRETURE/10;
  2865  04C3  300A               	movlw	10
  2866  04C4  00B1               	movwf	___lwdiv@divisor
  2867  04C5  3000               	movlw	0
  2868  04C6  00B2               	movwf	___lwdiv@divisor+1
  2869  04C7  0843               	movf	_TEMPRETURE+1,w
  2870  04C8  00B4               	movwf	___lwdiv@dividend+1
  2871  04C9  0842               	movf	_TEMPRETURE,w
  2872  04CA  00B3               	movwf	___lwdiv@dividend
  2873  04CB  120A  118A  2551  120A  118A  	fcall	___lwdiv
  2874  04D0  1283               	bcf	3,5	;RP0=0, select bank0
  2875  04D1  1303               	bcf	3,6	;RP1=0, select bank0
  2876  04D2  0831               	movf	?___lwdiv,w
  2877  04D3  00FF               	movwf	btemp+1
  2878  04D4  087F               	movf	btemp+1,w
  2879  04D5  00BB               	movwf	displayTempreture@high
  2880  04D6                     l2765:
  2881                           
  2882                           ;main.c: 268:      PORTAbits.RA5=1;
  2883  04D6  1685               	bsf	5,5	;volatile
  2884  04D7                     l2767:
  2885                           
  2886                           ;main.c: 269:     lcd_writeNumber(low);
  2887  04D7  083A               	movf	displayTempreture@low,w
  2888  04D8  120A  118A  27C4  120A  118A  	fcall	_lcd_writeNumber
  2889  04DD                     l2769:
  2890                           
  2891                           ;main.c: 270:     _delay((unsigned long)((10)*(8000000/4000.0)));
  2892  04DD  301A               	movlw	26
  2893  04DE  1283               	bcf	3,5	;RP0=0, select bank0
  2894  04DF  1303               	bcf	3,6	;RP1=0, select bank0
  2895  04E0  00B9               	movwf	??_displayTempreture+1
  2896  04E1  30F7               	movlw	247
  2897  04E2  00B8               	movwf	??_displayTempreture
  2898  04E3                     u2547:
  2899  04E3  0BB8               	decfsz	??_displayTempreture,f
  2900  04E4  2CE3               	goto	u2547
  2901  04E5  0BB9               	decfsz	??_displayTempreture+1,f
  2902  04E6  2CE3               	goto	u2547
  2903  04E7  2CE8               	nop2
  2904  04E8                     l2771:
  2905                           
  2906                           ;main.c: 271:     PORTAbits.RA5=0;
  2907  04E8  1283               	bcf	3,5	;RP0=0, select bank0
  2908  04E9  1303               	bcf	3,6	;RP1=0, select bank0
  2909  04EA  1285               	bcf	5,5	;volatile
  2910  04EB                     l2773:
  2911                           
  2912                           ;main.c: 272:    lcd_writeNumber(high);
  2913  04EB  083B               	movf	displayTempreture@high,w
  2914  04EC  120A  118A  27C4  120A  118A  	fcall	_lcd_writeNumber
  2915  04F1                     l2775:
  2916                           
  2917                           ;main.c: 273:    PORTAbits.RA4=1;
  2918  04F1  1283               	bcf	3,5	;RP0=0, select bank0
  2919  04F2  1303               	bcf	3,6	;RP1=0, select bank0
  2920  04F3  1605               	bsf	5,4	;volatile
  2921  04F4                     l2777:
  2922                           
  2923                           ;main.c: 274:    _delay((unsigned long)((10)*(8000000/4000.0)));
  2924  04F4  301A               	movlw	26
  2925  04F5  1283               	bcf	3,5	;RP0=0, select bank0
  2926  04F6  1303               	bcf	3,6	;RP1=0, select bank0
  2927  04F7  00B9               	movwf	??_displayTempreture+1
  2928  04F8  30F7               	movlw	247
  2929  04F9  00B8               	movwf	??_displayTempreture
  2930  04FA                     u2557:
  2931  04FA  0BB8               	decfsz	??_displayTempreture,f
  2932  04FB  2CFA               	goto	u2557
  2933  04FC  0BB9               	decfsz	??_displayTempreture+1,f
  2934  04FD  2CFA               	goto	u2557
  2935  04FE  2CFF               	nop2
  2936  04FF                     l2779:
  2937                           
  2938                           ;main.c: 275:     PORTAbits.RA4=0;
  2939  04FF  1283               	bcf	3,5	;RP0=0, select bank0
  2940  0500  1303               	bcf	3,6	;RP1=0, select bank0
  2941  0501  1205               	bcf	5,4	;volatile
  2942  0502                     l170:
  2943  0502  0008               	return
  2944  0503                     __end_of_displayTempreture:
  2945                           
  2946                           	psect	text11
  2947  07C4                     __ptext11:	
  2948 ;; *************** function _lcd_writeNumber *****************
  2949 ;; Defined at:
  2950 ;;		line 7 in file "seven_segment.c"
  2951 ;; Parameters:    Size  Location     Type
  2952 ;;  number          1    wreg     unsigned char 
  2953 ;; Auto vars:     Size  Location     Type
  2954 ;;  number          1   18[BANK0 ] unsigned char 
  2955 ;;  code            1   17[BANK0 ] unsigned char 
  2956 ;; Return value:  Size  Location     Type
  2957 ;;                  1    wreg      void 
  2958 ;; Registers used:
  2959 ;;		wreg, fsr0l, fsr0h, status,2, status,0, btemp+1
  2960 ;; Tracked objects:
  2961 ;;		On entry : 0/0
  2962 ;;		On exit  : 0/0
  2963 ;;		Unchanged: 0/0
  2964 ;; Data sizes:     COMMON   BANK0   BANK1   BANK3   BANK2
  2965 ;;      Params:         0       0       0       0       0
  2966 ;;      Locals:         0       2       0       0       0
  2967 ;;      Temps:          0       0       0       0       0
  2968 ;;      Totals:         0       2       0       0       0
  2969 ;;Total ram usage:        2 bytes
  2970 ;; Hardware stack levels used:    1
  2971 ;; Hardware stack levels required when called:    4
  2972 ;; This function calls:
  2973 ;;		Nothing
  2974 ;; This function is called by:
  2975 ;;		_displayTempreture
  2976 ;;		_displayDeiredTempreture
  2977 ;; This function uses a non-reentrant model
  2978 ;;
  2979                           
  2980                           
  2981                           ;psect for function _lcd_writeNumber
  2982  07C4                     _lcd_writeNumber:
  2983                           
  2984                           ;incstack = 0
  2985                           ; Regs used in _lcd_writeNumber: [wreg-fsr0h+status,2+status,0+btemp+1]
  2986                           ;lcd_writeNumber@number stored from wreg
  2987  07C4  1283               	bcf	3,5	;RP0=0, select bank0
  2988  07C5  1303               	bcf	3,6	;RP1=0, select bank0
  2989  07C6  00B2               	movwf	lcd_writeNumber@number
  2990  07C7                     l2549:
  2991                           
  2992                           ;seven_segment.c: 7: void lcd_writeNumber(unsigned char number);seven_segment.c: 8: {;se
      +                          ven_segment.c: 9:     if(number>=0 && number<10 )
  2993  07C7  300A               	movlw	10
  2994  07C8  0232               	subwf	lcd_writeNumber@number,w
  2995  07C9  1803               	skipnc
  2996  07CA  2FCC               	goto	u1981
  2997  07CB  2FCD               	goto	u1980
  2998  07CC                     u1981:
  2999  07CC  2FD8               	goto	l2555
  3000  07CD                     u1980:
  3001  07CD                     l2551:
  3002                           
  3003                           ;seven_segment.c: 10:     {;seven_segment.c: 11:         unsigned char code=segments_cod
      +                          e[number];
  3004  07CD  0832               	movf	lcd_writeNumber@number,w
  3005  07CE  3E4F               	addlw	(low (_segments_code| 0))& (0+255)
  3006  07CF  0084               	movwf	4
  3007  07D0  1383               	bcf	3,7	;select IRP bank0
  3008  07D1  0800               	movf	0,w
  3009  07D2  00FF               	movwf	btemp+1
  3010  07D3  087F               	movf	btemp+1,w
  3011  07D4  00B1               	movwf	lcd_writeNumber@code
  3012  07D5                     l2553:
  3013                           
  3014                           ;seven_segment.c: 12:         PORTD=code;
  3015  07D5  0831               	movf	lcd_writeNumber@code,w
  3016  07D6  0088               	movwf	8	;volatile
  3017                           
  3018                           ;seven_segment.c: 13:     }
  3019  07D7  2FD9               	goto	l280
  3020  07D8                     l2555:
  3021                           
  3022                           ;seven_segment.c: 15:         PORTD=0;
  3023  07D8  0188               	clrf	8	;volatile
  3024  07D9                     l280:
  3025  07D9  0008               	return
  3026  07DA                     __end_of_lcd_writeNumber:
  3027                           
  3028                           	psect	text12
  3029  065E                     __ptext12:	
  3030 ;; *************** function ___lwmod *****************
  3031 ;; Defined at:
  3032 ;;		line 5 in file "C:\Program Files\Microchip\xc8\v2.20\pic\sources\c90\common\lwmod.c"
  3033 ;; Parameters:    Size  Location     Type
  3034 ;;  divisor         2   17[BANK0 ] unsigned int 
  3035 ;;  dividend        2   19[BANK0 ] unsigned int 
  3036 ;; Auto vars:     Size  Location     Type
  3037 ;;  counter         1   21[BANK0 ] unsigned char 
  3038 ;; Return value:  Size  Location     Type
  3039 ;;                  2   17[BANK0 ] unsigned int 
  3040 ;; Registers used:
  3041 ;;		wreg, status,2, status,0, btemp+1
  3042 ;; Tracked objects:
  3043 ;;		On entry : 0/0
  3044 ;;		On exit  : 0/0
  3045 ;;		Unchanged: 0/0
  3046 ;; Data sizes:     COMMON   BANK0   BANK1   BANK3   BANK2
  3047 ;;      Params:         0       4       0       0       0
  3048 ;;      Locals:         0       1       0       0       0
  3049 ;;      Temps:          0       0       0       0       0
  3050 ;;      Totals:         0       5       0       0       0
  3051 ;;Total ram usage:        5 bytes
  3052 ;; Hardware stack levels used:    1
  3053 ;; Hardware stack levels required when called:    4
  3054 ;; This function calls:
  3055 ;;		Nothing
  3056 ;; This function is called by:
  3057 ;;		_displayTempreture
  3058 ;; This function uses a non-reentrant model
  3059 ;;
  3060                           
  3061                           
  3062                           ;psect for function ___lwmod
  3063  065E                     ___lwmod:
  3064  065E                     l1955:	
  3065                           ;incstack = 0
  3066                           ; Regs used in ___lwmod: [wreg+status,2+status,0+btemp+1]
  3067                           
  3068  065E  1283               	bcf	3,5	;RP0=0, select bank0
  3069  065F  1303               	bcf	3,6	;RP1=0, select bank0
  3070  0660  0831               	movf	___lwmod@divisor,w
  3071  0661  0432               	iorwf	___lwmod@divisor+1,w
  3072  0662  1903               	btfsc	3,2
  3073  0663  2E65               	goto	u1301
  3074  0664  2E66               	goto	u1300
  3075  0665                     u1301:
  3076  0665  2E95               	goto	l1973
  3077  0666                     u1300:
  3078  0666                     l1957:
  3079  0666  01B5               	clrf	___lwmod@counter
  3080  0667  0AB5               	incf	___lwmod@counter,f
  3081  0668  2E74               	goto	l1963
  3082  0669                     l1959:
  3083  0669  3001               	movlw	1
  3084  066A                     u1315:
  3085  066A  1003               	clrc
  3086  066B  0DB1               	rlf	___lwmod@divisor,f
  3087  066C  0DB2               	rlf	___lwmod@divisor+1,f
  3088  066D  3EFF               	addlw	-1
  3089  066E  1D03               	skipz
  3090  066F  2E6A               	goto	u1315
  3091  0670                     l1961:
  3092  0670  3001               	movlw	1
  3093  0671  00FF               	movwf	btemp+1
  3094  0672  087F               	movf	btemp+1,w
  3095  0673  07B5               	addwf	___lwmod@counter,f
  3096  0674                     l1963:
  3097  0674  1FB2               	btfss	___lwmod@divisor+1,7
  3098  0675  2E77               	goto	u1321
  3099  0676  2E78               	goto	u1320
  3100  0677                     u1321:
  3101  0677  2E69               	goto	l1959
  3102  0678                     u1320:
  3103  0678                     l1965:
  3104  0678  0832               	movf	___lwmod@divisor+1,w
  3105  0679  0234               	subwf	___lwmod@dividend+1,w
  3106  067A  1D03               	skipz
  3107  067B  2E7E               	goto	u1335
  3108  067C  0831               	movf	___lwmod@divisor,w
  3109  067D  0233               	subwf	___lwmod@dividend,w
  3110  067E                     u1335:
  3111  067E  1C03               	skipc
  3112  067F  2E81               	goto	u1331
  3113  0680  2E82               	goto	u1330
  3114  0681                     u1331:
  3115  0681  2E88               	goto	l1969
  3116  0682                     u1330:
  3117  0682                     l1967:
  3118  0682  0831               	movf	___lwmod@divisor,w
  3119  0683  02B3               	subwf	___lwmod@dividend,f
  3120  0684  0832               	movf	___lwmod@divisor+1,w
  3121  0685  1C03               	skipc
  3122  0686  03B4               	decf	___lwmod@dividend+1,f
  3123  0687  02B4               	subwf	___lwmod@dividend+1,f
  3124  0688                     l1969:
  3125  0688  3001               	movlw	1
  3126  0689                     u1345:
  3127  0689  1003               	clrc
  3128  068A  0CB2               	rrf	___lwmod@divisor+1,f
  3129  068B  0CB1               	rrf	___lwmod@divisor,f
  3130  068C  3EFF               	addlw	-1
  3131  068D  1D03               	skipz
  3132  068E  2E89               	goto	u1345
  3133  068F                     l1971:
  3134  068F  3001               	movlw	1
  3135  0690  02B5               	subwf	___lwmod@counter,f
  3136  0691  1D03               	btfss	3,2
  3137  0692  2E94               	goto	u1351
  3138  0693  2E95               	goto	u1350
  3139  0694                     u1351:
  3140  0694  2E78               	goto	l1965
  3141  0695                     u1350:
  3142  0695                     l1973:
  3143  0695  0834               	movf	___lwmod@dividend+1,w
  3144  0696  00B2               	movwf	?___lwmod+1
  3145  0697  0833               	movf	___lwmod@dividend,w
  3146  0698  00B1               	movwf	?___lwmod
  3147  0699                     l741:
  3148  0699  0008               	return
  3149  069A                     __end_of___lwmod:
  3150                           
  3151                           	psect	text13
  3152  0551                     __ptext13:	
  3153 ;; *************** function ___lwdiv *****************
  3154 ;; Defined at:
  3155 ;;		line 5 in file "C:\Program Files\Microchip\xc8\v2.20\pic\sources\c90\common\lwdiv.c"
  3156 ;; Parameters:    Size  Location     Type
  3157 ;;  divisor         2   17[BANK0 ] unsigned int 
  3158 ;;  dividend        2   19[BANK0 ] unsigned int 
  3159 ;; Auto vars:     Size  Location     Type
  3160 ;;  quotient        2   21[BANK0 ] unsigned int 
  3161 ;;  counter         1   23[BANK0 ] unsigned char 
  3162 ;; Return value:  Size  Location     Type
  3163 ;;                  2   17[BANK0 ] unsigned int 
  3164 ;; Registers used:
  3165 ;;		wreg, status,2, status,0, btemp+1
  3166 ;; Tracked objects:
  3167 ;;		On entry : 0/0
  3168 ;;		On exit  : 0/0
  3169 ;;		Unchanged: 0/0
  3170 ;; Data sizes:     COMMON   BANK0   BANK1   BANK3   BANK2
  3171 ;;      Params:         0       4       0       0       0
  3172 ;;      Locals:         0       3       0       0       0
  3173 ;;      Temps:          0       0       0       0       0
  3174 ;;      Totals:         0       7       0       0       0
  3175 ;;Total ram usage:        7 bytes
  3176 ;; Hardware stack levels used:    1
  3177 ;; Hardware stack levels required when called:    4
  3178 ;; This function calls:
  3179 ;;		Nothing
  3180 ;; This function is called by:
  3181 ;;		_displayTempreture
  3182 ;; This function uses a non-reentrant model
  3183 ;;
  3184                           
  3185                           
  3186                           ;psect for function ___lwdiv
  3187  0551                     ___lwdiv:
  3188  0551                     l1929:	
  3189                           ;incstack = 0
  3190                           ; Regs used in ___lwdiv: [wreg+status,2+status,0+btemp+1]
  3191                           
  3192  0551  1283               	bcf	3,5	;RP0=0, select bank0
  3193  0552  1303               	bcf	3,6	;RP1=0, select bank0
  3194  0553  01B5               	clrf	___lwdiv@quotient
  3195  0554  01B6               	clrf	___lwdiv@quotient+1
  3196  0555                     l1931:
  3197  0555  0831               	movf	___lwdiv@divisor,w
  3198  0556  0432               	iorwf	___lwdiv@divisor+1,w
  3199  0557  1903               	btfsc	3,2
  3200  0558  2D5A               	goto	u1231
  3201  0559  2D5B               	goto	u1230
  3202  055A                     u1231:
  3203  055A  2D92               	goto	l1951
  3204  055B                     u1230:
  3205  055B                     l1933:
  3206  055B  01B7               	clrf	___lwdiv@counter
  3207  055C  0AB7               	incf	___lwdiv@counter,f
  3208  055D  2D69               	goto	l1939
  3209  055E                     l1935:
  3210  055E  3001               	movlw	1
  3211  055F                     u1245:
  3212  055F  1003               	clrc
  3213  0560  0DB1               	rlf	___lwdiv@divisor,f
  3214  0561  0DB2               	rlf	___lwdiv@divisor+1,f
  3215  0562  3EFF               	addlw	-1
  3216  0563  1D03               	skipz
  3217  0564  2D5F               	goto	u1245
  3218  0565                     l1937:
  3219  0565  3001               	movlw	1
  3220  0566  00FF               	movwf	btemp+1
  3221  0567  087F               	movf	btemp+1,w
  3222  0568  07B7               	addwf	___lwdiv@counter,f
  3223  0569                     l1939:
  3224  0569  1FB2               	btfss	___lwdiv@divisor+1,7
  3225  056A  2D6C               	goto	u1251
  3226  056B  2D6D               	goto	u1250
  3227  056C                     u1251:
  3228  056C  2D5E               	goto	l1935
  3229  056D                     u1250:
  3230  056D                     l1941:
  3231  056D  3001               	movlw	1
  3232  056E                     u1265:
  3233  056E  1003               	clrc
  3234  056F  0DB5               	rlf	___lwdiv@quotient,f
  3235  0570  0DB6               	rlf	___lwdiv@quotient+1,f
  3236  0571  3EFF               	addlw	-1
  3237  0572  1D03               	skipz
  3238  0573  2D6E               	goto	u1265
  3239  0574  0832               	movf	___lwdiv@divisor+1,w
  3240  0575  0234               	subwf	___lwdiv@dividend+1,w
  3241  0576  1D03               	skipz
  3242  0577  2D7A               	goto	u1275
  3243  0578  0831               	movf	___lwdiv@divisor,w
  3244  0579  0233               	subwf	___lwdiv@dividend,w
  3245  057A                     u1275:
  3246  057A  1C03               	skipc
  3247  057B  2D7D               	goto	u1271
  3248  057C  2D7E               	goto	u1270
  3249  057D                     u1271:
  3250  057D  2D85               	goto	l1947
  3251  057E                     u1270:
  3252  057E                     l1943:
  3253  057E  0831               	movf	___lwdiv@divisor,w
  3254  057F  02B3               	subwf	___lwdiv@dividend,f
  3255  0580  0832               	movf	___lwdiv@divisor+1,w
  3256  0581  1C03               	skipc
  3257  0582  03B4               	decf	___lwdiv@dividend+1,f
  3258  0583  02B4               	subwf	___lwdiv@dividend+1,f
  3259  0584                     l1945:
  3260  0584  1435               	bsf	___lwdiv@quotient,0
  3261  0585                     l1947:
  3262  0585  3001               	movlw	1
  3263  0586                     u1285:
  3264  0586  1003               	clrc
  3265  0587  0CB2               	rrf	___lwdiv@divisor+1,f
  3266  0588  0CB1               	rrf	___lwdiv@divisor,f
  3267  0589  3EFF               	addlw	-1
  3268  058A  1D03               	skipz
  3269  058B  2D86               	goto	u1285
  3270  058C                     l1949:
  3271  058C  3001               	movlw	1
  3272  058D  02B7               	subwf	___lwdiv@counter,f
  3273  058E  1D03               	btfss	3,2
  3274  058F  2D91               	goto	u1291
  3275  0590  2D92               	goto	u1290
  3276  0591                     u1291:
  3277  0591  2D6D               	goto	l1941
  3278  0592                     u1290:
  3279  0592                     l1951:
  3280  0592  0836               	movf	___lwdiv@quotient+1,w
  3281  0593  00B2               	movwf	?___lwdiv+1
  3282  0594  0835               	movf	___lwdiv@quotient,w
  3283  0595  00B1               	movwf	?___lwdiv
  3284  0596                     l731:
  3285  0596  0008               	return
  3286  0597                     __end_of___lwdiv:
  3287                           
  3288                           	psect	text14
  3289  0F9A                     __ptext14:	
  3290 ;; *************** function _coolerOn *****************
  3291 ;; Defined at:
  3292 ;;		line 158 in file "main.c"
  3293 ;; Parameters:    Size  Location     Type
  3294 ;;		None
  3295 ;; Auto vars:     Size  Location     Type
  3296 ;;		None
  3297 ;; Return value:  Size  Location     Type
  3298 ;;                  1    wreg      void 
  3299 ;; Registers used:
  3300 ;;		None
  3301 ;; Tracked objects:
  3302 ;;		On entry : 0/0
  3303 ;;		On exit  : 0/0
  3304 ;;		Unchanged: 0/0
  3305 ;; Data sizes:     COMMON   BANK0   BANK1   BANK3   BANK2
  3306 ;;      Params:         0       0       0       0       0
  3307 ;;      Locals:         0       0       0       0       0
  3308 ;;      Temps:          0       0       0       0       0
  3309 ;;      Totals:         0       0       0       0       0
  3310 ;;Total ram usage:        0 bytes
  3311 ;; Hardware stack levels used:    1
  3312 ;; Hardware stack levels required when called:    4
  3313 ;; This function calls:
  3314 ;;		Nothing
  3315 ;; This function is called by:
  3316 ;;		_on_state
  3317 ;; This function uses a non-reentrant model
  3318 ;;
  3319                           
  3320                           
  3321                           ;psect for function _coolerOn
  3322  0F9A                     _coolerOn:
  3323  0F9A                     l2127:	
  3324                           ;incstack = 0
  3325                           ; Regs used in _coolerOn: []
  3326                           
  3327                           
  3328                           ;main.c: 160:     RC5 = 0;
  3329  0F9A  1283               	bcf	3,5	;RP0=0, select bank0
  3330  0F9B  1303               	bcf	3,6	;RP1=0, select bank0
  3331  0F9C  1287               	bcf	7,5	;volatile
  3332                           
  3333                           ;main.c: 161:     RC2=1;
  3334  0F9D  1507               	bsf	7,2	;volatile
  3335  0F9E                     l136:
  3336  0F9E  0008               	return
  3337  0F9F                     __end_of_coolerOn:
  3338                           
  3339                           	psect	text15
  3340  070A                     __ptext15:	
  3341 ;; *************** function _changeStatus *****************
  3342 ;; Defined at:
  3343 ;;		line 130 in file "main.c"
  3344 ;; Parameters:    Size  Location     Type
  3345 ;;		None
  3346 ;; Auto vars:     Size  Location     Type
  3347 ;;		None
  3348 ;; Return value:  Size  Location     Type
  3349 ;;                  1    wreg      void 
  3350 ;; Registers used:
  3351 ;;		wreg, status,2, status,0, btemp+1
  3352 ;; Tracked objects:
  3353 ;;		On entry : 0/0
  3354 ;;		On exit  : 0/0
  3355 ;;		Unchanged: 0/0
  3356 ;; Data sizes:     COMMON   BANK0   BANK1   BANK3   BANK2
  3357 ;;      Params:         0       0       0       0       0
  3358 ;;      Locals:         0       0       0       0       0
  3359 ;;      Temps:          0       2       0       0       0
  3360 ;;      Totals:         0       2       0       0       0
  3361 ;;Total ram usage:        2 bytes
  3362 ;; Hardware stack levels used:    1
  3363 ;; Hardware stack levels required when called:    4
  3364 ;; This function calls:
  3365 ;;		Nothing
  3366 ;; This function is called by:
  3367 ;;		_on_state
  3368 ;; This function uses a non-reentrant model
  3369 ;;
  3370                           
  3371                           
  3372                           ;psect for function _changeStatus
  3373  070A                     _changeStatus:
  3374  070A                     l2105:	
  3375                           ;incstack = 0
  3376                           ; Regs used in _changeStatus: [wreg+status,2+status,0+btemp+1]
  3377                           
  3378                           
  3379                           ;main.c: 132:     if(TEMPRETURE<TargetTempreture+5 && canuse == 1)
  3380  070A  1283               	bcf	3,5	;RP0=0, select bank0
  3381  070B  1303               	bcf	3,6	;RP1=0, select bank0
  3382  070C  0859               	movf	_TargetTempreture,w
  3383  070D  3E05               	addlw	5
  3384  070E  00B1               	movwf	??_changeStatus
  3385  070F  085A               	movf	_TargetTempreture+1,w
  3386  0710  1803               	skipnc
  3387  0711  3E01               	addlw	1
  3388  0712  3E00               	addlw	0
  3389  0713  00B2               	movwf	??_changeStatus+1
  3390  0714  0832               	movf	??_changeStatus+1,w
  3391  0715  0243               	subwf	_TEMPRETURE+1,w
  3392  0716  1D03               	skipz
  3393  0717  2F1A               	goto	u1665
  3394  0718  0831               	movf	??_changeStatus,w
  3395  0719  0242               	subwf	_TEMPRETURE,w
  3396  071A                     u1665:
  3397  071A  1803               	skipnc
  3398  071B  2F1D               	goto	u1661
  3399  071C  2F1E               	goto	u1660
  3400  071D                     u1661:
  3401  071D  2F26               	goto	l2111
  3402  071E                     u1660:
  3403  071E                     l2107:
  3404  071E  035C               	decf	_canuse,w
  3405  071F  1D03               	btfss	3,2
  3406  0720  2F22               	goto	u1671
  3407  0721  2F23               	goto	u1670
  3408  0722                     u1671:
  3409  0722  2F26               	goto	l2111
  3410  0723                     u1670:
  3411  0723                     l2109:
  3412                           
  3413                           ;main.c: 133:     {;main.c: 134:         temp_state=UPOVE_state;
  3414  0723  01C8               	clrf	_temp_state
  3415  0724  0AC8               	incf	_temp_state,f
  3416                           
  3417                           ;main.c: 136:     }else{
  3418  0725  2F3B               	goto	l130
  3419  0726                     l2111:
  3420                           
  3421                           ;main.c: 137:         canuse= 0;
  3422  0726  01DC               	clrf	_canuse
  3423  0727                     l2113:
  3424                           
  3425                           ;main.c: 138:         if(TEMPRETURE>TargetTempreture && canuse == 0)
  3426  0727  0843               	movf	_TEMPRETURE+1,w
  3427  0728  025A               	subwf	_TargetTempreture+1,w
  3428  0729  1D03               	skipz
  3429  072A  2F2D               	goto	u1685
  3430  072B  0842               	movf	_TEMPRETURE,w
  3431  072C  0259               	subwf	_TargetTempreture,w
  3432  072D                     u1685:
  3433  072D  1803               	skipnc
  3434  072E  2F30               	goto	u1681
  3435  072F  2F31               	goto	u1680
  3436  0730                     u1681:
  3437  0730  2F36               	goto	l128
  3438  0731                     u1680:
  3439  0731                     l2115:
  3440  0731                     l2117:
  3441                           
  3442                           ;main.c: 139:         {;main.c: 140:             temp_state=DOWN_state;
  3443  0731  3002               	movlw	2
  3444  0732  00FF               	movwf	btemp+1
  3445  0733  087F               	movf	btemp+1,w
  3446  0734  00C8               	movwf	_temp_state
  3447                           
  3448                           ;main.c: 141:         }
  3449  0735  2F3B               	goto	l130
  3450  0736                     l128:	
  3451                           ;main.c: 142:         else{
  3452                           
  3453                           
  3454                           ;main.c: 143:             canuse= 1;
  3455  0736  01DC               	clrf	_canuse
  3456  0737  0ADC               	incf	_canuse,f
  3457  0738                     l2119:
  3458                           
  3459                           ;main.c: 144:             temp_state=OK_state;
  3460  0738  01C8               	clrf	_temp_state
  3461  0739                     l2121:
  3462                           
  3463                           ;main.c: 145:             RC2=0;
  3464  0739  1107               	bcf	7,2	;volatile
  3465  073A                     l2123:
  3466                           
  3467                           ;main.c: 146:             RC5=0;
  3468  073A  1287               	bcf	7,5	;volatile
  3469  073B                     l130:
  3470  073B  0008               	return
  3471  073C                     __end_of_changeStatus:
  3472                           
  3473                           	psect	text16
  3474  0F95                     __ptext16:	
  3475 ;; *************** function _off_state *****************
  3476 ;; Defined at:
  3477 ;;		line 47 in file "main.c"
  3478 ;; Parameters:    Size  Location     Type
  3479 ;;		None
  3480 ;; Auto vars:     Size  Location     Type
  3481 ;;		None
  3482 ;; Return value:  Size  Location     Type
  3483 ;;                  1    wreg      void 
  3484 ;; Registers used:
  3485 ;;		None
  3486 ;; Tracked objects:
  3487 ;;		On entry : 0/0
  3488 ;;		On exit  : 0/0
  3489 ;;		Unchanged: 0/0
  3490 ;; Data sizes:     COMMON   BANK0   BANK1   BANK3   BANK2
  3491 ;;      Params:         0       0       0       0       0
  3492 ;;      Locals:         0       0       0       0       0
  3493 ;;      Temps:          0       0       0       0       0
  3494 ;;      Totals:         0       0       0       0       0
  3495 ;;Total ram usage:        0 bytes
  3496 ;; Hardware stack levels used:    1
  3497 ;; Hardware stack levels required when called:    4
  3498 ;; This function calls:
  3499 ;;		Nothing
  3500 ;; This function is called by:
  3501 ;;		_main
  3502 ;; This function uses a non-reentrant model
  3503 ;;
  3504                           
  3505                           
  3506                           ;psect for function _off_state
  3507  0F95                     _off_state:
  3508  0F95                     l2229:	
  3509                           ;incstack = 0
  3510                           ; Regs used in _off_state: []
  3511                           
  3512                           
  3513                           ;main.c: 49:     RC2=0;
  3514  0F95  1283               	bcf	3,5	;RP0=0, select bank0
  3515  0F96  1303               	bcf	3,6	;RP1=0, select bank0
  3516  0F97  1107               	bcf	7,2	;volatile
  3517                           
  3518                           ;main.c: 50:     RC5=0;
  3519  0F98  1287               	bcf	7,5	;volatile
  3520  0F99                     l101:
  3521  0F99  0008               	return
  3522  0F9A                     __end_of_off_state:
  3523                           
  3524                           	psect	text17
  3525  0FBC                     __ptext17:	
  3526 ;; *************** function _adc_init *****************
  3527 ;; Defined at:
  3528 ;;		line 30 in file "adc.c"
  3529 ;; Parameters:    Size  Location     Type
  3530 ;;		None
  3531 ;; Auto vars:     Size  Location     Type
  3532 ;;		None
  3533 ;; Return value:  Size  Location     Type
  3534 ;;                  1    wreg      void 
  3535 ;; Registers used:
  3536 ;;		wreg
  3537 ;; Tracked objects:
  3538 ;;		On entry : 0/0
  3539 ;;		On exit  : 0/0
  3540 ;;		Unchanged: 0/0
  3541 ;; Data sizes:     COMMON   BANK0   BANK1   BANK3   BANK2
  3542 ;;      Params:         0       0       0       0       0
  3543 ;;      Locals:         0       0       0       0       0
  3544 ;;      Temps:          0       0       0       0       0
  3545 ;;      Totals:         0       0       0       0       0
  3546 ;;Total ram usage:        0 bytes
  3547 ;; Hardware stack levels used:    1
  3548 ;; Hardware stack levels required when called:    4
  3549 ;; This function calls:
  3550 ;;		Nothing
  3551 ;; This function is called by:
  3552 ;;		_main
  3553 ;; This function uses a non-reentrant model
  3554 ;;
  3555                           
  3556                           
  3557                           ;psect for function _adc_init
  3558  0FBC                     _adc_init:
  3559  0FBC                     l2275:	
  3560                           ;incstack = 0
  3561                           ; Regs used in _adc_init: [wreg]
  3562                           
  3563                           
  3564                           ;adc.c: 33:   ADCON1=0x02;
  3565  0FBC  3002               	movlw	2
  3566  0FBD  1683               	bsf	3,5	;RP0=1, select bank1
  3567  0FBE  1303               	bcf	3,6	;RP1=0, select bank1
  3568  0FBF  009F               	movwf	31	;volatile
  3569                           
  3570                           ;adc.c: 34:   ADCON0=0x41;
  3571  0FC0  3041               	movlw	65
  3572  0FC1  1283               	bcf	3,5	;RP0=0, select bank0
  3573  0FC2  1303               	bcf	3,6	;RP1=0, select bank0
  3574  0FC3  009F               	movwf	31	;volatile
  3575  0FC4                     l210:
  3576  0FC4  0008               	return
  3577  0FC5                     __end_of_adc_init:
  3578                           
  3579                           	psect	text18
  3580  07ED                     __ptext18:	
  3581 ;; *************** function _TIMER1_init *****************
  3582 ;; Defined at:
  3583 ;;		line 370 in file "main.c"
  3584 ;; Parameters:    Size  Location     Type
  3585 ;;		None
  3586 ;; Auto vars:     Size  Location     Type
  3587 ;;		None
  3588 ;; Return value:  Size  Location     Type
  3589 ;;                  1    wreg      void 
  3590 ;; Registers used:
  3591 ;;		None
  3592 ;; Tracked objects:
  3593 ;;		On entry : 0/0
  3594 ;;		On exit  : 0/0
  3595 ;;		Unchanged: 0/0
  3596 ;; Data sizes:     COMMON   BANK0   BANK1   BANK3   BANK2
  3597 ;;      Params:         0       0       0       0       0
  3598 ;;      Locals:         0       0       0       0       0
  3599 ;;      Temps:          0       0       0       0       0
  3600 ;;      Totals:         0       0       0       0       0
  3601 ;;Total ram usage:        0 bytes
  3602 ;; Hardware stack levels used:    1
  3603 ;; Hardware stack levels required when called:    4
  3604 ;; This function calls:
  3605 ;;		Nothing
  3606 ;; This function is called by:
  3607 ;;		_main
  3608 ;; This function uses a non-reentrant model
  3609 ;;
  3610                           
  3611                           
  3612                           ;psect for function _TIMER1_init
  3613  07ED                     _TIMER1_init:
  3614  07ED                     l2259:	
  3615                           ;incstack = 0
  3616                           ; Regs used in _TIMER1_init: []
  3617                           
  3618                           
  3619                           ;main.c: 373:     TMR1 = 15535;
  3620  07ED  303C               	movlw	60
  3621  07EE  1283               	bcf	3,5	;RP0=0, select bank0
  3622  07EF  1303               	bcf	3,6	;RP1=0, select bank0
  3623  07F0  008F               	movwf	15	;volatile
  3624  07F1  30AF               	movlw	175
  3625  07F2  008E               	movwf	14	;volatile
  3626                           
  3627                           ;main.c: 375:     TMR1CS = 0;
  3628  07F3  1090               	bcf	16,1	;volatile
  3629                           
  3630                           ;main.c: 377:     T1CKPS0 = 0;
  3631  07F4  1210               	bcf	16,4	;volatile
  3632                           
  3633                           ;main.c: 378:     T1CKPS1 = 0;
  3634  07F5  1290               	bcf	16,5	;volatile
  3635                           
  3636                           ;main.c: 381:     TMR1IE = 1;
  3637  07F6  1683               	bsf	3,5	;RP0=1, select bank1
  3638  07F7  1303               	bcf	3,6	;RP1=0, select bank1
  3639  07F8  140C               	bsf	12,0	;volatile
  3640                           
  3641                           ;main.c: 382:     TMR1IF = 0;
  3642  07F9  1283               	bcf	3,5	;RP0=0, select bank0
  3643  07FA  1303               	bcf	3,6	;RP1=0, select bank0
  3644  07FB  100C               	bcf	12,0	;volatile
  3645                           
  3646                           ;main.c: 383:     PEIE = 1;
  3647  07FC  170B               	bsf	11,6	;volatile
  3648  07FD                     l197:
  3649  07FD  0008               	return
  3650  07FE                     __end_of_TIMER1_init:
  3651                           
  3652                           	psect	text19
  3653  0FA4                     __ptext19:	
  3654 ;; *************** function _IRQ_RB0_init *****************
  3655 ;; Defined at:
  3656 ;;		line 360 in file "main.c"
  3657 ;; Parameters:    Size  Location     Type
  3658 ;;		None
  3659 ;; Auto vars:     Size  Location     Type
  3660 ;;		None
  3661 ;; Return value:  Size  Location     Type
  3662 ;;                  1    wreg      void 
  3663 ;; Registers used:
  3664 ;;		None
  3665 ;; Tracked objects:
  3666 ;;		On entry : 0/0
  3667 ;;		On exit  : 0/0
  3668 ;;		Unchanged: 0/0
  3669 ;; Data sizes:     COMMON   BANK0   BANK1   BANK3   BANK2
  3670 ;;      Params:         0       0       0       0       0
  3671 ;;      Locals:         0       0       0       0       0
  3672 ;;      Temps:          0       0       0       0       0
  3673 ;;      Totals:         0       0       0       0       0
  3674 ;;Total ram usage:        0 bytes
  3675 ;; Hardware stack levels used:    1
  3676 ;; Hardware stack levels required when called:    4
  3677 ;; This function calls:
  3678 ;;		Nothing
  3679 ;; This function is called by:
  3680 ;;		_main
  3681 ;; This function uses a non-reentrant model
  3682 ;;
  3683                           
  3684                           
  3685                           ;psect for function _IRQ_RB0_init
  3686  0FA4                     _IRQ_RB0_init:
  3687  0FA4                     l2261:	
  3688                           ;incstack = 0
  3689                           ; Regs used in _IRQ_RB0_init: []
  3690                           
  3691                           
  3692                           ;main.c: 362:     INTE = 1;
  3693  0FA4  160B               	bsf	11,4	;volatile
  3694                           
  3695                           ;main.c: 364:     INTEDG = 0;
  3696  0FA5  1683               	bsf	3,5	;RP0=1, select bank1
  3697  0FA6  1303               	bcf	3,6	;RP1=0, select bank1
  3698  0FA7  1301               	bcf	1,6	;volatile
  3699                           
  3700                           ;main.c: 366:     GIE = 1;
  3701  0FA8  178B               	bsf	11,7	;volatile
  3702  0FA9                     l194:
  3703  0FA9  0008               	return
  3704  0FAA                     __end_of_IRQ_RB0_init:
  3705                           
  3706                           	psect	text20
  3707  0597                     __ptext20:	
  3708 ;; *************** function _I2C_Master_Init *****************
  3709 ;; Defined at:
  3710 ;;		line 9 in file "ext_eeprom.c"
  3711 ;; Parameters:    Size  Location     Type
  3712 ;;  baud            4    0[BANK1 ] const unsigned long 
  3713 ;; Auto vars:     Size  Location     Type
  3714 ;;		None
  3715 ;; Return value:  Size  Location     Type
  3716 ;;                  1    wreg      void 
  3717 ;; Registers used:
  3718 ;;		wreg, status,2, status,0, btemp+1, pclath, cstack
  3719 ;; Tracked objects:
  3720 ;;		On entry : 0/0
  3721 ;;		On exit  : 0/0
  3722 ;;		Unchanged: 0/0
  3723 ;; Data sizes:     COMMON   BANK0   BANK1   BANK3   BANK2
  3724 ;;      Params:         0       0       4       0       0
  3725 ;;      Locals:         0       0       0       0       0
  3726 ;;      Temps:          0       0       4       0       0
  3727 ;;      Totals:         0       0       8       0       0
  3728 ;;Total ram usage:        8 bytes
  3729 ;; Hardware stack levels used:    1
  3730 ;; Hardware stack levels required when called:    5
  3731 ;; This function calls:
  3732 ;;		___lldiv
  3733 ;; This function is called by:
  3734 ;;		_main
  3735 ;; This function uses a non-reentrant model
  3736 ;;
  3737                           
  3738                           
  3739                           ;psect for function _I2C_Master_Init
  3740  0597                     _I2C_Master_Init:
  3741  0597                     l2825:	
  3742                           ;incstack = 0
  3743                           ; Regs used in _I2C_Master_Init: [wreg+status,2+status,0+btemp+1+pclath+cstack]
  3744                           
  3745                           
  3746                           ;ext_eeprom.c: 9: void I2C_Master_Init(const unsigned long baud);ext_eeprom.c: 10: {;ext
      +                          _eeprom.c: 11:   SSPCON = 0b00101000;
  3747  0597  3028               	movlw	40
  3748  0598  1283               	bcf	3,5	;RP0=0, select bank0
  3749  0599  1303               	bcf	3,6	;RP1=0, select bank0
  3750  059A  0094               	movwf	20	;volatile
  3751  059B                     l2827:
  3752                           
  3753                           ;ext_eeprom.c: 12:   SSPCON2 = 0;
  3754  059B  1683               	bsf	3,5	;RP0=1, select bank1
  3755  059C  1303               	bcf	3,6	;RP1=0, select bank1
  3756  059D  0191               	clrf	17	;volatile
  3757  059E                     l2829:
  3758                           
  3759                           ;ext_eeprom.c: 13:   SSPADD = (8000000/(4*baud))-1;
  3760  059E  0820               	movf	I2C_Master_Init@baud^(0+128),w
  3761  059F  00A4               	movwf	??_I2C_Master_Init^(0+128)
  3762  05A0  0821               	movf	(I2C_Master_Init@baud+1)^(0+128),w
  3763  05A1  00A5               	movwf	(??_I2C_Master_Init^(0+128)+1)
  3764  05A2  0822               	movf	(I2C_Master_Init@baud+2)^(0+128),w
  3765  05A3  00A6               	movwf	(??_I2C_Master_Init^(0+128)+2)
  3766  05A4  0823               	movf	(I2C_Master_Init@baud+3)^(0+128),w
  3767  05A5  00A7               	movwf	(??_I2C_Master_Init^(0+128)+3)
  3768  05A6  3002               	movlw	2
  3769  05A7                     u2405:
  3770  05A7  1003               	clrc
  3771  05A8  0DA4               	rlf	??_I2C_Master_Init^(0+128),f
  3772  05A9  0DA5               	rlf	(??_I2C_Master_Init^(0+128)+1),f
  3773  05AA  0DA6               	rlf	(??_I2C_Master_Init^(0+128)+2),f
  3774  05AB  0DA7               	rlf	(??_I2C_Master_Init^(0+128)+3),f
  3775  05AC                     u2400:
  3776  05AC  3EFF               	addlw	-1
  3777  05AD  1D03               	skipz
  3778  05AE  2DA7               	goto	u2405
  3779  05AF  0827               	movf	(??_I2C_Master_Init+3)^(0+128),w
  3780  05B0  1283               	bcf	3,5	;RP0=0, select bank0
  3781  05B1  1303               	bcf	3,6	;RP1=0, select bank0
  3782  05B2  00B4               	movwf	___lldiv@divisor+3
  3783  05B3  1683               	bsf	3,5	;RP0=1, select bank1
  3784  05B4  1303               	bcf	3,6	;RP1=0, select bank1
  3785  05B5  0826               	movf	(??_I2C_Master_Init+2)^(0+128),w
  3786  05B6  1283               	bcf	3,5	;RP0=0, select bank0
  3787  05B7  1303               	bcf	3,6	;RP1=0, select bank0
  3788  05B8  00B3               	movwf	___lldiv@divisor+2
  3789  05B9  1683               	bsf	3,5	;RP0=1, select bank1
  3790  05BA  1303               	bcf	3,6	;RP1=0, select bank1
  3791  05BB  0825               	movf	(??_I2C_Master_Init+1)^(0+128),w
  3792  05BC  1283               	bcf	3,5	;RP0=0, select bank0
  3793  05BD  1303               	bcf	3,6	;RP1=0, select bank0
  3794  05BE  00B2               	movwf	___lldiv@divisor+1
  3795  05BF  1683               	bsf	3,5	;RP0=1, select bank1
  3796  05C0  1303               	bcf	3,6	;RP1=0, select bank1
  3797  05C1  0824               	movf	??_I2C_Master_Init^(0+128),w
  3798  05C2  1283               	bcf	3,5	;RP0=0, select bank0
  3799  05C3  1303               	bcf	3,6	;RP1=0, select bank0
  3800  05C4  00B1               	movwf	___lldiv@divisor
  3801  05C5  3000               	movlw	0
  3802  05C6  00B8               	movwf	___lldiv@dividend+3
  3803  05C7  307A               	movlw	122
  3804  05C8  00B7               	movwf	___lldiv@dividend+2
  3805  05C9  3012               	movlw	18
  3806  05CA  00B6               	movwf	___lldiv@dividend+1
  3807  05CB  3000               	movlw	0
  3808  05CC  00B5               	movwf	___lldiv@dividend
  3809  05CD  120A  118A  227E  120A  118A  	fcall	___lldiv
  3810  05D2  1283               	bcf	3,5	;RP0=0, select bank0
  3811  05D3  1303               	bcf	3,6	;RP1=0, select bank0
  3812  05D4  0831               	movf	?___lldiv,w
  3813  05D5  3EFF               	addlw	255
  3814  05D6  1683               	bsf	3,5	;RP0=1, select bank1
  3815  05D7  1303               	bcf	3,6	;RP1=0, select bank1
  3816  05D8  0093               	movwf	19	;volatile
  3817  05D9                     l2831:
  3818                           
  3819                           ;ext_eeprom.c: 14:   SSPSTAT = 0;
  3820  05D9  0194               	clrf	20	;volatile
  3821  05DA                     l2833:
  3822                           
  3823                           ;ext_eeprom.c: 15:   TRISC3 = 1;
  3824  05DA  1587               	bsf	7,3	;volatile
  3825  05DB                     l2835:
  3826                           
  3827                           ;ext_eeprom.c: 16:   TRISC4 = 1;
  3828  05DB  1607               	bsf	7,4	;volatile
  3829  05DC                     l313:
  3830  05DC  0008               	return
  3831  05DD                     __end_of_I2C_Master_Init:
  3832                           
  3833                           	psect	text21
  3834  027E                     __ptext21:	
  3835 ;; *************** function ___lldiv *****************
  3836 ;; Defined at:
  3837 ;;		line 5 in file "C:\Program Files\Microchip\xc8\v2.20\pic\sources\c90\common\__lldiv.c"
  3838 ;; Parameters:    Size  Location     Type
  3839 ;;  divisor         4   17[BANK0 ] unsigned long 
  3840 ;;  dividend        4   21[BANK0 ] unsigned long 
  3841 ;; Auto vars:     Size  Location     Type
  3842 ;;  quotient        4   26[BANK0 ] unsigned long 
  3843 ;;  counter         1   30[BANK0 ] unsigned char 
  3844 ;; Return value:  Size  Location     Type
  3845 ;;                  4   17[BANK0 ] unsigned long 
  3846 ;; Registers used:
  3847 ;;		wreg, status,2, status,0, btemp+1
  3848 ;; Tracked objects:
  3849 ;;		On entry : 0/0
  3850 ;;		On exit  : 0/0
  3851 ;;		Unchanged: 0/0
  3852 ;; Data sizes:     COMMON   BANK0   BANK1   BANK3   BANK2
  3853 ;;      Params:         0       8       0       0       0
  3854 ;;      Locals:         0       5       0       0       0
  3855 ;;      Temps:          0       1       0       0       0
  3856 ;;      Totals:         0      14       0       0       0
  3857 ;;Total ram usage:       14 bytes
  3858 ;; Hardware stack levels used:    1
  3859 ;; Hardware stack levels required when called:    4
  3860 ;; This function calls:
  3861 ;;		Nothing
  3862 ;; This function is called by:
  3863 ;;		_I2C_Master_Init
  3864 ;; This function uses a non-reentrant model
  3865 ;;
  3866                           
  3867                           
  3868                           ;psect for function ___lldiv
  3869  027E                     ___lldiv:
  3870  027E                     l2203:	
  3871                           ;incstack = 0
  3872                           ; Regs used in ___lldiv: [wreg+status,2+status,0+btemp+1]
  3873                           
  3874  027E  3000               	movlw	0
  3875  027F  1283               	bcf	3,5	;RP0=0, select bank0
  3876  0280  1303               	bcf	3,6	;RP1=0, select bank0
  3877  0281  00BD               	movwf	___lldiv@quotient+3
  3878  0282  3000               	movlw	0
  3879  0283  00BC               	movwf	___lldiv@quotient+2
  3880  0284  3000               	movlw	0
  3881  0285  00BB               	movwf	___lldiv@quotient+1
  3882  0286  3000               	movlw	0
  3883  0287  00BA               	movwf	___lldiv@quotient
  3884  0288  0834               	movf	___lldiv@divisor+3,w
  3885  0289  0433               	iorwf	___lldiv@divisor+2,w
  3886  028A  0432               	iorwf	___lldiv@divisor+1,w
  3887  028B  0431               	iorwf	___lldiv@divisor,w
  3888  028C  1903               	skipnz
  3889  028D  2A8F               	goto	u1771
  3890  028E  2A90               	goto	u1770
  3891  028F                     u1771:
  3892  028F  2ADD               	goto	l2225
  3893  0290                     u1770:
  3894  0290                     l2205:
  3895  0290  01BE               	clrf	___lldiv@counter
  3896  0291  0ABE               	incf	___lldiv@counter,f
  3897  0292  2AA0               	goto	l2211
  3898  0293                     l2207:
  3899  0293  3001               	movlw	1
  3900  0294  00B9               	movwf	??___lldiv
  3901  0295                     u1785:
  3902  0295  1003               	clrc
  3903  0296  0DB1               	rlf	___lldiv@divisor,f
  3904  0297  0DB2               	rlf	___lldiv@divisor+1,f
  3905  0298  0DB3               	rlf	___lldiv@divisor+2,f
  3906  0299  0DB4               	rlf	___lldiv@divisor+3,f
  3907  029A  0BB9               	decfsz	??___lldiv,f
  3908  029B  2A95               	goto	u1785
  3909  029C                     l2209:
  3910  029C  3001               	movlw	1
  3911  029D  00FF               	movwf	btemp+1
  3912  029E  087F               	movf	btemp+1,w
  3913  029F  07BE               	addwf	___lldiv@counter,f
  3914  02A0                     l2211:
  3915  02A0  1FB4               	btfss	___lldiv@divisor+3,7
  3916  02A1  2AA3               	goto	u1791
  3917  02A2  2AA4               	goto	u1790
  3918  02A3                     u1791:
  3919  02A3  2A93               	goto	l2207
  3920  02A4                     u1790:
  3921  02A4                     l2213:
  3922  02A4  3001               	movlw	1
  3923  02A5  00B9               	movwf	??___lldiv
  3924  02A6                     u1805:
  3925  02A6  1003               	clrc
  3926  02A7  0DBA               	rlf	___lldiv@quotient,f
  3927  02A8  0DBB               	rlf	___lldiv@quotient+1,f
  3928  02A9  0DBC               	rlf	___lldiv@quotient+2,f
  3929  02AA  0DBD               	rlf	___lldiv@quotient+3,f
  3930  02AB  0BB9               	decfsz	??___lldiv,f
  3931  02AC  2AA6               	goto	u1805
  3932  02AD                     l2215:
  3933  02AD  0834               	movf	___lldiv@divisor+3,w
  3934  02AE  0238               	subwf	___lldiv@dividend+3,w
  3935  02AF  1D03               	skipz
  3936  02B0  2ABB               	goto	u1815
  3937  02B1  0833               	movf	___lldiv@divisor+2,w
  3938  02B2  0237               	subwf	___lldiv@dividend+2,w
  3939  02B3  1D03               	skipz
  3940  02B4  2ABB               	goto	u1815
  3941  02B5  0832               	movf	___lldiv@divisor+1,w
  3942  02B6  0236               	subwf	___lldiv@dividend+1,w
  3943  02B7  1D03               	skipz
  3944  02B8  2ABB               	goto	u1815
  3945  02B9  0831               	movf	___lldiv@divisor,w
  3946  02BA  0235               	subwf	___lldiv@dividend,w
  3947  02BB                     u1815:
  3948  02BB  1C03               	skipc
  3949  02BC  2ABE               	goto	u1811
  3950  02BD  2ABF               	goto	u1810
  3951  02BE                     u1811:
  3952  02BE  2ACE               	goto	l2221
  3953  02BF                     u1810:
  3954  02BF                     l2217:
  3955  02BF  0831               	movf	___lldiv@divisor,w
  3956  02C0  02B5               	subwf	___lldiv@dividend,f
  3957  02C1  0832               	movf	___lldiv@divisor+1,w
  3958  02C2  1C03               	skipc
  3959  02C3  0F32               	incfsz	___lldiv@divisor+1,w
  3960  02C4  02B6               	subwf	___lldiv@dividend+1,f
  3961  02C5  0833               	movf	___lldiv@divisor+2,w
  3962  02C6  1C03               	skipc
  3963  02C7  0F33               	incfsz	___lldiv@divisor+2,w
  3964  02C8  02B7               	subwf	___lldiv@dividend+2,f
  3965  02C9  0834               	movf	___lldiv@divisor+3,w
  3966  02CA  1C03               	skipc
  3967  02CB  0F34               	incfsz	___lldiv@divisor+3,w
  3968  02CC  02B8               	subwf	___lldiv@dividend+3,f
  3969  02CD                     l2219:
  3970  02CD  143A               	bsf	___lldiv@quotient,0
  3971  02CE                     l2221:
  3972  02CE  3001               	movlw	1
  3973  02CF                     u1825:
  3974  02CF  1003               	clrc
  3975  02D0  0CB4               	rrf	___lldiv@divisor+3,f
  3976  02D1  0CB3               	rrf	___lldiv@divisor+2,f
  3977  02D2  0CB2               	rrf	___lldiv@divisor+1,f
  3978  02D3  0CB1               	rrf	___lldiv@divisor,f
  3979  02D4  3EFF               	addlw	-1
  3980  02D5  1D03               	skipz
  3981  02D6  2ACF               	goto	u1825
  3982  02D7                     l2223:
  3983  02D7  3001               	movlw	1
  3984  02D8  02BE               	subwf	___lldiv@counter,f
  3985  02D9  1D03               	btfss	3,2
  3986  02DA  2ADC               	goto	u1831
  3987  02DB  2ADD               	goto	u1830
  3988  02DC                     u1831:
  3989  02DC  2AA4               	goto	l2213
  3990  02DD                     u1830:
  3991  02DD                     l2225:
  3992  02DD  083D               	movf	___lldiv@quotient+3,w
  3993  02DE  00B4               	movwf	?___lldiv+3
  3994  02DF  083C               	movf	___lldiv@quotient+2,w
  3995  02E0  00B3               	movwf	?___lldiv+2
  3996  02E1  083B               	movf	___lldiv@quotient+1,w
  3997  02E2  00B2               	movwf	?___lldiv+1
  3998  02E3  083A               	movf	___lldiv@quotient,w
  3999  02E4  00B1               	movwf	?___lldiv
  4000  02E5                     l495:
  4001  02E5  0008               	return
  4002  02E6                     __end_of___lldiv:
  4003                           
  4004                           	psect	text22
  4005  06D4                     __ptext22:	
  4006 ;; *************** function _EEPROM_Read *****************
  4007 ;; Defined at:
  4008 ;;		line 98 in file "ext_eeprom.c"
  4009 ;; Parameters:    Size  Location     Type
  4010 ;;  add             2   18[BANK0 ] unsigned int 
  4011 ;; Auto vars:     Size  Location     Type
  4012 ;;  Data            1   20[BANK0 ] unsigned char 
  4013 ;; Return value:  Size  Location     Type
  4014 ;;                  1    wreg      unsigned char 
  4015 ;; Registers used:
  4016 ;;		wreg, status,2, status,0, btemp+1, pclath, cstack
  4017 ;; Tracked objects:
  4018 ;;		On entry : 0/0
  4019 ;;		On exit  : 0/0
  4020 ;;		Unchanged: 0/0
  4021 ;; Data sizes:     COMMON   BANK0   BANK1   BANK3   BANK2
  4022 ;;      Params:         0       2       0       0       0
  4023 ;;      Locals:         0       1       0       0       0
  4024 ;;      Temps:          0       0       0       0       0
  4025 ;;      Totals:         0       3       0       0       0
  4026 ;;Total ram usage:        3 bytes
  4027 ;; Hardware stack levels used:    1
  4028 ;; Hardware stack levels required when called:    6
  4029 ;; This function calls:
  4030 ;;		_I2C_Master_Start
  4031 ;;		_I2C_Master_Stop
  4032 ;;		_I2C_Master_Write
  4033 ;;		_I2C_NACK
  4034 ;;		_I2C_Read_Byte
  4035 ;; This function is called by:
  4036 ;;		_main
  4037 ;; This function uses a non-reentrant model
  4038 ;;
  4039                           
  4040                           
  4041                           ;psect for function _EEPROM_Read
  4042  06D4                     _EEPROM_Read:
  4043  06D4                     l2837:	
  4044                           ;incstack = 0
  4045                           ; Regs used in _EEPROM_Read: [wreg+status,2+status,0+btemp+1+pclath+cstack]
  4046                           
  4047                           
  4048                           ;ext_eeprom.c: 98: unsigned char EEPROM_Read(unsigned int add);ext_eeprom.c: 99: {;ext_e
      +                          eprom.c: 100:   unsigned char Data;;ext_eeprom.c: 101:   I2C_Master_Start();
  4049  06D4  120A  158A  27AA  120A  118A  	fcall	_I2C_Master_Start
  4050                           
  4051                           ;ext_eeprom.c: 103:   I2C_Master_Write(0xA0);
  4052  06D9  30A0               	movlw	160
  4053  06DA  120A  118A  27AD  120A  118A  	fcall	_I2C_Master_Write
  4054                           
  4055                           ;ext_eeprom.c: 104:   I2C_Master_Write(add);
  4056  06DF  1283               	bcf	3,5	;RP0=0, select bank0
  4057  06E0  1303               	bcf	3,6	;RP1=0, select bank0
  4058  06E1  0832               	movf	EEPROM_Read@add,w
  4059  06E2  120A  118A  27AD  120A  118A  	fcall	_I2C_Master_Write
  4060                           
  4061                           ;ext_eeprom.c: 105:   I2C_Master_Start();
  4062  06E7  120A  158A  27AA  120A  118A  	fcall	_I2C_Master_Start
  4063                           
  4064                           ;ext_eeprom.c: 106:   I2C_Master_Write(0xA1);
  4065  06EC  30A1               	movlw	161
  4066  06ED  120A  118A  27AD  120A  118A  	fcall	_I2C_Master_Write
  4067  06F2                     l2839:
  4068                           
  4069                           ;ext_eeprom.c: 107:   Data = I2C_Read_Byte();
  4070  06F2  120A  118A  2796  120A  118A  	fcall	_I2C_Read_Byte
  4071  06F7  00FF               	movwf	btemp+1
  4072  06F8  087F               	movf	btemp+1,w
  4073  06F9  1283               	bcf	3,5	;RP0=0, select bank0
  4074  06FA  1303               	bcf	3,6	;RP1=0, select bank0
  4075  06FB  00B4               	movwf	EEPROM_Read@Data
  4076  06FC                     l2841:
  4077                           
  4078                           ;ext_eeprom.c: 108:   I2C_NACK();
  4079  06FC  120A  158A  27D9  120A  118A  	fcall	_I2C_NACK
  4080  0701                     l2843:
  4081                           
  4082                           ;ext_eeprom.c: 109:   I2C_Master_Stop();
  4083  0701  120A  158A  27B3  120A  118A  	fcall	_I2C_Master_Stop
  4084  0706                     l2845:
  4085                           
  4086                           ;ext_eeprom.c: 110:   return Data;
  4087  0706  1283               	bcf	3,5	;RP0=0, select bank0
  4088  0707  1303               	bcf	3,6	;RP1=0, select bank0
  4089  0708  0834               	movf	EEPROM_Read@Data,w
  4090  0709                     l364:
  4091  0709  0008               	return
  4092  070A                     __end_of_EEPROM_Read:
  4093                           
  4094                           	psect	text23
  4095  0796                     __ptext23:	
  4096 ;; *************** function _I2C_Read_Byte *****************
  4097 ;; Defined at:
  4098 ;;		line 45 in file "ext_eeprom.c"
  4099 ;; Parameters:    Size  Location     Type
  4100 ;;		None
  4101 ;; Auto vars:     Size  Location     Type
  4102 ;;		None
  4103 ;; Return value:  Size  Location     Type
  4104 ;;                  1    wreg      unsigned char 
  4105 ;; Registers used:
  4106 ;;		wreg, status,2, status,0, pclath, cstack
  4107 ;; Tracked objects:
  4108 ;;		On entry : 0/0
  4109 ;;		On exit  : 0/0
  4110 ;;		Unchanged: 0/0
  4111 ;; Data sizes:     COMMON   BANK0   BANK1   BANK3   BANK2
  4112 ;;      Params:         0       0       0       0       0
  4113 ;;      Locals:         0       0       0       0       0
  4114 ;;      Temps:          0       0       0       0       0
  4115 ;;      Totals:         0       0       0       0       0
  4116 ;;Total ram usage:        0 bytes
  4117 ;; Hardware stack levels used:    1
  4118 ;; Hardware stack levels required when called:    5
  4119 ;; This function calls:
  4120 ;;		_I2C_Master_Wait
  4121 ;; This function is called by:
  4122 ;;		_EEPROM_Read
  4123 ;;		_EEPROM_Read_Page
  4124 ;; This function uses a non-reentrant model
  4125 ;;
  4126                           
  4127                           
  4128                           ;psect for function _I2C_Read_Byte
  4129  0796                     _I2C_Read_Byte:
  4130  0796                     l2781:	
  4131                           ;incstack = 0
  4132                           ; Regs used in _I2C_Read_Byte: [wreg+status,2+status,0+pclath+cstack]
  4133                           
  4134                           
  4135                           ;ext_eeprom.c: 48:   I2C_Master_Wait();
  4136  0796  120A  158A  27E5  120A  118A  	fcall	_I2C_Master_Wait
  4137  079B                     l2783:
  4138                           
  4139                           ;ext_eeprom.c: 49:   RCEN = 1;
  4140  079B  1683               	bsf	3,5	;RP0=1, select bank1
  4141  079C  1303               	bcf	3,6	;RP1=0, select bank1
  4142  079D  1591               	bsf	17,3	;volatile
  4143  079E                     l337:	
  4144                           ;ext_eeprom.c: 50:   while(!SSPIF);
  4145                           
  4146  079E  1283               	bcf	3,5	;RP0=0, select bank0
  4147  079F  1D8C               	btfss	12,3	;volatile
  4148  07A0  2FA2               	goto	u2371
  4149  07A1  2FA3               	goto	u2370
  4150  07A2                     u2371:
  4151  07A2  2F9E               	goto	l337
  4152  07A3                     u2370:
  4153  07A3                     l339:
  4154                           
  4155                           ;ext_eeprom.c: 51:   SSPIF = 0;
  4156  07A3  118C               	bcf	12,3	;volatile
  4157  07A4                     l2785:
  4158                           
  4159                           ;ext_eeprom.c: 52:   I2C_Master_Wait();
  4160  07A4  120A  158A  27E5  120A  118A  	fcall	_I2C_Master_Wait
  4161  07A9                     l2787:
  4162                           
  4163                           ;ext_eeprom.c: 53:   return SSPBUF;
  4164  07A9  1283               	bcf	3,5	;RP0=0, select bank0
  4165  07AA  1303               	bcf	3,6	;RP1=0, select bank0
  4166  07AB  0813               	movf	19,w	;volatile
  4167  07AC                     l340:
  4168  07AC  0008               	return
  4169  07AD                     __end_of_I2C_Read_Byte:
  4170                           
  4171                           	psect	text24
  4172  0FD9                     __ptext24:	
  4173 ;; *************** function _I2C_NACK *****************
  4174 ;; Defined at:
  4175 ;;		line 61 in file "ext_eeprom.c"
  4176 ;; Parameters:    Size  Location     Type
  4177 ;;		None
  4178 ;; Auto vars:     Size  Location     Type
  4179 ;;		None
  4180 ;; Return value:  Size  Location     Type
  4181 ;;                  1    wreg      void 
  4182 ;; Registers used:
  4183 ;;		wreg, status,2, status,0, pclath, cstack
  4184 ;; Tracked objects:
  4185 ;;		On entry : 0/0
  4186 ;;		On exit  : 0/0
  4187 ;;		Unchanged: 0/0
  4188 ;; Data sizes:     COMMON   BANK0   BANK1   BANK3   BANK2
  4189 ;;      Params:         0       0       0       0       0
  4190 ;;      Locals:         0       0       0       0       0
  4191 ;;      Temps:          0       0       0       0       0
  4192 ;;      Totals:         0       0       0       0       0
  4193 ;;Total ram usage:        0 bytes
  4194 ;; Hardware stack levels used:    1
  4195 ;; Hardware stack levels required when called:    5
  4196 ;; This function calls:
  4197 ;;		_I2C_Master_Wait
  4198 ;; This function is called by:
  4199 ;;		_EEPROM_Read
  4200 ;; This function uses a non-reentrant model
  4201 ;;
  4202                           
  4203                           
  4204                           ;psect for function _I2C_NACK
  4205  0FD9                     _I2C_NACK:
  4206  0FD9                     l2791:	
  4207                           ;incstack = 0
  4208                           ; Regs used in _I2C_NACK: [wreg+status,2+status,0+pclath+cstack]
  4209                           
  4210                           
  4211                           ;ext_eeprom.c: 63:   ACKDT = 1;
  4212  0FD9  1683               	bsf	3,5	;RP0=1, select bank1
  4213  0FDA  1303               	bcf	3,6	;RP1=0, select bank1
  4214  0FDB  1691               	bsf	17,5	;volatile
  4215  0FDC                     l2793:
  4216                           
  4217                           ;ext_eeprom.c: 64:   I2C_Master_Wait();
  4218  0FDC  120A  158A  27E5  120A  158A  	fcall	_I2C_Master_Wait
  4219  0FE1                     l2795:
  4220                           
  4221                           ;ext_eeprom.c: 65:   ACKEN = 1;
  4222  0FE1  1683               	bsf	3,5	;RP0=1, select bank1
  4223  0FE2  1303               	bcf	3,6	;RP1=0, select bank1
  4224  0FE3  1611               	bsf	17,4	;volatile
  4225  0FE4                     l346:
  4226  0FE4  0008               	return
  4227  0FE5                     __end_of_I2C_NACK:
  4228                           
  4229                           	psect	text25
  4230  07AD                     __ptext25:	
  4231 ;; *************** function _I2C_Master_Write *****************
  4232 ;; Defined at:
  4233 ;;		line 37 in file "ext_eeprom.c"
  4234 ;; Parameters:    Size  Location     Type
  4235 ;;  data            1    wreg     unsigned char 
  4236 ;; Auto vars:     Size  Location     Type
  4237 ;;  data            1   17[BANK0 ] unsigned char 
  4238 ;; Return value:  Size  Location     Type
  4239 ;;                  1    wreg      unsigned char 
  4240 ;; Registers used:
  4241 ;;		wreg, status,2, status,0, pclath, cstack
  4242 ;; Tracked objects:
  4243 ;;		On entry : 0/0
  4244 ;;		On exit  : 0/0
  4245 ;;		Unchanged: 0/0
  4246 ;; Data sizes:     COMMON   BANK0   BANK1   BANK3   BANK2
  4247 ;;      Params:         0       0       0       0       0
  4248 ;;      Locals:         0       1       0       0       0
  4249 ;;      Temps:          0       0       0       0       0
  4250 ;;      Totals:         0       1       0       0       0
  4251 ;;Total ram usage:        1 bytes
  4252 ;; Hardware stack levels used:    1
  4253 ;; Hardware stack levels required when called:    5
  4254 ;; This function calls:
  4255 ;;		_I2C_Master_Wait
  4256 ;; This function is called by:
  4257 ;;		_EEPROM_Write
  4258 ;;		_EEPROM_Read
  4259 ;;		_EEPROM_Write_Page
  4260 ;;		_EEPROM_Read_Page
  4261 ;; This function uses a non-reentrant model
  4262 ;;
  4263                           
  4264                           
  4265                           ;psect for function _I2C_Master_Write
  4266  07AD                     _I2C_Master_Write:
  4267                           
  4268                           ;incstack = 0
  4269 ;; hardware stack exceeded
  4270                           ; Regs used in _I2C_Master_Write: [wreg+status,2+status,0+pclath+cstack]
  4271                           ;I2C_Master_Write@data stored from wreg
  4272  07AD  1283               	bcf	3,5	;RP0=0, select bank0
  4273  07AE  1303               	bcf	3,6	;RP1=0, select bank0
  4274  07AF  00B1               	movwf	I2C_Master_Write@data
  4275  07B0                     l2569:
  4276                           
  4277                           ;ext_eeprom.c: 37: unsigned char I2C_Master_Write(unsigned char data);ext_eeprom.c: 38: 
      +                          {;ext_eeprom.c: 39:   I2C_Master_Wait();
  4278  07B0  120A  158A  27E5  120A  118A  	fcall	_I2C_Master_Wait
  4279  07B5                     l2571:
  4280                           
  4281                           ;ext_eeprom.c: 40:   SSPBUF = data;
  4282  07B5  1283               	bcf	3,5	;RP0=0, select bank0
  4283  07B6  1303               	bcf	3,6	;RP1=0, select bank0
  4284  07B7  0831               	movf	I2C_Master_Write@data,w
  4285  07B8  0093               	movwf	19	;volatile
  4286  07B9                     l331:	
  4287                           ;ext_eeprom.c: 41:   while(!SSPIF);
  4288                           
  4289  07B9  1D8C               	btfss	12,3	;volatile
  4290  07BA  2FBC               	goto	u1991
  4291  07BB  2FBD               	goto	u1990
  4292  07BC                     u1991:
  4293  07BC  2FB9               	goto	l331
  4294  07BD                     u1990:
  4295  07BD                     l333:
  4296                           
  4297                           ;ext_eeprom.c: 42:   SSPIF = 0;
  4298  07BD  118C               	bcf	12,3	;volatile
  4299  07BE                     l2573:
  4300                           
  4301                           ;ext_eeprom.c: 43:   return ACKSTAT;
  4302  07BE  3000               	movlw	0
  4303  07BF  1683               	bsf	3,5	;RP0=1, select bank1
  4304  07C0  1303               	bcf	3,6	;RP1=0, select bank1
  4305  07C1  1B11               	btfsc	17,6	;volatile
  4306  07C2  3001               	movlw	1
  4307  07C3                     l334:
  4308  07C3  0008               	return
  4309  07C4                     __end_of_I2C_Master_Write:
  4310                           
  4311                           	psect	text26
  4312  0FB3                     __ptext26:	
  4313 ;; *************** function _I2C_Master_Stop *****************
  4314 ;; Defined at:
  4315 ;;		line 32 in file "ext_eeprom.c"
  4316 ;; Parameters:    Size  Location     Type
  4317 ;;		None
  4318 ;; Auto vars:     Size  Location     Type
  4319 ;;		None
  4320 ;; Return value:  Size  Location     Type
  4321 ;;                  1    wreg      void 
  4322 ;; Registers used:
  4323 ;;		wreg, status,2, status,0, pclath, cstack
  4324 ;; Tracked objects:
  4325 ;;		On entry : 0/0
  4326 ;;		On exit  : 0/0
  4327 ;;		Unchanged: 0/0
  4328 ;; Data sizes:     COMMON   BANK0   BANK1   BANK3   BANK2
  4329 ;;      Params:         0       0       0       0       0
  4330 ;;      Locals:         0       0       0       0       0
  4331 ;;      Temps:          0       0       0       0       0
  4332 ;;      Totals:         0       0       0       0       0
  4333 ;;Total ram usage:        0 bytes
  4334 ;; Hardware stack levels used:    1
  4335 ;; Hardware stack levels required when called:    5
  4336 ;; This function calls:
  4337 ;;		_I2C_Master_Wait
  4338 ;; This function is called by:
  4339 ;;		_EEPROM_Write
  4340 ;;		_EEPROM_Read
  4341 ;;		_EEPROM_Write_Page
  4342 ;;		_EEPROM_Read_Page
  4343 ;; This function uses a non-reentrant model
  4344 ;;
  4345                           
  4346                           
  4347                           ;psect for function _I2C_Master_Stop
  4348  0FB3                     _I2C_Master_Stop:
  4349  0FB3                     l2565:	
  4350                           ;incstack = 0
  4351 ;; hardware stack exceeded
  4352                           ; Regs used in _I2C_Master_Stop: [wreg+status,2+status,0+pclath+cstack]
  4353                           
  4354                           
  4355                           ;ext_eeprom.c: 34:   I2C_Master_Wait();
  4356  0FB3  120A  158A  27E5  120A  158A  	fcall	_I2C_Master_Wait
  4357  0FB8                     l2567:
  4358                           
  4359                           ;ext_eeprom.c: 35:   PEN = 1;
  4360  0FB8  1683               	bsf	3,5	;RP0=1, select bank1
  4361  0FB9  1303               	bcf	3,6	;RP1=0, select bank1
  4362  0FBA  1511               	bsf	17,2	;volatile
  4363  0FBB                     l328:
  4364  0FBB  0008               	return
  4365  0FBC                     __end_of_I2C_Master_Stop:
  4366                           
  4367                           	psect	text27
  4368  0FAA                     __ptext27:	
  4369 ;; *************** function _I2C_Master_Start *****************
  4370 ;; Defined at:
  4371 ;;		line 22 in file "ext_eeprom.c"
  4372 ;; Parameters:    Size  Location     Type
  4373 ;;		None
  4374 ;; Auto vars:     Size  Location     Type
  4375 ;;		None
  4376 ;; Return value:  Size  Location     Type
  4377 ;;                  1    wreg      void 
  4378 ;; Registers used:
  4379 ;;		wreg, status,2, status,0, pclath, cstack
  4380 ;; Tracked objects:
  4381 ;;		On entry : 0/0
  4382 ;;		On exit  : 0/0
  4383 ;;		Unchanged: 0/0
  4384 ;; Data sizes:     COMMON   BANK0   BANK1   BANK3   BANK2
  4385 ;;      Params:         0       0       0       0       0
  4386 ;;      Locals:         0       0       0       0       0
  4387 ;;      Temps:          0       0       0       0       0
  4388 ;;      Totals:         0       0       0       0       0
  4389 ;;Total ram usage:        0 bytes
  4390 ;; Hardware stack levels used:    1
  4391 ;; Hardware stack levels required when called:    5
  4392 ;; This function calls:
  4393 ;;		_I2C_Master_Wait
  4394 ;; This function is called by:
  4395 ;;		_EEPROM_Write
  4396 ;;		_EEPROM_Read
  4397 ;;		_EEPROM_Write_Page
  4398 ;;		_EEPROM_Read_Page
  4399 ;; This function uses a non-reentrant model
  4400 ;;
  4401                           
  4402                           
  4403                           ;psect for function _I2C_Master_Start
  4404  0FAA                     _I2C_Master_Start:
  4405  0FAA                     l2557:	
  4406                           ;incstack = 0
  4407 ;; hardware stack exceeded
  4408                           ; Regs used in _I2C_Master_Start: [wreg+status,2+status,0+pclath+cstack]
  4409                           
  4410                           
  4411                           ;ext_eeprom.c: 24:   I2C_Master_Wait();
  4412  0FAA  120A  158A  27E5  120A  158A  	fcall	_I2C_Master_Wait
  4413  0FAF                     l2559:
  4414                           
  4415                           ;ext_eeprom.c: 25:   SEN = 1;
  4416  0FAF  1683               	bsf	3,5	;RP0=1, select bank1
  4417  0FB0  1303               	bcf	3,6	;RP1=0, select bank1
  4418  0FB1  1411               	bsf	17,0	;volatile
  4419  0FB2                     l322:
  4420  0FB2  0008               	return
  4421  0FB3                     __end_of_I2C_Master_Start:
  4422                           
  4423                           	psect	text28
  4424  0FE5                     __ptext28:	
  4425 ;; *************** function _I2C_Master_Wait *****************
  4426 ;; Defined at:
  4427 ;;		line 18 in file "ext_eeprom.c"
  4428 ;; Parameters:    Size  Location     Type
  4429 ;;		None
  4430 ;; Auto vars:     Size  Location     Type
  4431 ;;		None
  4432 ;; Return value:  Size  Location     Type
  4433 ;;                  1    wreg      void 
  4434 ;; Registers used:
  4435 ;;		wreg, status,2
  4436 ;; Tracked objects:
  4437 ;;		On entry : 0/0
  4438 ;;		On exit  : 0/0
  4439 ;;		Unchanged: 0/0
  4440 ;; Data sizes:     COMMON   BANK0   BANK1   BANK3   BANK2
  4441 ;;      Params:         0       0       0       0       0
  4442 ;;      Locals:         0       0       0       0       0
  4443 ;;      Temps:          0       0       0       0       0
  4444 ;;      Totals:         0       0       0       0       0
  4445 ;;Total ram usage:        0 bytes
  4446 ;; Hardware stack levels used:    1
  4447 ;; Hardware stack levels required when called:    4
  4448 ;; This function calls:
  4449 ;;		Nothing
  4450 ;; This function is called by:
  4451 ;;		_I2C_Master_Start
  4452 ;;		_I2C_Master_RepeatedStart
  4453 ;;		_I2C_Master_Stop
  4454 ;;		_I2C_Master_Write
  4455 ;;		_I2C_Read_Byte
  4456 ;;		_I2C_NACK
  4457 ;;		_I2C_ACK
  4458 ;; This function uses a non-reentrant model
  4459 ;;
  4460                           
  4461                           
  4462                           ;psect for function _I2C_Master_Wait
  4463  0FE5                     _I2C_Master_Wait:
  4464  0FE5                     l2545:	
  4465                           ;incstack = 0
  4466 ;; hardware stack exceeded
  4467                           ; Regs used in _I2C_Master_Wait: [wreg+status,2]
  4468                           
  4469  0FE5                     l316:	
  4470                           ;ext_eeprom.c: 20:   while ((SSPSTAT & 0x04) || (SSPCON2 & 0x1F));
  4471                           
  4472  0FE5  1683               	bsf	3,5	;RP0=1, select bank1
  4473  0FE6  1303               	bcf	3,6	;RP1=0, select bank1
  4474  0FE7  1914               	btfsc	20,2	;volatile
  4475  0FE8  2FEA               	goto	u1961
  4476  0FE9  2FEB               	goto	u1960
  4477  0FEA                     u1961:
  4478  0FEA  2FE5               	goto	l316
  4479  0FEB                     u1960:
  4480  0FEB                     l2547:
  4481  0FEB  0811               	movf	17,w	;volatile
  4482  0FEC  391F               	andlw	31
  4483  0FED  1D03               	btfss	3,2
  4484  0FEE  2FF0               	goto	u1971
  4485  0FEF  2FF1               	goto	u1970
  4486  0FF0                     u1971:
  4487  0FF0  2FE5               	goto	l316
  4488  0FF1                     u1970:
  4489  0FF1                     l319:
  4490  0FF1  0008               	return
  4491  0FF2                     __end_of_I2C_Master_Wait:
  4492                           
  4493                           	psect	text29
  4494  02E6                     __ptext29:	
  4495 ;; *************** function _ISR *****************
  4496 ;; Defined at:
  4497 ;;		line 304 in file "main.c"
  4498 ;; Parameters:    Size  Location     Type
  4499 ;;		None
  4500 ;; Auto vars:     Size  Location     Type
  4501 ;;		None
  4502 ;; Return value:  Size  Location     Type
  4503 ;;                  1    wreg      void 
  4504 ;; Registers used:
  4505 ;;		wreg, fsr0l, fsr0h, status,2, status,0, btemp+1, pclath, cstack
  4506 ;; Tracked objects:
  4507 ;;		On entry : 0/0
  4508 ;;		On exit  : 0/0
  4509 ;;		Unchanged: 0/0
  4510 ;; Data sizes:     COMMON   BANK0   BANK1   BANK3   BANK2
  4511 ;;      Params:         0       0       0       0       0
  4512 ;;      Locals:         0       0       0       0       0
  4513 ;;      Temps:          0       6       0       0       0
  4514 ;;      Totals:         0       6       0       0       0
  4515 ;;Total ram usage:        6 bytes
  4516 ;; Hardware stack levels used:    1
  4517 ;; Hardware stack levels required when called:    3
  4518 ;; This function calls:
  4519 ;;		_update_tempreture
  4520 ;;		i1___lwdiv
  4521 ;; This function is called by:
  4522 ;;		Interrupt level 1
  4523 ;; This function uses a non-reentrant model
  4524 ;;
  4525                           
  4526                           
  4527                           ;psect for function _ISR
  4528  02E6                     _ISR:
  4529  02E6                     i1l2379:
  4530                           
  4531                           ;main.c: 307:   if (INTF)
  4532  02E6  1C8B               	btfss	11,1	;volatile
  4533  02E7  2AE9               	goto	u188_21
  4534  02E8  2AEA               	goto	u188_20
  4535  02E9                     u188_21:
  4536  02E9  2B07               	goto	i1l181
  4537  02EA                     u188_20:
  4538  02EA                     i1l2381:
  4539                           
  4540                           ;main.c: 308:   {;main.c: 309:     INTF = 0;
  4541  02EA  108B               	bcf	11,1	;volatile
  4542                           
  4543                           ;main.c: 310:     switch(state)
  4544  02EB  2AF4               	goto	i1l2387
  4545  02EC                     i1l183:	
  4546                           ;main.c: 311:     {;main.c: 312:         case ON_STATE:
  4547                           
  4548                           
  4549                           ;main.c: 313:             TMR1ON = 0;
  4550  02EC  1010               	bcf	16,0	;volatile
  4551                           
  4552                           ;main.c: 314:             TMR1IF = 0;
  4553  02ED  100C               	bcf	12,0	;volatile
  4554                           
  4555                           ;main.c: 315:             state=OFF_STATE;
  4556  02EE  01DD               	clrf	_state
  4557  02EF  0ADD               	incf	_state,f
  4558                           
  4559                           ;main.c: 316:             break;
  4560  02F0  2B07               	goto	i1l181
  4561  02F1                     i1l185:	
  4562                           ;main.c: 317:         case OFF_STATE:
  4563                           
  4564                           
  4565                           ;main.c: 318:             TMR1ON = 1;
  4566  02F1  1410               	bsf	16,0	;volatile
  4567  02F2                     i1l2383:
  4568                           
  4569                           ;main.c: 319:             state=ON_STATE;
  4570  02F2  01DD               	clrf	_state
  4571                           
  4572                           ;main.c: 320:             break;
  4573  02F3  2B07               	goto	i1l181
  4574  02F4                     i1l2387:
  4575  02F4  085D               	movf	_state,w
  4576  02F5  00AB               	movwf	??_ISR
  4577  02F6  01AC               	clrf	??_ISR+1
  4578                           
  4579                           ; Switch on 2 bytes has been partitioned into a top level switch of size 1, and 1 sub-sw
      +                          itches
  4580                           ; Switch size 1, requested type "simple"
  4581                           ; Number of cases is 1, Range of values is 0 to 0
  4582                           ; switch strategies available:
  4583                           ; Name         Instructions Cycles
  4584                           ; simple_byte            4     3 (average)
  4585                           ; direct_byte           11     8 (fixed)
  4586                           ; jumptable            260     6 (fixed)
  4587                           ;	Chosen strategy is simple_byte
  4588  02F7  082C               	movf	??_ISR+1,w
  4589  02F8  3A00               	xorlw	0	; case 0
  4590  02F9  1903               	skipnz
  4591  02FA  2AFC               	goto	i1l3067
  4592  02FB  2B07               	goto	i1l181
  4593  02FC                     i1l3067:
  4594                           
  4595                           ; Switch size 1, requested type "simple"
  4596                           ; Number of cases is 3, Range of values is 0 to 2
  4597                           ; switch strategies available:
  4598                           ; Name         Instructions Cycles
  4599                           ; simple_byte           10     6 (average)
  4600                           ; direct_byte           17     8 (fixed)
  4601                           ; jumptable            260     6 (fixed)
  4602                           ;	Chosen strategy is simple_byte
  4603  02FC  082B               	movf	??_ISR,w
  4604  02FD  3A00               	xorlw	0	; case 0
  4605  02FE  1903               	skipnz
  4606  02FF  2AEC               	goto	i1l183
  4607  0300  3A01               	xorlw	1	; case 1
  4608  0301  1903               	skipnz
  4609  0302  2AF1               	goto	i1l185
  4610  0303  3A03               	xorlw	3	; case 2
  4611  0304  1903               	skipnz
  4612  0305  2AEC               	goto	i1l183
  4613  0306  2B07               	goto	i1l181
  4614  0307                     i1l181:	
  4615                           ;main.c: 331:     }
  4616                           
  4617                           
  4618                           ;main.c: 334:    if (TMR1IF)
  4619  0307  1C0C               	btfss	12,0	;volatile
  4620  0308  2B0A               	goto	u189_21
  4621  0309  2B0B               	goto	u189_20
  4622  030A                     u189_21:
  4623  030A  2B43               	goto	i1l191
  4624  030B                     u189_20:
  4625  030B                     i1l2389:
  4626                           
  4627                           ;main.c: 335:    {;main.c: 336:            TMR1IF = 0;
  4628  030B  100C               	bcf	12,0	;volatile
  4629  030C                     i1l2391:
  4630                           
  4631                           ;main.c: 337:            timer1counter++;
  4632  030C  3001               	movlw	1
  4633  030D  00FF               	movwf	btemp+1
  4634  030E  087F               	movf	btemp+1,w
  4635  030F  07C6               	addwf	_timer1counter,f
  4636  0310                     i1l2393:
  4637                           
  4638                           ;main.c: 338:            ReadTemp=0;
  4639  0310  01C5               	clrf	_ReadTemp
  4640  0311                     i1l2395:
  4641                           
  4642                           ;main.c: 339:            if (timer1counter == 4){
  4643  0311  3004               	movlw	4
  4644  0312  0646               	xorwf	_timer1counter,w
  4645  0313  1D03               	btfss	3,2
  4646  0314  2B16               	goto	u190_21
  4647  0315  2B17               	goto	u190_20
  4648  0316                     u190_21:
  4649  0316  2B23               	goto	i1l2405
  4650  0317                     u190_20:
  4651  0317                     i1l2397:
  4652                           
  4653                           ;main.c: 340:                 ReadTemp=1;
  4654  0317  01C5               	clrf	_ReadTemp
  4655  0318  0AC5               	incf	_ReadTemp,f
  4656  0319                     i1l2399:
  4657                           
  4658                           ;main.c: 341:                 Number_Tempreture++;
  4659  0319  3001               	movlw	1
  4660  031A  00FF               	movwf	btemp+1
  4661  031B  087F               	movf	btemp+1,w
  4662  031C  07C7               	addwf	_Number_Tempreture,f
  4663  031D                     i1l2401:
  4664                           
  4665                           ;main.c: 342:                 timer1counter = 0;
  4666  031D  01C6               	clrf	_timer1counter
  4667  031E                     i1l2403:
  4668                           
  4669                           ;main.c: 343:                 update_tempreture();
  4670  031E  120A  118A  23A9  120A  118A  	fcall	_update_tempreture
  4671  0323                     i1l2405:
  4672                           
  4673                           ;main.c: 345:             if(Number_Tempreture==10)
  4674  0323  300A               	movlw	10
  4675  0324  1283               	bcf	3,5	;RP0=0, select bank0
  4676  0325  1303               	bcf	3,6	;RP1=0, select bank0
  4677  0326  0647               	xorwf	_Number_Tempreture,w
  4678  0327  1D03               	btfss	3,2
  4679  0328  2B2A               	goto	u191_21
  4680  0329  2B2B               	goto	u191_20
  4681  032A                     u191_21:
  4682  032A  2B43               	goto	i1l191
  4683  032B                     u191_20:
  4684  032B                     i1l2407:
  4685                           
  4686                           ;main.c: 346:             {;main.c: 347:                TEMPRETURE=accumilated_tmeperatu
      +                          re/10;
  4687  032B  300A               	movlw	10
  4688  032C  00F5               	movwf	i1___lwdiv@divisor
  4689  032D  3000               	movlw	0
  4690  032E  00F6               	movwf	i1___lwdiv@divisor+1
  4691  032F  0841               	movf	_accumilated_tmeperature+1,w
  4692  0330  00F8               	movwf	i1___lwdiv@dividend+1
  4693  0331  0840               	movf	_accumilated_tmeperature,w
  4694  0332  00F7               	movwf	i1___lwdiv@dividend
  4695  0333  120A  118A  25DD  120A  118A  	fcall	i1___lwdiv
  4696  0338  0876               	movf	?i1___lwdiv+1,w
  4697  0339  1283               	bcf	3,5	;RP0=0, select bank0
  4698  033A  1303               	bcf	3,6	;RP1=0, select bank0
  4699  033B  00C3               	movwf	_TEMPRETURE+1
  4700  033C  0875               	movf	?i1___lwdiv,w
  4701  033D  00C2               	movwf	_TEMPRETURE
  4702  033E                     i1l2409:
  4703                           
  4704                           ;main.c: 349:                 RB5 = ~RB5;
  4705  033E  3020               	movlw	32
  4706  033F  0686               	xorwf	6,f
  4707  0340                     i1l2411:
  4708                           
  4709                           ;main.c: 351:                 Number_Tempreture = 0;
  4710  0340  01C7               	clrf	_Number_Tempreture
  4711  0341                     i1l2413:
  4712                           
  4713                           ;main.c: 352:                 accumilated_tmeperature= 0;
  4714  0341  01C0               	clrf	_accumilated_tmeperature
  4715  0342  01C1               	clrf	_accumilated_tmeperature+1
  4716  0343                     i1l191:
  4717  0343  0830               	movf	??_ISR+5,w
  4718  0344  00FF               	movwf	btemp+1
  4719  0345  082F               	movf	??_ISR+4,w
  4720  0346  008A               	movwf	10
  4721  0347  082E               	movf	??_ISR+3,w
  4722  0348  0084               	movwf	4
  4723  0349  0E2D               	swapf	(??_ISR+2)^0,w
  4724  034A  0083               	movwf	3
  4725  034B  0EFE               	swapf	btemp,f
  4726  034C  0E7E               	swapf	btemp,w
  4727  034D  0009               	retfie
  4728  034E                     __end_of_ISR:
  4729                           
  4730                           	psect	intentry
  4731  0004                     __pintentry:	
  4732                           ;incstack = 0
  4733 ;; hardware stack exceeded
  4734                           ; Regs used in _ISR: [wreg-fsr0h+status,2+status,0+btemp+1+pclath+cstack]
  4735                           
  4736  0004                     interrupt_function:
  4737  007E                     saved_w	set	btemp
  4738  0004  00FE               	movwf	btemp
  4739  0005  0E03               	swapf	3,w
  4740  0006  1283               	bcf	3,5	;RP0=0, select bank0
  4741  0007  1303               	bcf	3,6	;RP1=0, select bank0
  4742  0008  00AD               	movwf	??_ISR+2
  4743  0009  0804               	movf	4,w
  4744  000A  00AE               	movwf	??_ISR+3
  4745  000B  080A               	movf	10,w
  4746  000C  00AF               	movwf	??_ISR+4
  4747  000D  087F               	movf	btemp+1,w
  4748  000E  00B0               	movwf	??_ISR+5
  4749  000F  120A  118A  2AE6   	ljmp	_ISR
  4750                           
  4751                           	psect	text30
  4752  03A9                     __ptext30:	
  4753 ;; *************** function _update_tempreture *****************
  4754 ;; Defined at:
  4755 ;;		line 292 in file "main.c"
  4756 ;; Parameters:    Size  Location     Type
  4757 ;;		None
  4758 ;; Auto vars:     Size  Location     Type
  4759 ;;  temp            2    7[BANK0 ] unsigned int 
  4760 ;;  x               1   10[BANK0 ] unsigned char 
  4761 ;;  y               1    9[BANK0 ] unsigned char 
  4762 ;; Return value:  Size  Location     Type
  4763 ;;                  1    wreg      void 
  4764 ;; Registers used:
  4765 ;;		wreg, fsr0l, fsr0h, status,2, status,0, btemp+1, pclath, cstack
  4766 ;; Tracked objects:
  4767 ;;		On entry : 0/0
  4768 ;;		On exit  : 0/0
  4769 ;;		Unchanged: 0/0
  4770 ;; Data sizes:     COMMON   BANK0   BANK1   BANK3   BANK2
  4771 ;;      Params:         0       0       0       0       0
  4772 ;;      Locals:         0       4       0       0       0
  4773 ;;      Temps:          0       4       0       0       0
  4774 ;;      Totals:         0       8       0       0       0
  4775 ;;Total ram usage:        8 bytes
  4776 ;; Hardware stack levels used:    1
  4777 ;; Hardware stack levels required when called:    2
  4778 ;; This function calls:
  4779 ;;		___wmul
  4780 ;;		_adc_amostra
  4781 ;;		_itoa
  4782 ;; This function is called by:
  4783 ;;		_ISR
  4784 ;; This function uses a non-reentrant model
  4785 ;;
  4786                           
  4787                           
  4788                           ;psect for function _update_tempreture
  4789  03A9                     _update_tempreture:
  4790  03A9                     i1l2289:	
  4791                           ;incstack = 0
  4792 ;; hardware stack exceeded
  4793                           ; Regs used in _update_tempreture: [wreg-fsr0h+status,2+status,0+btemp+1+pclath+cstack]
  4794                           
  4795                           
  4796                           ;main.c: 294:     unsigned int temp=(adc_amostra(2)*10)/2;
  4797  03A9  3002               	movlw	2
  4798  03AA  120A  118A  2503  120A  118A  	fcall	_adc_amostra
  4799  03AF  0871               	movf	?_adc_amostra+1,w
  4800  03B0  00FB               	movwf	___wmul@multiplier+1
  4801  03B1  0870               	movf	?_adc_amostra,w
  4802  03B2  00FA               	movwf	___wmul@multiplier
  4803  03B3  300A               	movlw	10
  4804  03B4  00FC               	movwf	___wmul@multiplicand
  4805  03B5  3000               	movlw	0
  4806  03B6  00FD               	movwf	___wmul@multiplicand+1
  4807  03B7  120A  118A  276B  120A  118A  	fcall	___wmul
  4808  03BC  087A               	movf	?___wmul,w
  4809  03BD  1283               	bcf	3,5	;RP0=0, select bank0
  4810  03BE  1303               	bcf	3,6	;RP1=0, select bank0
  4811  03BF  00A3               	movwf	??_update_tempreture
  4812  03C0  087B               	movf	?___wmul+1,w
  4813  03C1  00A4               	movwf	??_update_tempreture+1
  4814  03C2  1003               	clrc
  4815  03C3  0CA4               	rrf	??_update_tempreture+1,f
  4816  03C4  0CA3               	rrf	??_update_tempreture,f
  4817  03C5  0823               	movf	??_update_tempreture,w
  4818  03C6  00A7               	movwf	update_tempreture@temp
  4819  03C7  0824               	movf	??_update_tempreture+1,w
  4820  03C8  00A8               	movwf	update_tempreture@temp+1
  4821  03C9                     i1l2291:
  4822                           
  4823                           ;main.c: 295:     itoa(temp,str);
  4824  03C9  0828               	movf	update_tempreture@temp+1,w
  4825  03CA  00A1               	movwf	itoa@val+1
  4826  03CB  0827               	movf	update_tempreture@temp,w
  4827  03CC  00A0               	movwf	itoa@val
  4828  03CD  3049               	movlw	(low (_str| 0))& (0+255)
  4829  03CE  00FF               	movwf	btemp+1
  4830  03CF  087F               	movf	btemp+1,w
  4831  03D0  00A2               	movwf	itoa@str
  4832  03D1  120A  118A  2401  120A  118A  	fcall	_itoa
  4833  03D6                     i1l2293:
  4834                           
  4835                           ;main.c: 296:     unsigned char y= str[2];
  4836  03D6  1283               	bcf	3,5	;RP0=0, select bank0
  4837  03D7  1303               	bcf	3,6	;RP1=0, select bank0
  4838  03D8  084B               	movf	_str+2,w
  4839  03D9  00FF               	movwf	btemp+1
  4840  03DA  087F               	movf	btemp+1,w
  4841  03DB  00A9               	movwf	update_tempreture@y
  4842  03DC                     i1l2295:
  4843                           
  4844                           ;main.c: 297:     unsigned char x= str[3];
  4845  03DC  084C               	movf	_str+3,w
  4846  03DD  00FF               	movwf	btemp+1
  4847  03DE  087F               	movf	btemp+1,w
  4848  03DF  00AA               	movwf	update_tempreture@x
  4849  03E0                     i1l2297:
  4850                           
  4851                           ;main.c: 298:     accumilated_tmeperature += (y*10)+x;
  4852  03E0  0829               	movf	update_tempreture@y,w
  4853  03E1  00A3               	movwf	??_update_tempreture
  4854  03E2  01A4               	clrf	??_update_tempreture+1
  4855  03E3  0823               	movf	??_update_tempreture,w
  4856  03E4  00FA               	movwf	___wmul@multiplier
  4857  03E5  0824               	movf	??_update_tempreture+1,w
  4858  03E6  00FB               	movwf	___wmul@multiplier+1
  4859  03E7  300A               	movlw	10
  4860  03E8  00FC               	movwf	___wmul@multiplicand
  4861  03E9  3000               	movlw	0
  4862  03EA  00FD               	movwf	___wmul@multiplicand+1
  4863  03EB  120A  118A  276B  120A  118A  	fcall	___wmul
  4864  03F0  1283               	bcf	3,5	;RP0=0, select bank0
  4865  03F1  1303               	bcf	3,6	;RP1=0, select bank0
  4866  03F2  082A               	movf	update_tempreture@x,w
  4867  03F3  077A               	addwf	?___wmul,w
  4868  03F4  00A5               	movwf	??_update_tempreture+2
  4869  03F5  3000               	movlw	0
  4870  03F6  1803               	skipnc
  4871  03F7  3001               	movlw	1
  4872  03F8  077B               	addwf	?___wmul+1,w
  4873  03F9  00A6               	movwf	??_update_tempreture+3
  4874  03FA  0825               	movf	??_update_tempreture+2,w
  4875  03FB  07C0               	addwf	_accumilated_tmeperature,f
  4876  03FC  1803               	skipnc
  4877  03FD  0AC1               	incf	_accumilated_tmeperature+1,f
  4878  03FE  0826               	movf	??_update_tempreture+3,w
  4879  03FF  07C1               	addwf	_accumilated_tmeperature+1,f
  4880  0400                     i1l176:
  4881  0400  0008               	return
  4882  0401                     __end_of_update_tempreture:
  4883                           
  4884                           	psect	text31
  4885  0401                     __ptext31:	
  4886 ;; *************** function _itoa *****************
  4887 ;; Defined at:
  4888 ;;		line 27 in file "itoa.c"
  4889 ;; Parameters:    Size  Location     Type
  4890 ;;  val             2    0[BANK0 ] unsigned int 
  4891 ;;  str             1    2[BANK0 ] PTR unsigned char 
  4892 ;;		 -> str(6), 
  4893 ;; Auto vars:     Size  Location     Type
  4894 ;;		None
  4895 ;; Return value:  Size  Location     Type
  4896 ;;                  1    wreg      void 
  4897 ;; Registers used:
  4898 ;;		wreg, fsr0l, fsr0h, status,2, status,0, btemp+1, pclath, cstack
  4899 ;; Tracked objects:
  4900 ;;		On entry : 0/0
  4901 ;;		On exit  : 0/0
  4902 ;;		Unchanged: 0/0
  4903 ;; Data sizes:     COMMON   BANK0   BANK1   BANK3   BANK2
  4904 ;;      Params:         0       3       0       0       0
  4905 ;;      Locals:         0       0       0       0       0
  4906 ;;      Temps:          0       0       0       0       0
  4907 ;;      Totals:         0       3       0       0       0
  4908 ;;Total ram usage:        3 bytes
  4909 ;; Hardware stack levels used:    1
  4910 ;; Hardware stack levels required when called:    1
  4911 ;; This function calls:
  4912 ;;		i1___lwdiv
  4913 ;;		i1___lwmod
  4914 ;; This function is called by:
  4915 ;;		_update_tempreture
  4916 ;; This function uses a non-reentrant model
  4917 ;;
  4918                           
  4919                           
  4920                           ;psect for function _itoa
  4921  0401                     _itoa:
  4922  0401                     i1l2167:	
  4923                           ;incstack = 0
  4924 ;; hardware stack exceeded
  4925                           ; Regs used in _itoa: [wreg-fsr0h+status,2+status,0+btemp+1+pclath+cstack]
  4926                           
  4927                           
  4928                           ;itoa.c: 27: void itoa(unsigned int val, unsigned char* str );itoa.c: 28: {;itoa.c: 32: 
      +                            str[2]=((val%1000)/100);
  4929  0401  3064               	movlw	100
  4930  0402  00F5               	movwf	i1___lwdiv@divisor
  4931  0403  3000               	movlw	0
  4932  0404  00F6               	movwf	i1___lwdiv@divisor+1
  4933  0405  1283               	bcf	3,5	;RP0=0, select bank0
  4934  0406  1303               	bcf	3,6	;RP1=0, select bank0
  4935  0407  0821               	movf	itoa@val+1,w
  4936  0408  00F3               	movwf	i1___lwmod@dividend+1
  4937  0409  0820               	movf	itoa@val,w
  4938  040A  00F2               	movwf	i1___lwmod@dividend
  4939  040B  30E8               	movlw	232
  4940  040C  00F0               	movwf	i1___lwmod@divisor
  4941  040D  3003               	movlw	3
  4942  040E  00F1               	movwf	i1___lwmod@divisor+1
  4943  040F  120A  118A  269A  120A  118A  	fcall	i1___lwmod
  4944  0414  0871               	movf	?i1___lwmod+1,w
  4945  0415  00F8               	movwf	i1___lwdiv@dividend+1
  4946  0416  0870               	movf	?i1___lwmod,w
  4947  0417  00F7               	movwf	i1___lwdiv@dividend
  4948  0418  120A  118A  25DD  120A  118A  	fcall	i1___lwdiv
  4949  041D  0875               	movf	?i1___lwdiv,w
  4950  041E  00FF               	movwf	btemp+1
  4951  041F  1283               	bcf	3,5	;RP0=0, select bank0
  4952  0420  1303               	bcf	3,6	;RP1=0, select bank0
  4953  0421  0822               	movf	itoa@str,w
  4954  0422  3E02               	addlw	2
  4955  0423  0084               	movwf	4
  4956  0424  087F               	movf	btemp+1,w
  4957  0425  1383               	bcf	3,7	;select IRP bank0
  4958  0426  0080               	movwf	0
  4959                           
  4960                           ;itoa.c: 33:   str[3]=((val%100)/10);
  4961  0427  300A               	movlw	10
  4962  0428  00F5               	movwf	i1___lwdiv@divisor
  4963  0429  3000               	movlw	0
  4964  042A  00F6               	movwf	i1___lwdiv@divisor+1
  4965  042B  0821               	movf	itoa@val+1,w
  4966  042C  00F3               	movwf	i1___lwmod@dividend+1
  4967  042D  0820               	movf	itoa@val,w
  4968  042E  00F2               	movwf	i1___lwmod@dividend
  4969  042F  3064               	movlw	100
  4970  0430  00F0               	movwf	i1___lwmod@divisor
  4971  0431  3000               	movlw	0
  4972  0432  00F1               	movwf	i1___lwmod@divisor+1
  4973  0433  120A  118A  269A  120A  118A  	fcall	i1___lwmod
  4974  0438  0871               	movf	?i1___lwmod+1,w
  4975  0439  00F8               	movwf	i1___lwdiv@dividend+1
  4976  043A  0870               	movf	?i1___lwmod,w
  4977  043B  00F7               	movwf	i1___lwdiv@dividend
  4978  043C  120A  118A  25DD  120A  118A  	fcall	i1___lwdiv
  4979  0441  0875               	movf	?i1___lwdiv,w
  4980  0442  00FF               	movwf	btemp+1
  4981  0443  1283               	bcf	3,5	;RP0=0, select bank0
  4982  0444  1303               	bcf	3,6	;RP1=0, select bank0
  4983  0445  0822               	movf	itoa@str,w
  4984  0446  3E03               	addlw	3
  4985  0447  0084               	movwf	4
  4986  0448  087F               	movf	btemp+1,w
  4987  0449  1383               	bcf	3,7	;select IRP bank0
  4988  044A  0080               	movwf	0
  4989  044B                     i1l2169:
  4990                           
  4991                           ;itoa.c: 34:   if (str[3] != 0)
  4992  044B  0822               	movf	itoa@str,w
  4993  044C  3E03               	addlw	3
  4994  044D  0084               	movwf	4
  4995  044E  0800               	movf	0,w
  4996  044F  1903               	btfsc	3,2
  4997  0450  2C52               	goto	u171_21
  4998  0451  2C53               	goto	u171_20
  4999  0452                     u171_21:
  5000  0452  2C58               	goto	i1l225
  5001  0453                     u171_20:
  5002  0453                     i1l2171:
  5003                           
  5004                           ;itoa.c: 35:       str[3]-=1;
  5005  0453  0822               	movf	itoa@str,w
  5006  0454  3E03               	addlw	3
  5007  0455  0084               	movwf	4
  5008  0456  3001               	movlw	1
  5009  0457  0280               	subwf	0,f
  5010  0458                     i1l225:
  5011  0458  0008               	return
  5012  0459                     __end_of_itoa:
  5013                           
  5014                           	psect	text32
  5015  069A                     __ptext32:	
  5016 ;; *************** function i1___lwmod *****************
  5017 ;; Defined at:
  5018 ;;		line 5 in file "C:\Program Files\Microchip\xc8\v2.20\pic\sources\c90\common\lwmod.c"
  5019 ;; Parameters:    Size  Location     Type
  5020 ;;  divisor         2    0[COMMON] unsigned int 
  5021 ;;  dividend        2    2[COMMON] unsigned int 
  5022 ;; Auto vars:     Size  Location     Type
  5023 ;;  counter         1    4[COMMON] unsigned char 
  5024 ;; Return value:  Size  Location     Type
  5025 ;;                  2    0[COMMON] unsigned int 
  5026 ;; Registers used:
  5027 ;;		wreg, status,2, status,0, btemp+1
  5028 ;; Tracked objects:
  5029 ;;		On entry : 0/0
  5030 ;;		On exit  : 0/0
  5031 ;;		Unchanged: 0/0
  5032 ;; Data sizes:     COMMON   BANK0   BANK1   BANK3   BANK2
  5033 ;;      Params:         4       0       0       0       0
  5034 ;;      Locals:         1       0       0       0       0
  5035 ;;      Temps:          0       0       0       0       0
  5036 ;;      Totals:         5       0       0       0       0
  5037 ;;Total ram usage:        5 bytes
  5038 ;; Hardware stack levels used:    1
  5039 ;; This function calls:
  5040 ;;		Nothing
  5041 ;; This function is called by:
  5042 ;;		_itoa
  5043 ;; This function uses a non-reentrant model
  5044 ;;
  5045                           
  5046                           
  5047                           ;psect for function i1___lwmod
  5048  069A                     i1___lwmod:
  5049  069A                     i1l2003:	
  5050                           ;incstack = 0
  5051 ;; hardware stack exceeded
  5052                           ; Regs used in i1___lwmod: [wreg+status,2+status,0+btemp+1]
  5053                           
  5054  069A  0870               	movf	i1___lwmod@divisor,w
  5055  069B  0471               	iorwf	i1___lwmod@divisor+1,w
  5056  069C  1903               	btfsc	3,2
  5057  069D  2E9F               	goto	u143_21
  5058  069E  2EA0               	goto	u143_20
  5059  069F                     u143_21:
  5060  069F  2ECF               	goto	i1l2021
  5061  06A0                     u143_20:
  5062  06A0                     i1l2005:
  5063  06A0  01F4               	clrf	i1___lwmod@counter
  5064  06A1  0AF4               	incf	i1___lwmod@counter,f
  5065  06A2  2EAE               	goto	i1l2011
  5066  06A3                     i1l2007:
  5067  06A3  3001               	movlw	1
  5068  06A4                     u144_25:
  5069  06A4  1003               	clrc
  5070  06A5  0DF0               	rlf	i1___lwmod@divisor,f
  5071  06A6  0DF1               	rlf	i1___lwmod@divisor+1,f
  5072  06A7  3EFF               	addlw	-1
  5073  06A8  1D03               	skipz
  5074  06A9  2EA4               	goto	u144_25
  5075  06AA                     i1l2009:
  5076  06AA  3001               	movlw	1
  5077  06AB  00FF               	movwf	btemp+1
  5078  06AC  087F               	movf	btemp+1,w
  5079  06AD  07F4               	addwf	i1___lwmod@counter,f
  5080  06AE                     i1l2011:
  5081  06AE  1FF1               	btfss	i1___lwmod@divisor+1,7
  5082  06AF  2EB1               	goto	u145_21
  5083  06B0  2EB2               	goto	u145_20
  5084  06B1                     u145_21:
  5085  06B1  2EA3               	goto	i1l2007
  5086  06B2                     u145_20:
  5087  06B2                     i1l2013:
  5088  06B2  0871               	movf	i1___lwmod@divisor+1,w
  5089  06B3  0273               	subwf	i1___lwmod@dividend+1,w
  5090  06B4  1D03               	skipz
  5091  06B5  2EB8               	goto	u146_25
  5092  06B6  0870               	movf	i1___lwmod@divisor,w
  5093  06B7  0272               	subwf	i1___lwmod@dividend,w
  5094  06B8                     u146_25:
  5095  06B8  1C03               	skipc
  5096  06B9  2EBB               	goto	u146_21
  5097  06BA  2EBC               	goto	u146_20
  5098  06BB                     u146_21:
  5099  06BB  2EC2               	goto	i1l2017
  5100  06BC                     u146_20:
  5101  06BC                     i1l2015:
  5102  06BC  0870               	movf	i1___lwmod@divisor,w
  5103  06BD  02F2               	subwf	i1___lwmod@dividend,f
  5104  06BE  0871               	movf	i1___lwmod@divisor+1,w
  5105  06BF  1C03               	skipc
  5106  06C0  03F3               	decf	i1___lwmod@dividend+1,f
  5107  06C1  02F3               	subwf	i1___lwmod@dividend+1,f
  5108  06C2                     i1l2017:
  5109  06C2  3001               	movlw	1
  5110  06C3                     u147_25:
  5111  06C3  1003               	clrc
  5112  06C4  0CF1               	rrf	i1___lwmod@divisor+1,f
  5113  06C5  0CF0               	rrf	i1___lwmod@divisor,f
  5114  06C6  3EFF               	addlw	-1
  5115  06C7  1D03               	skipz
  5116  06C8  2EC3               	goto	u147_25
  5117  06C9                     i1l2019:
  5118  06C9  3001               	movlw	1
  5119  06CA  02F4               	subwf	i1___lwmod@counter,f
  5120  06CB  1D03               	btfss	3,2
  5121  06CC  2ECE               	goto	u148_21
  5122  06CD  2ECF               	goto	u148_20
  5123  06CE                     u148_21:
  5124  06CE  2EB2               	goto	i1l2013
  5125  06CF                     u148_20:
  5126  06CF                     i1l2021:
  5127  06CF  0873               	movf	i1___lwmod@dividend+1,w
  5128  06D0  00F1               	movwf	?i1___lwmod+1
  5129  06D1  0872               	movf	i1___lwmod@dividend,w
  5130  06D2  00F0               	movwf	?i1___lwmod
  5131  06D3                     i1l741:
  5132  06D3  0008               	return
  5133  06D4                     __end_ofi1___lwmod:
  5134                           
  5135                           	psect	text33
  5136  05DD                     __ptext33:	
  5137 ;; *************** function i1___lwdiv *****************
  5138 ;; Defined at:
  5139 ;;		line 5 in file "C:\Program Files\Microchip\xc8\v2.20\pic\sources\c90\common\lwdiv.c"
  5140 ;; Parameters:    Size  Location     Type
  5141 ;;  divisor         2    5[COMMON] unsigned int 
  5142 ;;  dividend        2    7[COMMON] unsigned int 
  5143 ;; Auto vars:     Size  Location     Type
  5144 ;;  quotient        2    9[COMMON] unsigned int 
  5145 ;;  counter         1   11[COMMON] unsigned char 
  5146 ;; Return value:  Size  Location     Type
  5147 ;;                  2    5[COMMON] unsigned int 
  5148 ;; Registers used:
  5149 ;;		wreg, status,2, status,0, btemp+1
  5150 ;; Tracked objects:
  5151 ;;		On entry : 0/0
  5152 ;;		On exit  : 0/0
  5153 ;;		Unchanged: 0/0
  5154 ;; Data sizes:     COMMON   BANK0   BANK1   BANK3   BANK2
  5155 ;;      Params:         4       0       0       0       0
  5156 ;;      Locals:         3       0       0       0       0
  5157 ;;      Temps:          0       0       0       0       0
  5158 ;;      Totals:         7       0       0       0       0
  5159 ;;Total ram usage:        7 bytes
  5160 ;; Hardware stack levels used:    1
  5161 ;; This function calls:
  5162 ;;		Nothing
  5163 ;; This function is called by:
  5164 ;;		_ISR
  5165 ;;		_itoa
  5166 ;; This function uses a non-reentrant model
  5167 ;;
  5168                           
  5169                           
  5170                           ;psect for function i1___lwdiv
  5171  05DD                     i1___lwdiv:
  5172  05DD                     i1l1977:	
  5173                           ;incstack = 0
  5174                           ; Regs used in i1___lwdiv: [wreg+status,2+status,0+btemp+1]
  5175                           
  5176  05DD  01F9               	clrf	i1___lwdiv@quotient
  5177  05DE  01FA               	clrf	i1___lwdiv@quotient+1
  5178  05DF                     i1l1979:
  5179  05DF  0875               	movf	i1___lwdiv@divisor,w
  5180  05E0  0476               	iorwf	i1___lwdiv@divisor+1,w
  5181  05E1  1903               	btfsc	3,2
  5182  05E2  2DE4               	goto	u136_21
  5183  05E3  2DE5               	goto	u136_20
  5184  05E4                     u136_21:
  5185  05E4  2E1C               	goto	i1l1999
  5186  05E5                     u136_20:
  5187  05E5                     i1l1981:
  5188  05E5  01FB               	clrf	i1___lwdiv@counter
  5189  05E6  0AFB               	incf	i1___lwdiv@counter,f
  5190  05E7  2DF3               	goto	i1l1987
  5191  05E8                     i1l1983:
  5192  05E8  3001               	movlw	1
  5193  05E9                     u137_25:
  5194  05E9  1003               	clrc
  5195  05EA  0DF5               	rlf	i1___lwdiv@divisor,f
  5196  05EB  0DF6               	rlf	i1___lwdiv@divisor+1,f
  5197  05EC  3EFF               	addlw	-1
  5198  05ED  1D03               	skipz
  5199  05EE  2DE9               	goto	u137_25
  5200  05EF                     i1l1985:
  5201  05EF  3001               	movlw	1
  5202  05F0  00FF               	movwf	btemp+1
  5203  05F1  087F               	movf	btemp+1,w
  5204  05F2  07FB               	addwf	i1___lwdiv@counter,f
  5205  05F3                     i1l1987:
  5206  05F3  1FF6               	btfss	i1___lwdiv@divisor+1,7
  5207  05F4  2DF6               	goto	u138_21
  5208  05F5  2DF7               	goto	u138_20
  5209  05F6                     u138_21:
  5210  05F6  2DE8               	goto	i1l1983
  5211  05F7                     u138_20:
  5212  05F7                     i1l1989:
  5213  05F7  3001               	movlw	1
  5214  05F8                     u139_25:
  5215  05F8  1003               	clrc
  5216  05F9  0DF9               	rlf	i1___lwdiv@quotient,f
  5217  05FA  0DFA               	rlf	i1___lwdiv@quotient+1,f
  5218  05FB  3EFF               	addlw	-1
  5219  05FC  1D03               	skipz
  5220  05FD  2DF8               	goto	u139_25
  5221  05FE  0876               	movf	i1___lwdiv@divisor+1,w
  5222  05FF  0278               	subwf	i1___lwdiv@dividend+1,w
  5223  0600  1D03               	skipz
  5224  0601  2E04               	goto	u140_25
  5225  0602  0875               	movf	i1___lwdiv@divisor,w
  5226  0603  0277               	subwf	i1___lwdiv@dividend,w
  5227  0604                     u140_25:
  5228  0604  1C03               	skipc
  5229  0605  2E07               	goto	u140_21
  5230  0606  2E08               	goto	u140_20
  5231  0607                     u140_21:
  5232  0607  2E0F               	goto	i1l1995
  5233  0608                     u140_20:
  5234  0608                     i1l1991:
  5235  0608  0875               	movf	i1___lwdiv@divisor,w
  5236  0609  02F7               	subwf	i1___lwdiv@dividend,f
  5237  060A  0876               	movf	i1___lwdiv@divisor+1,w
  5238  060B  1C03               	skipc
  5239  060C  03F8               	decf	i1___lwdiv@dividend+1,f
  5240  060D  02F8               	subwf	i1___lwdiv@dividend+1,f
  5241  060E                     i1l1993:
  5242  060E  1479               	bsf	i1___lwdiv@quotient,0
  5243  060F                     i1l1995:
  5244  060F  3001               	movlw	1
  5245  0610                     u141_25:
  5246  0610  1003               	clrc
  5247  0611  0CF6               	rrf	i1___lwdiv@divisor+1,f
  5248  0612  0CF5               	rrf	i1___lwdiv@divisor,f
  5249  0613  3EFF               	addlw	-1
  5250  0614  1D03               	skipz
  5251  0615  2E10               	goto	u141_25
  5252  0616                     i1l1997:
  5253  0616  3001               	movlw	1
  5254  0617  02FB               	subwf	i1___lwdiv@counter,f
  5255  0618  1D03               	btfss	3,2
  5256  0619  2E1B               	goto	u142_21
  5257  061A  2E1C               	goto	u142_20
  5258  061B                     u142_21:
  5259  061B  2DF7               	goto	i1l1989
  5260  061C                     u142_20:
  5261  061C                     i1l1999:
  5262  061C  087A               	movf	i1___lwdiv@quotient+1,w
  5263  061D  00F6               	movwf	?i1___lwdiv+1
  5264  061E  0879               	movf	i1___lwdiv@quotient,w
  5265  061F  00F5               	movwf	?i1___lwdiv
  5266  0620                     i1l731:
  5267  0620  0008               	return
  5268  0621                     __end_ofi1___lwdiv:
  5269                           
  5270                           	psect	text34
  5271  0503                     __ptext34:	
  5272 ;; *************** function _adc_amostra *****************
  5273 ;; Defined at:
  5274 ;;		line 44 in file "adc.c"
  5275 ;; Parameters:    Size  Location     Type
  5276 ;;  canal           1    wreg     unsigned char 
  5277 ;; Auto vars:     Size  Location     Type
  5278 ;;  canal           1    9[COMMON] unsigned char 
  5279 ;; Return value:  Size  Location     Type
  5280 ;;                  2    0[COMMON] unsigned int 
  5281 ;; Registers used:
  5282 ;;		wreg, fsr0l, fsr0h, status,2, status,0
  5283 ;; Tracked objects:
  5284 ;;		On entry : 0/0
  5285 ;;		On exit  : 0/0
  5286 ;;		Unchanged: 0/0
  5287 ;; Data sizes:     COMMON   BANK0   BANK1   BANK3   BANK2
  5288 ;;      Params:         2       0       0       0       0
  5289 ;;      Locals:         1       0       0       0       0
  5290 ;;      Temps:          7       0       0       0       0
  5291 ;;      Totals:        10       0       0       0       0
  5292 ;;Total ram usage:       10 bytes
  5293 ;; Hardware stack levels used:    1
  5294 ;; This function calls:
  5295 ;;		Nothing
  5296 ;; This function is called by:
  5297 ;;		_update_tempreture
  5298 ;; This function uses a non-reentrant model
  5299 ;;
  5300                           
  5301                           
  5302                           ;psect for function _adc_amostra
  5303  0503                     _adc_amostra:
  5304                           
  5305                           ;incstack = 0
  5306                           ; Regs used in _adc_amostra: [wreg-fsr0h+status,2+status,0]
  5307                           ;adc_amostra@canal stored from wreg
  5308  0503  00F9               	movwf	adc_amostra@canal
  5309  0504                     i1l2147:
  5310                           
  5311                           ;adc.c: 44: unsigned int adc_amostra(unsigned char canal);adc.c: 45: {;adc.c: 62:      s
      +                          witch(canal)
  5312  0504  2D14               	goto	i1l2157
  5313  0505                     i1l2149:
  5314                           
  5315                           ;adc.c: 65:         ADCON0=0x01;
  5316  0505  3001               	movlw	1
  5317  0506  1283               	bcf	3,5	;RP0=0, select bank0
  5318  0507  1303               	bcf	3,6	;RP1=0, select bank0
  5319  0508  009F               	movwf	31	;volatile
  5320                           
  5321                           ;adc.c: 66:         break;
  5322  0509  2D27               	goto	i1l215
  5323  050A                     i1l2151:
  5324                           
  5325                           ;adc.c: 68:         ADCON0=0x09;
  5326  050A  3009               	movlw	9
  5327  050B  1283               	bcf	3,5	;RP0=0, select bank0
  5328  050C  1303               	bcf	3,6	;RP1=0, select bank0
  5329  050D  009F               	movwf	31	;volatile
  5330                           
  5331                           ;adc.c: 69:         break;
  5332  050E  2D27               	goto	i1l215
  5333  050F                     i1l2153:
  5334                           
  5335                           ;adc.c: 71:         ADCON0=0x11;
  5336  050F  3011               	movlw	17
  5337  0510  1283               	bcf	3,5	;RP0=0, select bank0
  5338  0511  1303               	bcf	3,6	;RP1=0, select bank0
  5339  0512  009F               	movwf	31	;volatile
  5340                           
  5341                           ;adc.c: 72:         break;
  5342  0513  2D27               	goto	i1l215
  5343  0514                     i1l2157:
  5344  0514  0879               	movf	adc_amostra@canal,w
  5345  0515  00F2               	movwf	??_adc_amostra
  5346  0516  01F3               	clrf	??_adc_amostra+1
  5347                           
  5348                           ; Switch on 2 bytes has been partitioned into a top level switch of size 1, and 1 sub-sw
      +                          itches
  5349                           ; Switch size 1, requested type "simple"
  5350                           ; Number of cases is 1, Range of values is 0 to 0
  5351                           ; switch strategies available:
  5352                           ; Name         Instructions Cycles
  5353                           ; simple_byte            4     3 (average)
  5354                           ; direct_byte           11     8 (fixed)
  5355                           ; jumptable            260     6 (fixed)
  5356                           ;	Chosen strategy is simple_byte
  5357  0517  0873               	movf	??_adc_amostra+1,w
  5358  0518  3A00               	xorlw	0	; case 0
  5359  0519  1903               	skipnz
  5360  051A  2D1C               	goto	i1l3069
  5361  051B  2D27               	goto	i1l215
  5362  051C                     i1l3069:
  5363                           
  5364                           ; Switch size 1, requested type "simple"
  5365                           ; Number of cases is 3, Range of values is 0 to 2
  5366                           ; switch strategies available:
  5367                           ; Name         Instructions Cycles
  5368                           ; simple_byte           10     6 (average)
  5369                           ; direct_byte           17     8 (fixed)
  5370                           ; jumptable            260     6 (fixed)
  5371                           ;	Chosen strategy is simple_byte
  5372  051C  0872               	movf	??_adc_amostra,w
  5373  051D  3A00               	xorlw	0	; case 0
  5374  051E  1903               	skipnz
  5375  051F  2D05               	goto	i1l2149
  5376  0520  3A01               	xorlw	1	; case 1
  5377  0521  1903               	skipnz
  5378  0522  2D0A               	goto	i1l2151
  5379  0523  3A03               	xorlw	3	; case 2
  5380  0524  1903               	skipnz
  5381  0525  2D0F               	goto	i1l2153
  5382  0526  2D27               	goto	i1l215
  5383  0527                     i1l215:
  5384                           
  5385                           ;adc.c: 77:     ADCON0bits.GO=1;
  5386  0527  1283               	bcf	3,5	;RP0=0, select bank0
  5387  0528  1303               	bcf	3,6	;RP1=0, select bank0
  5388  0529  151F               	bsf	31,2	;volatile
  5389  052A                     i1l218:	
  5390                           ;adc.c: 78:     while(ADCON0bits.GO == 1);
  5391                           
  5392  052A  191F               	btfsc	31,2	;volatile
  5393  052B  2D2D               	goto	u169_21
  5394  052C  2D2E               	goto	u169_20
  5395  052D                     u169_21:
  5396  052D  2D2A               	goto	i1l218
  5397  052E                     u169_20:
  5398  052E                     i1l2159:
  5399                           
  5400                           ;adc.c: 80:    return ((((unsigned int)ADRESH)<<2)|(ADRESL>>6));
  5401  052E  1683               	bsf	3,5	;RP0=1, select bank1
  5402  052F  1303               	bcf	3,6	;RP1=0, select bank1
  5403  0530  081E               	movf	30,w	;volatile
  5404  0531  00F2               	movwf	??_adc_amostra
  5405  0532  3006               	movlw	6
  5406  0533                     u170_25:
  5407  0533  1003               	clrc
  5408  0534  0CF2               	rrf	??_adc_amostra,f
  5409  0535  3EFF               	addlw	-1
  5410  0536  1D03               	skipz
  5411  0537  2D33               	goto	u170_25
  5412  0538  0872               	movf	??_adc_amostra,w
  5413  0539  00F3               	movwf	??_adc_amostra+1
  5414  053A  01F4               	clrf	??_adc_amostra+2
  5415  053B  1283               	bcf	3,5	;RP0=0, select bank0
  5416  053C  1303               	bcf	3,6	;RP1=0, select bank0
  5417  053D  081E               	movf	30,w	;volatile
  5418  053E  00F5               	movwf	??_adc_amostra+3
  5419  053F  01F6               	clrf	??_adc_amostra+4
  5420  0540  1003               	clrc
  5421  0541  0DF5               	rlf	??_adc_amostra+3,f
  5422  0542  0DF6               	rlf	??_adc_amostra+4,f
  5423  0543  1003               	clrc
  5424  0544  0DF5               	rlf	??_adc_amostra+3,f
  5425  0545  0DF6               	rlf	??_adc_amostra+4,f
  5426  0546  0873               	movf	??_adc_amostra+1,w
  5427  0547  0475               	iorwf	??_adc_amostra+3,w
  5428  0548  00F7               	movwf	??_adc_amostra+5
  5429  0549  0874               	movf	??_adc_amostra+2,w
  5430  054A  0476               	iorwf	??_adc_amostra+4,w
  5431  054B  00F8               	movwf	??_adc_amostra+6
  5432  054C  0877               	movf	??_adc_amostra+5,w
  5433  054D  00F0               	movwf	?_adc_amostra
  5434  054E  0878               	movf	??_adc_amostra+6,w
  5435  054F  00F1               	movwf	?_adc_amostra+1
  5436  0550                     i1l221:
  5437  0550  0008               	return
  5438  0551                     __end_of_adc_amostra:
  5439                           
  5440                           	psect	text35
  5441  076B                     __ptext35:	
  5442 ;; *************** function ___wmul *****************
  5443 ;; Defined at:
  5444 ;;		line 15 in file "C:\Program Files\Microchip\xc8\v2.20\pic\sources\c90\common\Umul16.c"
  5445 ;; Parameters:    Size  Location     Type
  5446 ;;  multiplier      2   10[COMMON] unsigned int 
  5447 ;;  multiplicand    2   12[COMMON] unsigned int 
  5448 ;; Auto vars:     Size  Location     Type
  5449 ;;  product         2    0[BANK0 ] unsigned int 
  5450 ;; Return value:  Size  Location     Type
  5451 ;;                  2   10[COMMON] unsigned int 
  5452 ;; Registers used:
  5453 ;;		wreg, status,2, status,0
  5454 ;; Tracked objects:
  5455 ;;		On entry : 0/0
  5456 ;;		On exit  : 0/0
  5457 ;;		Unchanged: 0/0
  5458 ;; Data sizes:     COMMON   BANK0   BANK1   BANK3   BANK2
  5459 ;;      Params:         4       0       0       0       0
  5460 ;;      Locals:         0       2       0       0       0
  5461 ;;      Temps:          0       0       0       0       0
  5462 ;;      Totals:         4       2       0       0       0
  5463 ;;Total ram usage:        6 bytes
  5464 ;; Hardware stack levels used:    1
  5465 ;; This function calls:
  5466 ;;		Nothing
  5467 ;; This function is called by:
  5468 ;;		_update_tempreture
  5469 ;; This function uses a non-reentrant model
  5470 ;;
  5471                           
  5472                           
  5473                           ;psect for function ___wmul
  5474  076B                     ___wmul:
  5475  076B                     i1l2189:	
  5476                           ;incstack = 0
  5477                           ; Regs used in ___wmul: [wreg+status,2+status,0]
  5478                           
  5479  076B  1283               	bcf	3,5	;RP0=0, select bank0
  5480  076C  1303               	bcf	3,6	;RP1=0, select bank0
  5481  076D  01A0               	clrf	___wmul@product
  5482  076E  01A1               	clrf	___wmul@product+1
  5483  076F                     i1l2191:
  5484  076F  1C7A               	btfss	___wmul@multiplier,0
  5485  0770  2F72               	goto	u173_21
  5486  0771  2F73               	goto	u173_20
  5487  0772                     u173_21:
  5488  0772  2F7B               	goto	i1l459
  5489  0773                     u173_20:
  5490  0773                     i1l2193:
  5491  0773  087C               	movf	___wmul@multiplicand,w
  5492  0774  1283               	bcf	3,5	;RP0=0, select bank0
  5493  0775  1303               	bcf	3,6	;RP1=0, select bank0
  5494  0776  07A0               	addwf	___wmul@product,f
  5495  0777  1803               	skipnc
  5496  0778  0AA1               	incf	___wmul@product+1,f
  5497  0779  087D               	movf	___wmul@multiplicand+1,w
  5498  077A  07A1               	addwf	___wmul@product+1,f
  5499  077B                     i1l459:
  5500  077B  3001               	movlw	1
  5501  077C                     u174_25:
  5502  077C  1003               	clrc
  5503  077D  0DFC               	rlf	___wmul@multiplicand,f
  5504  077E  0DFD               	rlf	___wmul@multiplicand+1,f
  5505  077F  3EFF               	addlw	-1
  5506  0780  1D03               	skipz
  5507  0781  2F7C               	goto	u174_25
  5508  0782                     i1l2195:
  5509  0782  3001               	movlw	1
  5510  0783                     u175_25:
  5511  0783  1003               	clrc
  5512  0784  0CFB               	rrf	___wmul@multiplier+1,f
  5513  0785  0CFA               	rrf	___wmul@multiplier,f
  5514  0786  3EFF               	addlw	-1
  5515  0787  1D03               	skipz
  5516  0788  2F83               	goto	u175_25
  5517  0789                     i1l2197:
  5518  0789  087A               	movf	___wmul@multiplier,w
  5519  078A  047B               	iorwf	___wmul@multiplier+1,w
  5520  078B  1D03               	btfss	3,2
  5521  078C  2F8E               	goto	u176_21
  5522  078D  2F8F               	goto	u176_20
  5523  078E                     u176_21:
  5524  078E  2F6F               	goto	i1l2191
  5525  078F                     u176_20:
  5526  078F                     i1l2199:
  5527  078F  1283               	bcf	3,5	;RP0=0, select bank0
  5528  0790  1303               	bcf	3,6	;RP1=0, select bank0
  5529  0791  0821               	movf	___wmul@product+1,w
  5530  0792  00FB               	movwf	?___wmul+1
  5531  0793  0820               	movf	___wmul@product,w
  5532  0794  00FA               	movwf	?___wmul
  5533  0795                     i1l461:
  5534  0795  0008               	return
  5535  0796                     __end_of___wmul:
  5536  007E                     btemp	set	126	;btemp
  5537  007E                     wtemp0	set	126
  5538                           
  5539                           	psect	config
  5540                           
  5541                           ;Config register CONFIG @ 0x2007
  5542                           ;	Oscillator Selection bits
  5543                           ;	FOSC = HS, HS oscillator
  5544                           ;	Watchdog Timer Enable bit
  5545                           ;	WDTE = OFF, WDT disabled
  5546                           ;	Power-up Timer Enable bit
  5547                           ;	PWRTE = OFF, PWRT disabled
  5548                           ;	Brown-out Reset Enable bit
  5549                           ;	BOREN = OFF, BOR disabled
  5550                           ;	Low-Voltage (Single-Supply) In-Circuit Serial Programming Enable bit
  5551                           ;	LVP = OFF, RB3 is digital I/O, HV on MCLR must be used for programming
  5552                           ;	Data EEPROM Memory Code Protection bit
  5553                           ;	CPD = OFF, Data EEPROM code protection off
  5554                           ;	Flash Program Memory Write Enable bits
  5555                           ;	WRT = OFF, Write protection off; all program memory may be written to by EECON control
  5556                           ;	In-Circuit Debugger Mode bit
  5557                           ;	DEBUG = 0x1, unprogrammed default
  5558                           ;	Flash Program Memory Code Protection bit
  5559                           ;	CP = OFF, Code protection off
  5560  2007                     	org	8199
  5561  2007  3F3A               	dw	16186

Data Sizes:
    Strings     0
    Constant    0
    Data        14
    BSS         15
    Persistent  1
    Stack       0

Auto Spaces:
    Space          Size  Autos    Used
    COMMON           14     14      14
    BANK0            80     32      62
    BANK1            80     11      11
    BANK3            96      0       0
    BANK2            96      0       0

Pointer List with Targets:

    itoa@str	PTR unsigned char  size(1) Largest target is 6
		 -> str(BANK0[6]), 


Critical Paths under _main in COMMON

    None.

Critical Paths under _ISR in COMMON

    _update_tempreture->___wmul
    _itoa->i1___lwdiv
    i1___lwdiv->i1___lwmod
    ___wmul->_adc_amostra

Critical Paths under _main in BANK0

    _setting_state->_flashDisplay
    _flashDisplay->_displayDeiredTempreture
    _displayDeiredTempreture->___awdiv
    _EEPROM_Write->_I2C_Master_Write
    _on_state->_displayTempreture
    _displayTempreture->___lwdiv
    _I2C_Master_Init->___lldiv
    _EEPROM_Read->_I2C_Master_Write

Critical Paths under _ISR in BANK0

    _ISR->_update_tempreture
    _update_tempreture->_itoa

Critical Paths under _main in BANK1

    _main->_I2C_Master_Init
    _setting_state->_flashDisplay

Critical Paths under _ISR in BANK1

    None.

Critical Paths under _main in BANK3

    None.

Critical Paths under _ISR in BANK3

    None.

Critical Paths under _main in BANK2

    None.

Critical Paths under _ISR in BANK2

    None.

Call Graph Tables:

 ---------------------------------------------------------------------------------
 (Depth) Function   	        Calls       Base Space   Used Autos Params    Refs
 ---------------------------------------------------------------------------------
 (0) _main                                                 4     4      0    4118
                                             31 BANK0      1     1      0
                                              8 BANK1      3     3      0
                        _EEPROM_Read
                       _EEPROM_Write
                    _I2C_Master_Init
                       _IRQ_RB0_init
                        _TIMER1_init
                           _adc_init
                          _off_state
                           _on_state
                      _setting_state
 ---------------------------------------------------------------------------------
 (1) _setting_state                                        0     0      0    1811
                       _flashDisplay
 ---------------------------------------------------------------------------------
 (2) _flashDisplay                                         6     6      0    1811
                                             29 BANK0      2     2      0
                                              0 BANK1      4     4      0
                       _EEPROM_Write
            _displayDeiredTempreture
 ---------------------------------------------------------------------------------
 (3) _displayDeiredTempreture                              4     4      0    1402
                                             25 BANK0      4     4      0
                            ___awdiv
                            ___awmod
                    _lcd_writeNumber
 ---------------------------------------------------------------------------------
 (4) ___awmod                                              6     2      4     613
                                             17 BANK0      6     2      4
 ---------------------------------------------------------------------------------
 (4) ___awdiv                                              8     4      4     625
                                             17 BANK0      8     4      4
 ---------------------------------------------------------------------------------
 (3) _EEPROM_Write                                         2     1      1     273
                                             18 BANK0      2     1      1
           _I2C_Master_RepeatedStart
                   _I2C_Master_Start
                    _I2C_Master_Stop
                   _I2C_Master_Write
 ---------------------------------------------------------------------------------
 (4) _I2C_Master_RepeatedStart                             0     0      0       0
                    _I2C_Master_Wait
 ---------------------------------------------------------------------------------
 (1) _on_state                                             2     2      0    1289
                                             28 BANK0      2     2      0
                       _changeStatus
                           _coolerOn
                  _displayTempreture
                           _heaterOn
 ---------------------------------------------------------------------------------
 (2) _heaterOn                                             0     0      0       0
 ---------------------------------------------------------------------------------
 (2) _displayTempreture                                    4     4      0    1289
                                             24 BANK0      4     4      0
                            ___lwdiv
                            ___lwmod
                    _lcd_writeNumber
 ---------------------------------------------------------------------------------
 (4) _lcd_writeNumber                                      2     2      0      96
                                             17 BANK0      2     2      0
 ---------------------------------------------------------------------------------
 (3) ___lwmod                                              5     1      4     511
                                             17 BANK0      5     1      4
 ---------------------------------------------------------------------------------
 (3) ___lwdiv                                              7     3      4     614
                                             17 BANK0      7     3      4
 ---------------------------------------------------------------------------------
 (2) _coolerOn                                             0     0      0       0
 ---------------------------------------------------------------------------------
 (2) _changeStatus                                         2     2      0       0
                                             17 BANK0      2     2      0
 ---------------------------------------------------------------------------------
 (1) _off_state                                            0     0      0       0
 ---------------------------------------------------------------------------------
 (1) _adc_init                                             0     0      0       0
 ---------------------------------------------------------------------------------
 (1) _TIMER1_init                                          0     0      0       0
 ---------------------------------------------------------------------------------
 (1) _IRQ_RB0_init                                         0     0      0       0
 ---------------------------------------------------------------------------------
 (1) _I2C_Master_Init                                      8     4      4     435
                                              0 BANK1      8     4      4
                            ___lldiv
 ---------------------------------------------------------------------------------
 (2) ___lldiv                                             14     6      8     314
                                             17 BANK0     14     6      8
 ---------------------------------------------------------------------------------
 (1) _EEPROM_Read                                          3     1      2     276
                                             18 BANK0      3     1      2
                   _I2C_Master_Start
                    _I2C_Master_Stop
                   _I2C_Master_Write
                           _I2C_NACK
                      _I2C_Read_Byte
 ---------------------------------------------------------------------------------
 (2) _I2C_Read_Byte                                        0     0      0       0
                    _I2C_Master_Wait
 ---------------------------------------------------------------------------------
 (2) _I2C_NACK                                             0     0      0       0
                    _I2C_Master_Wait
 ---------------------------------------------------------------------------------
 (4) _I2C_Master_Write                                     1     1      0      31
                                             17 BANK0      1     1      0
                    _I2C_Master_Wait
 ---------------------------------------------------------------------------------
 (4) _I2C_Master_Stop                                      0     0      0       0
                    _I2C_Master_Wait
 ---------------------------------------------------------------------------------
 (4) _I2C_Master_Start                                     0     0      0       0
                    _I2C_Master_Wait
 ---------------------------------------------------------------------------------
 (5) _I2C_Master_Wait                                      0     0      0       0
 ---------------------------------------------------------------------------------
 Estimated maximum stack depth 5
 ---------------------------------------------------------------------------------
 (Depth) Function   	        Calls       Base Space   Used Autos Params    Refs
 ---------------------------------------------------------------------------------
 (6) _ISR                                                  6     6      0    1670
                                             11 BANK0      6     6      0
                  _update_tempreture
                          i1___lwdiv
 ---------------------------------------------------------------------------------
 (7) _update_tempreture                                    8     8      0    1352
                                              3 BANK0      8     8      0
                             ___wmul
                        _adc_amostra
                               _itoa
 ---------------------------------------------------------------------------------
 (8) _itoa                                                 3     0      3     865
                                              0 BANK0      3     0      3
                          i1___lwdiv
                          i1___lwmod
 ---------------------------------------------------------------------------------
 (9) i1___lwmod                                            5     1      4     263
                                              0 COMMON     5     1      4
 ---------------------------------------------------------------------------------
 (7) i1___lwdiv                                            7     3      4     318
                                              5 COMMON     7     3      4
                          i1___lwmod (ARG)
 ---------------------------------------------------------------------------------
 (8) _adc_amostra                                         10     8      2      22
                                              0 COMMON    10     8      2
 ---------------------------------------------------------------------------------
 (8) ___wmul                                               6     2      4     396
                                             10 COMMON     4     0      4
                                              0 BANK0      2     2      0
                        _adc_amostra (ARG)
 ---------------------------------------------------------------------------------
 Estimated maximum stack depth 9
 ---------------------------------------------------------------------------------

 Call Graph Graphs:

 _main (ROOT)
   _EEPROM_Read
     _I2C_Master_Start
       _I2C_Master_Wait
     _I2C_Master_Stop
       _I2C_Master_Wait
     _I2C_Master_Write
       _I2C_Master_Wait
     _I2C_NACK
       _I2C_Master_Wait
     _I2C_Read_Byte
       _I2C_Master_Wait
   _EEPROM_Write
     _I2C_Master_RepeatedStart
       _I2C_Master_Wait
     _I2C_Master_Start
       _I2C_Master_Wait
     _I2C_Master_Stop
       _I2C_Master_Wait
     _I2C_Master_Write
       _I2C_Master_Wait
   _I2C_Master_Init
     ___lldiv
   _IRQ_RB0_init
   _TIMER1_init
   _adc_init
   _off_state
   _on_state
     _changeStatus
     _coolerOn
     _displayTempreture
       ___lwdiv
       ___lwmod
       _lcd_writeNumber
     _heaterOn
   _setting_state
     _flashDisplay
       _EEPROM_Write
         _I2C_Master_RepeatedStart
           _I2C_Master_Wait
         _I2C_Master_Start
           _I2C_Master_Wait
         _I2C_Master_Stop
           _I2C_Master_Wait
         _I2C_Master_Write
           _I2C_Master_Wait
       _displayDeiredTempreture
         ___awdiv
         ___awmod
         _lcd_writeNumber

 _ISR (ROOT)
   _update_tempreture
     ___wmul
       _adc_amostra (ARG)
     _adc_amostra
     _itoa
       i1___lwdiv
         i1___lwmod (ARG)
       i1___lwmod
   i1___lwdiv
     i1___lwmod (ARG)

 Address spaces:
Name               Size   Autos  Total    Cost      Usage
BANK3               60      0       0       9        0.0%
BITBANK3            60      0       0       8        0.0%
SFR3                 0      0       0       4        0.0%
BITSFR3              0      0       0       4        0.0%
BANK2               60      0       0      11        0.0%
BITBANK2            60      0       0      10        0.0%
SFR2                 0      0       0       5        0.0%
BITSFR2              0      0       0       5        0.0%
BANK1               50      B       B       7       13.8%
BITBANK1            50      0       0       6        0.0%
SFR1                 0      0       0       2        0.0%
BITSFR1              0      0       0       2        0.0%
BANK0               50     20      3E       5       77.5%
BITBANK0            50      0       0       4        0.0%
SFR0                 0      0       0       1        0.0%
BITSFR0              0      0       0       1        0.0%
COMMON               E      E       E       1      100.0%
BITCOMMON            E      0       0       0        0.0%
CODE                 0      0       0       0        0.0%
DATA                 0      0      57      12        0.0%
ABS                  0      0      57       3        0.0%
NULL                 0      0       0       0        0.0%
STACK                0      0       0       2        0.0%
EEDATA             100      0       0       0        0.0%


Microchip Technology PIC Macro Assembler V2.20 build 20200408173844 
Symbol Table                                                                                   Sat Jul 11 23:21:34 2020

                                pc 0002                       ___awdiv@sign 0036  
                               fsr 0004                ___wmul@multiplicand 007C  
             __size_of_adc_amostra 004E                                l101 0F99  
                              l110 0156                                l113 00D3  
                              l210 0FC4                                l130 073B  
                              l133 0FA3                                l109 0053  
                              l142 065D                                l151 0FD8  
                              l128 0736                                l136 0F9E  
                              l313 05DC                                l322 0FB2  
                              l170 0502                                l331 07B9  
                              l316 0FE5                                l340 07AC  
                              l333 07BD                                l325 0FCD  
                              l173 04AD                                l334 07C3  
                              l319 0FF1                                l328 0FBB  
                              l280 07D9                                l352 076A  
                              l337 079E                                l346 0FE4  
                              l194 0FA9                                l339 07A3  
                              l364 0709                                l612 027D  
                              l197 07FD                                l349 074A  
                              l625 03A8                                l731 0596  
                              l741 0699                                l495 02E5  
                              _GIE 005F                                _RC2 003A  
                              _RB5 0035                                _RC5 003D  
                              _RB7 0037                     ??_flashDisplay 003D  
             __end_of_changeStatus 073C                                _PEN 048A  
                              _ISR 02E6                                _SEN 0488  
                              fsr0 0004                                _str 0049  
                              indf 0000                       ___awmod@sign 0036  
                             ?_ISR 0070                               l2111 0726  
                             l2121 0739                               l2113 0727  
                             l2105 070A                               l2211 02A0  
                             l2203 027E                               l2123 073A  
                             l2115 0731                               l2107 071E  
                             l2221 02CE                               l2213 02A4  
                             l2205 0290                               l2117 0731  
                             l2109 0723                               l2125 0F9F  
                             l2223 02D7                               l2215 02AD  
                             l2207 0293                               l2119 0738  
                             l2127 0F9A                               l2217 02BF  
                             l2209 029C                               l2225 02DD  
                             l2219 02CD                               l2261 0FA4  
                             l2229 0F95                               l3063 0207  
                             l3065 0652                               l2601 0246  
                             l2259 07ED                               l2275 0FBC  
                             l2611 0269                               l2603 024A  
                             l2605 025B                               l2613 026F  
                             l2621 034E                               l2551 07CD  
                             l2615 0274                               l2607 0261  
                             l2631 0360                               l2623 0351  
                             l2711 006D                               l2545 0FE5  
                             l2553 07D5                               l2801 062C  
                             l2561 0FC5                               l2617 0279  
                             l2609 0262                               l2641 0379  
                             l2633 0365                               l2625 0355  
                             l2721 009B                               l2713 007A  
                             l2705 005D                               l2547 0FEB  
                             l2571 07B5                               l1931 0555  
                             l2555 07D8                               l2811 0642  
                             l2563 0FCA                               l2643 037D  
                             l2635 036B                               l2651 039A  
                             l2627 035A                               l2731 00D7  
                             l2723 00A8                               l2715 008D  
                             l2707 0062                               l2557 0FAA  
                             l2565 0FB3                               l2573 07BE  
                             l1941 056D                               l1933 055B  
                             l2549 07C7                               l2805 0631  
                             l2661 0745                               l2581 021C  
                             l2653 039F                               l2645 0387  
                             l2637 036E                               l2629 035C  
                             l2741 00EB                               l2725 00BB  
                             l2709 0068                               l2717 0090  
                             l2821 0FCE                               l2901 01A1  
                             l2559 0FAF                               l2567 0FB8  
                             l2831 05D9                               l1943 057E  
                             l1935 055E                               l1951 0592  
                             l2815 0648                               l2807 0636  
                             l2663 0755                               l2591 0230  
                             l2583 0221                               l2655 03A4  
                             l2647 038D                               l2639 0375  
                             l2671 0488                               l2751 0119  
                             l2743 00F0                               l2719 0096  
                             l2727 00BE                               l2823 0FD3  
                             l2911 01E3                               l2903 01AF  
                             l2569 07B0                               l2841 06FC  
                             l2833 05DA                               l2825 0597  
                             l1945 0584                               l1937 0565  
                             l1929 0551                               l1961 0670  
                             l2809 063C                               l2593 0232  
                             l2585 0223                               l2577 0215  
                             l2649 0394                               l2681 04AA  
                             l2673 0493                               l2665 0459  
                             l2761 0149                               l2753 011E  
                             l2745 00FD                               l2737 00DB  
                             l2729 00C6                               l2913 01EA  
                             l2921 01FB                               l2905 01BD  
                             l2843 0701                               l2835 05DB  
                             l2827 059B                               l1947 0585  
                             l1939 0569                               l1971 068F  
                             l1963 0674                               l1955 065E  
                             l2771 04E8                               l2763 04AE  
                             l2659 073F                               l2595 0238  
                             l2587 0227                               l2579 0218  
                             l2675 0496                               l2667 0481  
                             l2755 012B                               l2747 0110  
                             l2739 00E5                               l2691 0048  
                             l2683 0036                               l2915 01F0  
                             l2907 01C4                               l2781 0796  
                             l2845 0706                               l2837 06D4  
                             l2829 059E                               l1949 058C  
                             l1965 0678                               l1957 0666  
                             l1973 0695                               l2773 04EB  
                             l2765 04D6                               l2597 023B  
                             l2589 022C                               l2677 049C  
                             l2669 0482                               l2757 013E  
                             l2749 0113                               l2685 003C  
                             l2917 01F6                               l2909 01DB  
                             l2861 0174                               l2791 0FD9  
                             l2783 079B                               l2839 06F2  
                             l1967 0682                               l1959 0669  
                             l2775 04F1                               l2767 04D7  
                             l2599 0242                               l2679 049F  
                             l2759 0141                               l2687 0040  
                             l2871 017F                               l2863 0175  
                             l2855 0157                               l2793 0FDC  
                             l2785 07A4                               l1969 0688  
                             l2777 04F4                               l2769 04DD  
                             l2697 0055                               l2689 0046  
                             l2881 0188                               l2873 0180  
                             l2865 0178                               l2857 0161  
                             l2795 0FE1                               l2787 07A9  
                             l2779 04FF                               l2699 0059  
                             l2891 0198                               l2883 018B  
                             l2875 0183                               l2867 017B  
                             l2859 0170                               l2797 0621  
                             l2893 0199                               l2885 018E  
                             l2877 0184                               l2869 017C  
                             l2799 0628                               l2895 019A  
                             l2887 018F                               l2879 0185  
                             l2897 019B                               l2889 0194  
                             l2899 019D                               u2000 021C  
                             u2001 021B                               u2010 0227  
                             u2011 0226                               u1300 0666  
                             u2020 0238                               u2100 0355  
                             u1301 0665                               u2021 0237  
                             u2101 0354                               u1230 055B  
                             u2110 0360                               u1231 055A  
                             u2111 035F                               u1320 0678  
                             u2040 024A                               u2120 036B  
                             u2200 003C                               u1321 0677  
                             u2041 0249                               u2121 036A  
                             u2201 003B                               u1250 056D  
                             u1330 0682                               u2210 0040  
                             u1251 056C                               u1331 0681  
                             u1315 066A                               u2035 023C  
                             u2211 003F                               u2060 025B  
                             u2140 037D                               u2300 00EB  
                             u2220 0046                               u1245 055F  
                             u2061 025A                               u2141 037C  
                             u2301 00EA                               u2221 0045  
                             u1270 057E                               u1350 0695  
                             u2150 0387                               u2310 00F0  
                             u2230 0068                               u1271 057D  
                             u1351 0694                               u1335 067E  
                             u2055 024B                               u2151 0386  
                             u2135 036F                               u2311 00EF  
                             u2231 0067                               u2400 05AC  
                             u2080 026F                               u2320 00FD  
                             u2240 006D                               u1265 056E  
                             u1345 0689                               u2081 026E  
                             u2065 0257                               u2321 00FC  
                             u2241 006C                               u1290 0592  
                             u2090 0274                               u2170 039A  
                             u2330 0119                               u2250 007A  
                             u2410 01C4                               u1291 0591  
                             u1275 057A                               u2091 0273  
                             u2075 0263                               u2171 0399  
                             u2155 0383                               u2331 0118  
                             u2251 0079                               u2411 01C3  
                             u2180 039F                               u2340 011E  
                             u2260 0096                               u2405 05A7  
                             u1285 0586                               u2181 039E  
                             u2165 038E                               u2341 011D  
                             u2325 00F9                               u2261 0095  
                             u2190 0755                               u2350 012B  
                             u2270 009B                               u2191 0754  
                             u2351 012A                               u2271 009A  
                             u2255 0076                               u2360 0156  
                             u2280 00A8                               u2361 0155  
                             u2281 00A7                               u2370 07A3  
                             u1810 02BF                               u2290 00D3  
                             u2371 07A2                               u1811 02BE  
                             u2355 0127                               u2507 010B  
                             u2291 00D2                               u1660 071E  
                             u2380 0628                               u1805 02A6  
                             u1661 071D                               u2381 0627  
                             u2365 0152                               u2517 0139  
                             u2285 00A4                               u1830 02DD  
                             u1670 0723                               u2390 062C  
                             u1831 02DC                               u1815 02BB  
                             u1671 0722                               u2391 062B  
                             u2527 048E                               u2295 00CF  
                             u1680 0731                               u1825 02CF  
                             u1681 0730                               u1665 071A  
                             u2537 04A5                               u1770 0290  
                             u1771 028F                               u2547 04E3  
                             u2467 01B7                               u1685 072D  
                             u2557 04FA                               u2477 0088  
                             u1790 02A4                               u1791 02A3  
                             u2487 00B6                               u1960 0FEB  
                             u1961 0FEA                               u1785 0295  
                             u2497 00E1                               u1970 0FF1  
                             u1971 0FF0                               _PEIE 005E  
                             u1980 07CD                               u1981 07CC  
                             _INTE 005C                               u1990 07BD  
                             _INTF 0059                               u1991 07BC  
                             _RCEN 048B                               _TMR1 000E  
                             _RSEN 0489                   __end_of_I2C_NACK 0FE5  
 __end_of_I2C_Master_RepeatedStart 0FCE                               _main 0157  
                             _itoa 0401                               btemp 007E  
                             start 0012                    EEPROM_Write@add 0033  
                            ??_ISR 002B               __end_of_EEPROM_Write 076B  
         ?_displayDeiredTempreture 0070                   ?_I2C_Master_Init 00A0  
                 ?_I2C_Master_Wait 0070                   ?_I2C_Master_Stop 0070  
                            ?_main 0070                              _ACKEN 048C  
                            _ACKDT 048D                              ?_itoa 0020  
                  __end_of___awdiv 027E                    __end_of___awmod 03A9  
                  __end_of___lldiv 02E6                    ___awdiv@divisor 0031  
                  __end_of___lwdiv 0597                              i1l221 0550  
                            i1l215 0527                              i1l225 0458  
                            i1l218 052A                              i1l181 0307  
                            i1l191 0343                              i1l183 02EC  
                            i1l176 0400                              i1l185 02F1  
                  __end_of___lwmod 069A                              i1l461 0795  
          flashDisplay@prev_status 005B                              i1l459 077B  
                            i1l731 0620                              i1l741 06D3  
                  ___awdiv@counter 0035                   _TargetTempreture 0059  
                            _PORTD 0008                              _TRISA 0085  
                            _TRISD 0088                              _SSPIF 0063  
          __end_of_lcd_writeNumber 07DA                    ??_setting_state 003F  
               i1___lwmod@dividend 0072             __size_of_I2C_Read_Byte 0017  
                            _state 005D                              pclath 000A  
                            status 0003                              wtemp0 007E  
               __size_ofi1___lwdiv 0044                   EEPROM_Write@data 0032  
               __size_ofi1___lwmod 003A               __size_of_EEPROM_Read 0036  
                  __initialization 0015                       __end_of_main 0215  
                     __end_of_itoa 0459                             ??_main 00A8  
                           ??_itoa 007C                       ?_TIMER1_init 0070  
                ?_I2C_Master_Start 0070                  ?_I2C_Master_Write 0070  
               ??_I2C_Master_Start 0031                             _ADCON0 001F  
                           _ADCON1 009F                 ??_I2C_Master_Write 0031  
                           _ADRESH 001E                             _ADRESL 009E  
                 ___awdiv@dividend 0033                   __end_of_adc_init 0FC5  
                           i1l2011 06AE                             i1l2003 069A  
                           i1l2013 06B2                             i1l2005 06A0  
                           i1l2021 06CF                             i1l2015 06BC  
                           i1l2007 06A3                             i1l2017 06C2  
                           i1l2009 06AA                             i1l2019 06C9  
                           i1l2151 050A                             i1l2153 050F  
                           i1l2401 031D                             i1l2147 0504  
                           i1l2171 0453                             i1l2411 0340  
                           i1l2403 031E                             i1l2149 0505  
                           i1l2157 0514                             i1l2413 0341  
                           i1l2405 0323                             i1l2191 076F  
                           i1l2159 052E                             i1l2167 0401  
                           i1l2407 032B                             i1l2193 0773  
                           i1l2169 044B                             i1l2409 033E  
                           i1l2195 0782                             i1l2291 03C9  
                           i1l3067 02FC                             i1l2197 0789  
                           i1l2189 076B                             i1l3069 051C  
                           i1l2293 03D6                             i1l2381 02EA  
                           i1l2199 078F                             i1l2295 03DC  
                           i1l2391 030C                             i1l2383 02F2  
                           i1l2297 03E0                             i1l2289 03A9  
                           i1l2393 0310                             i1l2395 0311  
                           i1l2387 02F4                             i1l2379 02E6  
                           i1l2397 0317                             i1l2389 030B  
                           i1l2399 0319                             i1l1981 05E5  
                           i1l1991 0608                             i1l1983 05E8  
                           u140_20 0608                             i1l1993 060E  
                           u140_21 0607                             i1l1985 05EF  
                           i1l1977 05DD                             i1l1995 060F  
                           i1l1987 05F3                             i1l1979 05DF  
                           i1l1997 0616                             u140_25 0604  
                           i1l1989 05F7                             i1l1999 061C  
                           u141_25 0610                             u142_20 061C  
                           u142_21 061B                             _INTEDG 040E  
                           u143_20 06A0                             u143_21 069F  
                           u136_20 05E5                             u136_21 05E4  
                           u144_25 06A4                             u145_20 06B2  
                           u145_21 06B1                             u137_25 05E9  
                           u138_20 05F7                             u146_20 06BC  
                           u138_21 05F6                             u146_21 06BB  
                           u170_25 0533                             u146_25 06B8  
                           u171_20 0453                             u171_21 0452  
                           u139_25 05F8                             u147_25 06C3  
                           u148_20 06CF                             u148_21 06CE  
                           u173_20 0773                             u173_21 0772  
                           u190_20 0317                             u190_21 0316  
                           u174_25 077C                             u191_20 032B  
                           u191_21 032A                             u175_25 0783  
                           u176_20 078F                             u176_21 078E  
                           u169_20 052E                             u169_21 052D  
                           u188_20 02EA                             u188_21 02E9  
                           u189_20 030B                             u189_21 030A  
                           _TMR1IE 0460                             _TMR1IF 0060  
                           _TMR1CS 0081                             _TMR1ON 0080  
                           _SSPADD 0093                             _TRISB3 0433  
                           _TRISC2 043A                             _TRISB4 0434  
                           _TRISB5 0435                             _TRISC3 043B  
                           _TRISC4 043C                             _TRISC5 043D  
                           _TRISB7 0437                             _SSPCON 0014  
                           _SSPBUF 0013               __end_of_flashDisplay 0157  
                 __end_of_heaterOn 0FA4           _I2C_Master_RepeatedStart 0FC5  
                 __end_of_coolerOn 0F9F                      _I2C_Read_Byte 0796  
                           ___wmul 076B                          ??___awdiv 0035  
                        ??___awmod 0035                             _canuse 005C  
                        ??___lldiv 0039              __size_of_changeStatus 0032  
                        ??___lwdiv 0035                          ??___lwmod 0035  
                 ___awdiv@quotient 0037                    ___awmod@divisor 0031  
                  ___awmod@counter 0035                          ?_I2C_NACK 0070  
                 __end_of_on_state 065E                  __end_ofi1___lwdiv 0621  
                __end_ofi1___lwmod 06D4                             saved_w 007E  
                 ?_lcd_writeNumber 0070                      ?_IRQ_RB0_init 0070  
                _update_tempreture 03A9                 ?_update_tempreture 0070  
          __end_of__initialization 0032                       _changeStatus 070A  
            __size_of_EEPROM_Write 002F                ??_update_tempreture 0023  
                   ?_I2C_Read_Byte 0070                     __pcstackCOMMON 0070  
                     __pidataBANK0 0FF2                         ??_I2C_NACK 0031  
                   ??_IRQ_RB0_init 0031          __end_of_update_tempreture 0401  
                     _EEPROM_Write 073C                         __pbssBANK0 0040  
       displayDeiredTempreture@low 003B                 __size_of_off_state 0005  
                       __pmaintext 0157                            ?___wmul 007A  
                    ??_adc_amostra 0072                         __pintentry 0004  
                          _ACKSTAT 048E                          ?_adc_init 0070  
                          _T1CKPS0 0084                            _T1CKPS1 0085  
             __size_of_TIMER1_init 0011                          ?_heaterOn 0070  
 __size_of_displayDeiredTempreture 0055                            _SSPCON2 0091  
                          _SSPSTAT 0094                          ?_coolerOn 0070  
            __size_of_flashDisplay 0121                    ??_I2C_Read_Byte 0031  
                        ?_on_state 0070                            ___awdiv 0215  
                          ___awmod 034E                            ___lldiv 027E  
                  __size_of___wmul 002B                            ___lwdiv 0551  
                          ___lwmod 065E                         ??_adc_init 0031  
                          __ptext1 0FCE                            __ptext2 0036  
                          __ptext3 0459                            __ptext4 034E  
                          __ptext5 0215                            __ptext6 073C  
                          __ptext7 0FC5                            __ptext8 0621  
                          __ptext9 0F9F               displayTempreture@low 003A  
                _Number_Tempreture 0047                       __size_of_ISR 0068  
                i1___lwdiv@divisor 0075                __end_of_adc_amostra 0551  
                i1___lwdiv@counter 007B                  __end_of_off_state 0F9A  
                     _flashDisplay 0036                   ___awmod@dividend 0033  
       __size_of_update_tempreture 0058           __size_of_I2C_Master_Init 0046  
         __size_of_I2C_Master_Wait 000D           __size_of_I2C_Master_Stop 0009  
                       ??_heaterOn 0031              __end_of_setting_state 0FD9  
                       ??_coolerOn 0031               end_of_initialization 0032  
       ??_I2C_Master_RepeatedStart 0031                      ??_EEPROM_Read 0034  
                          itoa@val 0020                            itoa@str 0022  
        __size_of_I2C_Master_Start 0009          __size_of_I2C_Master_Write 0017  
                  ___lldiv@divisor 0031                         ??_on_state 003C  
                  ___lldiv@counter 003E               __end_of_IRQ_RB0_init 0FAA  
                       _temp_state 0048                          _PORTAbits 0005  
                        _PORTBbits 0006                          _PORTEbits 0009  
                __size_of_I2C_NACK 000C                          i1___lwdiv 05DD  
                        i1___lwmod 069A                __end_of_EEPROM_Read 070A  
                      _adc_amostra 0503                     __end_of___wmul 0796  
                i1___lwmod@divisor 0070                  i1___lwmod@counter 0074  
              start_initialization 0015                        __end_of_ISR 034E  
          _displayDeiredTempreture 0459                         ?i1___lwdiv 0075  
                       ?i1___lwmod 0070                  ??_I2C_Master_Init 00A4  
                ??_I2C_Master_Wait 0031           __size_of_lcd_writeNumber 0016  
                ??_I2C_Master_Stop 0031                 update_tempreture@x 002A  
               update_tempreture@y 0029                           ??___wmul 007E  
                       init_fetch0 07DA                        __pdataBANK0 004F  
                _displayTempreture 04AE              lcd_writeNumber@number 0032  
               ?_displayTempreture 0070                  __size_of_adc_init 0009  
                        ___latbits 0002                      __pcstackBANK0 0020  
                    __pcstackBANK1 00A0                      _segments_code 004F  
              ??_displayTempreture 0038        displayDeiredTempreture@high 003C  
                __size_of_heaterOn 0005                lcd_writeNumber@code 0031  
            __size_of_IRQ_RB0_init 0006                  __size_of_coolerOn 0005  
                      _EEPROM_Read 06D4                          __pnvBANK0 005D  
                 _I2C_Master_Start 0FAA                   _I2C_Master_Write 07AD  
                 ___lwdiv@dividend 0033                  __size_of_on_state 003D  
                         ?___awdiv 0031                           ?___awmod 0031  
        __end_of_displayTempreture 0503                           ?___lldiv 0031  
                         ?___lwdiv 0031                           ?___lwmod 0031  
             I2C_Master_Write@data 0031            _accumilated_tmeperature 0040  
        ??_displayDeiredTempreture 0039                           _I2C_NACK 0FD9  
                    ??_TIMER1_init 0031                       _IRQ_RB0_init 0FA4  
                 ___lwdiv@quotient 0035                        ??i1___lwdiv 0079  
                      ??i1___lwmod 0074                          _off_state 0F95  
                flashDisplay@i_183 00A2                  flashDisplay@count 0044  
                interrupt_function 0004                     ___wmul@product 0020  
            __end_of_I2C_Read_Byte 07AD                  ??_lcd_writeNumber 0031  
                       _ADCON0bits 001F                  ___wmul@multiplier 007A  
              I2C_Master_Init@baud 00A0                         ?_off_state 0070  
              __end_of_TIMER1_init 07FE              update_tempreture@temp 0027  
                    _timer1counter 0046                           _ReadTemp 0045  
  __end_of_displayDeiredTempreture 04AE                      ?_changeStatus 0070  
       __size_of_displayTempreture 0055                       ?_adc_amostra 0070  
__size_of_I2C_Master_RepeatedStart 0009                   __size_of___awdiv 0069  
                 __size_of___awmod 005B          ?_I2C_Master_RepeatedStart 0070  
                 __size_of___lldiv 0068             __size_of_setting_state 000B  
                 __size_of___lwdiv 0046                   __size_of___lwmod 003C  
                         _adc_init 0FBC                    _I2C_Master_Init 0597  
                  _I2C_Master_Wait 0FE5                    _I2C_Master_Stop 0FB3  
                  ___lwdiv@divisor 0031                    ___lwdiv@counter 0037  
                         __ptext10 04AE                           __ptext11 07C4  
                         __ptext20 0597                           __ptext12 065E  
                         __ptext21 027E                           __ptext13 0551  
                         __ptext30 03A9                           __ptext22 06D4  
                         __ptext14 0F9A                           __ptext31 0401  
                         __ptext23 0796                           __ptext15 070A  
                         __ptext32 069A                           __ptext24 0FD9  
                         __ptext16 0F95                           __ptext33 05DD  
                         __ptext25 07AD                           __ptext17 0FBC  
                         __ptext34 0503                           __ptext26 0FB3  
                         __ptext18 07ED                           __ptext35 076B  
                         __ptext27 0FAA                           __ptext19 0FA4  
                         __ptext28 0FE5                           __ptext29 02E6  
                         _heaterOn 0F9F                      ?_EEPROM_Write 0032  
                         _coolerOn 0F9A              displayTempreture@high 003B  
               i1___lwdiv@dividend 0077                     ??_changeStatus 0031  
                    __size_of_main 00BE                      __size_of_itoa 0058  
                         _on_state 0621                           main@flag 003F  
               i1___lwdiv@quotient 0079           __end_of_I2C_Master_Start 0FB3  
                      _TIMER1_init 07ED           __end_of_I2C_Master_Write 07C4  
                         init_ram0 07DE                     ??_EEPROM_Write 0033  
                      ??_off_state 0031                           intlevel1 0000  
                    _setting_state 0FCE                   ___lwmod@dividend 0033  
                     ?_EEPROM_Read 0032                   ___lldiv@dividend 0035  
                       _TEMPRETURE 0042            __end_of_I2C_Master_Init 05DD  
          __end_of_I2C_Master_Wait 0FF2            __end_of_I2C_Master_Stop 0FBC  
                    ?_flashDisplay 0070                   ___lldiv@quotient 003A  
                  ___lwmod@divisor 0031                    ___lwmod@counter 0035  
                 adc_amostra@canal 0079                     ?_setting_state 0070  
                  _lcd_writeNumber 07C4                      flashDisplay@i 00A0  
                  EEPROM_Read@Data 0034                     EEPROM_Read@add 0032  
